
test-st7735.elf:     file format elf32-littlearm

Sections:
Idx Name          Size      VMA       LMA       File off  Algn
  0 .isr_vector   000000bc  08000000  08000000  00010000  2**0
                  CONTENTS, ALLOC, LOAD, READONLY, DATA
  1 .text         00006f98  080000bc  080000bc  000100bc  2**2
                  CONTENTS, ALLOC, LOAD, READONLY, CODE
  2 .rodata       000029cc  08007054  08007054  00017054  2**2
                  CONTENTS, ALLOC, LOAD, READONLY, DATA
  3 .ARM.extab    00000000  08009a20  08009a20  00020030  2**0
                  CONTENTS
  4 .ARM          00000000  08009a20  08009a20  00020030  2**0
                  CONTENTS
  5 .preinit_array 00000000  08009a20  08009a20  00020030  2**0
                  CONTENTS, ALLOC, LOAD, DATA
  6 .init_array   00000004  08009a20  08009a20  00019a20  2**2
                  CONTENTS, ALLOC, LOAD, DATA
  7 .fini_array   00000004  08009a24  08009a24  00019a24  2**2
                  CONTENTS, ALLOC, LOAD, DATA
  8 .data         00000030  20000000  08009a28  00020000  2**2
                  CONTENTS, ALLOC, LOAD, DATA
  9 .bss          00000160  20000030  08009a58  00020030  2**2
                  ALLOC
 10 ._user_heap_stack 00000600  20000190  08009a58  00020190  2**0
                  ALLOC
 11 .ARM.attributes 00000028  00000000  00000000  00020030  2**0
                  CONTENTS, READONLY
 12 .comment      00000043  00000000  00000000  00020058  2**0
                  CONTENTS, READONLY
 13 .debug_info   00008afb  00000000  00000000  0002009b  2**0
                  CONTENTS, READONLY, DEBUGGING, OCTETS
 14 .debug_abbrev 00001d8e  00000000  00000000  00028b96  2**0
                  CONTENTS, READONLY, DEBUGGING, OCTETS
 15 .debug_aranges 000008e0  00000000  00000000  0002a928  2**3
                  CONTENTS, READONLY, DEBUGGING, OCTETS
 16 .debug_rnglists 000006ab  00000000  00000000  0002b208  2**0
                  CONTENTS, READONLY, DEBUGGING, OCTETS
 17 .debug_macro  000115c6  00000000  00000000  0002b8b3  2**0
                  CONTENTS, READONLY, DEBUGGING, OCTETS
 18 .debug_line   0000c3d5  00000000  00000000  0003ce79  2**0
                  CONTENTS, READONLY, DEBUGGING, OCTETS
 19 .debug_str    00064d22  00000000  00000000  0004924e  2**0
                  CONTENTS, READONLY, DEBUGGING, OCTETS
 20 .debug_frame  00002110  00000000  00000000  000adf70  2**2
                  CONTENTS, READONLY, DEBUGGING, OCTETS
 21 .debug_line_str 0000006b  00000000  00000000  000b0080  2**0
                  CONTENTS, READONLY, DEBUGGING, OCTETS

Disassembly of section .text:

080000bc <__do_global_dtors_aux>:
 80000bc:	b510      	push	{r4, lr}
 80000be:	4c06      	ldr	r4, [pc, #24]	; (80000d8 <__do_global_dtors_aux+0x1c>)
 80000c0:	7823      	ldrb	r3, [r4, #0]
 80000c2:	2b00      	cmp	r3, #0
 80000c4:	d107      	bne.n	80000d6 <__do_global_dtors_aux+0x1a>
 80000c6:	4b05      	ldr	r3, [pc, #20]	; (80000dc <__do_global_dtors_aux+0x20>)
 80000c8:	2b00      	cmp	r3, #0
 80000ca:	d002      	beq.n	80000d2 <__do_global_dtors_aux+0x16>
 80000cc:	4804      	ldr	r0, [pc, #16]	; (80000e0 <__do_global_dtors_aux+0x24>)
 80000ce:	e000      	b.n	80000d2 <__do_global_dtors_aux+0x16>
 80000d0:	bf00      	nop
 80000d2:	2301      	movs	r3, #1
 80000d4:	7023      	strb	r3, [r4, #0]
 80000d6:	bd10      	pop	{r4, pc}
 80000d8:	20000030 	.word	0x20000030
 80000dc:	00000000 	.word	0x00000000
 80000e0:	0800703c 	.word	0x0800703c

080000e4 <frame_dummy>:
 80000e4:	4b04      	ldr	r3, [pc, #16]	; (80000f8 <frame_dummy+0x14>)
 80000e6:	b510      	push	{r4, lr}
 80000e8:	2b00      	cmp	r3, #0
 80000ea:	d003      	beq.n	80000f4 <frame_dummy+0x10>
 80000ec:	4903      	ldr	r1, [pc, #12]	; (80000fc <frame_dummy+0x18>)
 80000ee:	4804      	ldr	r0, [pc, #16]	; (8000100 <frame_dummy+0x1c>)
 80000f0:	e000      	b.n	80000f4 <frame_dummy+0x10>
 80000f2:	bf00      	nop
 80000f4:	bd10      	pop	{r4, pc}
 80000f6:	46c0      	nop			; (mov r8, r8)
 80000f8:	00000000 	.word	0x00000000
 80000fc:	20000034 	.word	0x20000034
 8000100:	0800703c 	.word	0x0800703c

08000104 <__udivsi3>:
 8000104:	2200      	movs	r2, #0
 8000106:	0843      	lsrs	r3, r0, #1
 8000108:	428b      	cmp	r3, r1
 800010a:	d374      	bcc.n	80001f6 <__udivsi3+0xf2>
 800010c:	0903      	lsrs	r3, r0, #4
 800010e:	428b      	cmp	r3, r1
 8000110:	d35f      	bcc.n	80001d2 <__udivsi3+0xce>
 8000112:	0a03      	lsrs	r3, r0, #8
 8000114:	428b      	cmp	r3, r1
 8000116:	d344      	bcc.n	80001a2 <__udivsi3+0x9e>
 8000118:	0b03      	lsrs	r3, r0, #12
 800011a:	428b      	cmp	r3, r1
 800011c:	d328      	bcc.n	8000170 <__udivsi3+0x6c>
 800011e:	0c03      	lsrs	r3, r0, #16
 8000120:	428b      	cmp	r3, r1
 8000122:	d30d      	bcc.n	8000140 <__udivsi3+0x3c>
 8000124:	22ff      	movs	r2, #255	; 0xff
 8000126:	0209      	lsls	r1, r1, #8
 8000128:	ba12      	rev	r2, r2
 800012a:	0c03      	lsrs	r3, r0, #16
 800012c:	428b      	cmp	r3, r1
 800012e:	d302      	bcc.n	8000136 <__udivsi3+0x32>
 8000130:	1212      	asrs	r2, r2, #8
 8000132:	0209      	lsls	r1, r1, #8
 8000134:	d065      	beq.n	8000202 <__udivsi3+0xfe>
 8000136:	0b03      	lsrs	r3, r0, #12
 8000138:	428b      	cmp	r3, r1
 800013a:	d319      	bcc.n	8000170 <__udivsi3+0x6c>
 800013c:	e000      	b.n	8000140 <__udivsi3+0x3c>
 800013e:	0a09      	lsrs	r1, r1, #8
 8000140:	0bc3      	lsrs	r3, r0, #15
 8000142:	428b      	cmp	r3, r1
 8000144:	d301      	bcc.n	800014a <__udivsi3+0x46>
 8000146:	03cb      	lsls	r3, r1, #15
 8000148:	1ac0      	subs	r0, r0, r3
 800014a:	4152      	adcs	r2, r2
 800014c:	0b83      	lsrs	r3, r0, #14
 800014e:	428b      	cmp	r3, r1
 8000150:	d301      	bcc.n	8000156 <__udivsi3+0x52>
 8000152:	038b      	lsls	r3, r1, #14
 8000154:	1ac0      	subs	r0, r0, r3
 8000156:	4152      	adcs	r2, r2
 8000158:	0b43      	lsrs	r3, r0, #13
 800015a:	428b      	cmp	r3, r1
 800015c:	d301      	bcc.n	8000162 <__udivsi3+0x5e>
 800015e:	034b      	lsls	r3, r1, #13
 8000160:	1ac0      	subs	r0, r0, r3
 8000162:	4152      	adcs	r2, r2
 8000164:	0b03      	lsrs	r3, r0, #12
 8000166:	428b      	cmp	r3, r1
 8000168:	d301      	bcc.n	800016e <__udivsi3+0x6a>
 800016a:	030b      	lsls	r3, r1, #12
 800016c:	1ac0      	subs	r0, r0, r3
 800016e:	4152      	adcs	r2, r2
 8000170:	0ac3      	lsrs	r3, r0, #11
 8000172:	428b      	cmp	r3, r1
 8000174:	d301      	bcc.n	800017a <__udivsi3+0x76>
 8000176:	02cb      	lsls	r3, r1, #11
 8000178:	1ac0      	subs	r0, r0, r3
 800017a:	4152      	adcs	r2, r2
 800017c:	0a83      	lsrs	r3, r0, #10
 800017e:	428b      	cmp	r3, r1
 8000180:	d301      	bcc.n	8000186 <__udivsi3+0x82>
 8000182:	028b      	lsls	r3, r1, #10
 8000184:	1ac0      	subs	r0, r0, r3
 8000186:	4152      	adcs	r2, r2
 8000188:	0a43      	lsrs	r3, r0, #9
 800018a:	428b      	cmp	r3, r1
 800018c:	d301      	bcc.n	8000192 <__udivsi3+0x8e>
 800018e:	024b      	lsls	r3, r1, #9
 8000190:	1ac0      	subs	r0, r0, r3
 8000192:	4152      	adcs	r2, r2
 8000194:	0a03      	lsrs	r3, r0, #8
 8000196:	428b      	cmp	r3, r1
 8000198:	d301      	bcc.n	800019e <__udivsi3+0x9a>
 800019a:	020b      	lsls	r3, r1, #8
 800019c:	1ac0      	subs	r0, r0, r3
 800019e:	4152      	adcs	r2, r2
 80001a0:	d2cd      	bcs.n	800013e <__udivsi3+0x3a>
 80001a2:	09c3      	lsrs	r3, r0, #7
 80001a4:	428b      	cmp	r3, r1
 80001a6:	d301      	bcc.n	80001ac <__udivsi3+0xa8>
 80001a8:	01cb      	lsls	r3, r1, #7
 80001aa:	1ac0      	subs	r0, r0, r3
 80001ac:	4152      	adcs	r2, r2
 80001ae:	0983      	lsrs	r3, r0, #6
 80001b0:	428b      	cmp	r3, r1
 80001b2:	d301      	bcc.n	80001b8 <__udivsi3+0xb4>
 80001b4:	018b      	lsls	r3, r1, #6
 80001b6:	1ac0      	subs	r0, r0, r3
 80001b8:	4152      	adcs	r2, r2
 80001ba:	0943      	lsrs	r3, r0, #5
 80001bc:	428b      	cmp	r3, r1
 80001be:	d301      	bcc.n	80001c4 <__udivsi3+0xc0>
 80001c0:	014b      	lsls	r3, r1, #5
 80001c2:	1ac0      	subs	r0, r0, r3
 80001c4:	4152      	adcs	r2, r2
 80001c6:	0903      	lsrs	r3, r0, #4
 80001c8:	428b      	cmp	r3, r1
 80001ca:	d301      	bcc.n	80001d0 <__udivsi3+0xcc>
 80001cc:	010b      	lsls	r3, r1, #4
 80001ce:	1ac0      	subs	r0, r0, r3
 80001d0:	4152      	adcs	r2, r2
 80001d2:	08c3      	lsrs	r3, r0, #3
 80001d4:	428b      	cmp	r3, r1
 80001d6:	d301      	bcc.n	80001dc <__udivsi3+0xd8>
 80001d8:	00cb      	lsls	r3, r1, #3
 80001da:	1ac0      	subs	r0, r0, r3
 80001dc:	4152      	adcs	r2, r2
 80001de:	0883      	lsrs	r3, r0, #2
 80001e0:	428b      	cmp	r3, r1
 80001e2:	d301      	bcc.n	80001e8 <__udivsi3+0xe4>
 80001e4:	008b      	lsls	r3, r1, #2
 80001e6:	1ac0      	subs	r0, r0, r3
 80001e8:	4152      	adcs	r2, r2
 80001ea:	0843      	lsrs	r3, r0, #1
 80001ec:	428b      	cmp	r3, r1
 80001ee:	d301      	bcc.n	80001f4 <__udivsi3+0xf0>
 80001f0:	004b      	lsls	r3, r1, #1
 80001f2:	1ac0      	subs	r0, r0, r3
 80001f4:	4152      	adcs	r2, r2
 80001f6:	1a41      	subs	r1, r0, r1
 80001f8:	d200      	bcs.n	80001fc <__udivsi3+0xf8>
 80001fa:	4601      	mov	r1, r0
 80001fc:	4152      	adcs	r2, r2
 80001fe:	4610      	mov	r0, r2
 8000200:	4770      	bx	lr
 8000202:	e7ff      	b.n	8000204 <__udivsi3+0x100>
 8000204:	b501      	push	{r0, lr}
 8000206:	2000      	movs	r0, #0
 8000208:	f000 f8f0 	bl	80003ec <__aeabi_idiv0>
 800020c:	bd02      	pop	{r1, pc}
 800020e:	46c0      	nop			; (mov r8, r8)

08000210 <__aeabi_uidivmod>:
 8000210:	2900      	cmp	r1, #0
 8000212:	d0f7      	beq.n	8000204 <__udivsi3+0x100>
 8000214:	e776      	b.n	8000104 <__udivsi3>
 8000216:	4770      	bx	lr

08000218 <__divsi3>:
 8000218:	4603      	mov	r3, r0
 800021a:	430b      	orrs	r3, r1
 800021c:	d47f      	bmi.n	800031e <__divsi3+0x106>
 800021e:	2200      	movs	r2, #0
 8000220:	0843      	lsrs	r3, r0, #1
 8000222:	428b      	cmp	r3, r1
 8000224:	d374      	bcc.n	8000310 <__divsi3+0xf8>
 8000226:	0903      	lsrs	r3, r0, #4
 8000228:	428b      	cmp	r3, r1
 800022a:	d35f      	bcc.n	80002ec <__divsi3+0xd4>
 800022c:	0a03      	lsrs	r3, r0, #8
 800022e:	428b      	cmp	r3, r1
 8000230:	d344      	bcc.n	80002bc <__divsi3+0xa4>
 8000232:	0b03      	lsrs	r3, r0, #12
 8000234:	428b      	cmp	r3, r1
 8000236:	d328      	bcc.n	800028a <__divsi3+0x72>
 8000238:	0c03      	lsrs	r3, r0, #16
 800023a:	428b      	cmp	r3, r1
 800023c:	d30d      	bcc.n	800025a <__divsi3+0x42>
 800023e:	22ff      	movs	r2, #255	; 0xff
 8000240:	0209      	lsls	r1, r1, #8
 8000242:	ba12      	rev	r2, r2
 8000244:	0c03      	lsrs	r3, r0, #16
 8000246:	428b      	cmp	r3, r1
 8000248:	d302      	bcc.n	8000250 <__divsi3+0x38>
 800024a:	1212      	asrs	r2, r2, #8
 800024c:	0209      	lsls	r1, r1, #8
 800024e:	d065      	beq.n	800031c <__divsi3+0x104>
 8000250:	0b03      	lsrs	r3, r0, #12
 8000252:	428b      	cmp	r3, r1
 8000254:	d319      	bcc.n	800028a <__divsi3+0x72>
 8000256:	e000      	b.n	800025a <__divsi3+0x42>
 8000258:	0a09      	lsrs	r1, r1, #8
 800025a:	0bc3      	lsrs	r3, r0, #15
 800025c:	428b      	cmp	r3, r1
 800025e:	d301      	bcc.n	8000264 <__divsi3+0x4c>
 8000260:	03cb      	lsls	r3, r1, #15
 8000262:	1ac0      	subs	r0, r0, r3
 8000264:	4152      	adcs	r2, r2
 8000266:	0b83      	lsrs	r3, r0, #14
 8000268:	428b      	cmp	r3, r1
 800026a:	d301      	bcc.n	8000270 <__divsi3+0x58>
 800026c:	038b      	lsls	r3, r1, #14
 800026e:	1ac0      	subs	r0, r0, r3
 8000270:	4152      	adcs	r2, r2
 8000272:	0b43      	lsrs	r3, r0, #13
 8000274:	428b      	cmp	r3, r1
 8000276:	d301      	bcc.n	800027c <__divsi3+0x64>
 8000278:	034b      	lsls	r3, r1, #13
 800027a:	1ac0      	subs	r0, r0, r3
 800027c:	4152      	adcs	r2, r2
 800027e:	0b03      	lsrs	r3, r0, #12
 8000280:	428b      	cmp	r3, r1
 8000282:	d301      	bcc.n	8000288 <__divsi3+0x70>
 8000284:	030b      	lsls	r3, r1, #12
 8000286:	1ac0      	subs	r0, r0, r3
 8000288:	4152      	adcs	r2, r2
 800028a:	0ac3      	lsrs	r3, r0, #11
 800028c:	428b      	cmp	r3, r1
 800028e:	d301      	bcc.n	8000294 <__divsi3+0x7c>
 8000290:	02cb      	lsls	r3, r1, #11
 8000292:	1ac0      	subs	r0, r0, r3
 8000294:	4152      	adcs	r2, r2
 8000296:	0a83      	lsrs	r3, r0, #10
 8000298:	428b      	cmp	r3, r1
 800029a:	d301      	bcc.n	80002a0 <__divsi3+0x88>
 800029c:	028b      	lsls	r3, r1, #10
 800029e:	1ac0      	subs	r0, r0, r3
 80002a0:	4152      	adcs	r2, r2
 80002a2:	0a43      	lsrs	r3, r0, #9
 80002a4:	428b      	cmp	r3, r1
 80002a6:	d301      	bcc.n	80002ac <__divsi3+0x94>
 80002a8:	024b      	lsls	r3, r1, #9
 80002aa:	1ac0      	subs	r0, r0, r3
 80002ac:	4152      	adcs	r2, r2
 80002ae:	0a03      	lsrs	r3, r0, #8
 80002b0:	428b      	cmp	r3, r1
 80002b2:	d301      	bcc.n	80002b8 <__divsi3+0xa0>
 80002b4:	020b      	lsls	r3, r1, #8
 80002b6:	1ac0      	subs	r0, r0, r3
 80002b8:	4152      	adcs	r2, r2
 80002ba:	d2cd      	bcs.n	8000258 <__divsi3+0x40>
 80002bc:	09c3      	lsrs	r3, r0, #7
 80002be:	428b      	cmp	r3, r1
 80002c0:	d301      	bcc.n	80002c6 <__divsi3+0xae>
 80002c2:	01cb      	lsls	r3, r1, #7
 80002c4:	1ac0      	subs	r0, r0, r3
 80002c6:	4152      	adcs	r2, r2
 80002c8:	0983      	lsrs	r3, r0, #6
 80002ca:	428b      	cmp	r3, r1
 80002cc:	d301      	bcc.n	80002d2 <__divsi3+0xba>
 80002ce:	018b      	lsls	r3, r1, #6
 80002d0:	1ac0      	subs	r0, r0, r3
 80002d2:	4152      	adcs	r2, r2
 80002d4:	0943      	lsrs	r3, r0, #5
 80002d6:	428b      	cmp	r3, r1
 80002d8:	d301      	bcc.n	80002de <__divsi3+0xc6>
 80002da:	014b      	lsls	r3, r1, #5
 80002dc:	1ac0      	subs	r0, r0, r3
 80002de:	4152      	adcs	r2, r2
 80002e0:	0903      	lsrs	r3, r0, #4
 80002e2:	428b      	cmp	r3, r1
 80002e4:	d301      	bcc.n	80002ea <__divsi3+0xd2>
 80002e6:	010b      	lsls	r3, r1, #4
 80002e8:	1ac0      	subs	r0, r0, r3
 80002ea:	4152      	adcs	r2, r2
 80002ec:	08c3      	lsrs	r3, r0, #3
 80002ee:	428b      	cmp	r3, r1
 80002f0:	d301      	bcc.n	80002f6 <__divsi3+0xde>
 80002f2:	00cb      	lsls	r3, r1, #3
 80002f4:	1ac0      	subs	r0, r0, r3
 80002f6:	4152      	adcs	r2, r2
 80002f8:	0883      	lsrs	r3, r0, #2
 80002fa:	428b      	cmp	r3, r1
 80002fc:	d301      	bcc.n	8000302 <__divsi3+0xea>
 80002fe:	008b      	lsls	r3, r1, #2
 8000300:	1ac0      	subs	r0, r0, r3
 8000302:	4152      	adcs	r2, r2
 8000304:	0843      	lsrs	r3, r0, #1
 8000306:	428b      	cmp	r3, r1
 8000308:	d301      	bcc.n	800030e <__divsi3+0xf6>
 800030a:	004b      	lsls	r3, r1, #1
 800030c:	1ac0      	subs	r0, r0, r3
 800030e:	4152      	adcs	r2, r2
 8000310:	1a41      	subs	r1, r0, r1
 8000312:	d200      	bcs.n	8000316 <__divsi3+0xfe>
 8000314:	4601      	mov	r1, r0
 8000316:	4152      	adcs	r2, r2
 8000318:	4610      	mov	r0, r2
 800031a:	4770      	bx	lr
 800031c:	e05d      	b.n	80003da <__divsi3+0x1c2>
 800031e:	0fca      	lsrs	r2, r1, #31
 8000320:	d000      	beq.n	8000324 <__divsi3+0x10c>
 8000322:	4249      	negs	r1, r1
 8000324:	1003      	asrs	r3, r0, #32
 8000326:	d300      	bcc.n	800032a <__divsi3+0x112>
 8000328:	4240      	negs	r0, r0
 800032a:	4053      	eors	r3, r2
 800032c:	2200      	movs	r2, #0
 800032e:	469c      	mov	ip, r3
 8000330:	0903      	lsrs	r3, r0, #4
 8000332:	428b      	cmp	r3, r1
 8000334:	d32d      	bcc.n	8000392 <__divsi3+0x17a>
 8000336:	0a03      	lsrs	r3, r0, #8
 8000338:	428b      	cmp	r3, r1
 800033a:	d312      	bcc.n	8000362 <__divsi3+0x14a>
 800033c:	22fc      	movs	r2, #252	; 0xfc
 800033e:	0189      	lsls	r1, r1, #6
 8000340:	ba12      	rev	r2, r2
 8000342:	0a03      	lsrs	r3, r0, #8
 8000344:	428b      	cmp	r3, r1
 8000346:	d30c      	bcc.n	8000362 <__divsi3+0x14a>
 8000348:	0189      	lsls	r1, r1, #6
 800034a:	1192      	asrs	r2, r2, #6
 800034c:	428b      	cmp	r3, r1
 800034e:	d308      	bcc.n	8000362 <__divsi3+0x14a>
 8000350:	0189      	lsls	r1, r1, #6
 8000352:	1192      	asrs	r2, r2, #6
 8000354:	428b      	cmp	r3, r1
 8000356:	d304      	bcc.n	8000362 <__divsi3+0x14a>
 8000358:	0189      	lsls	r1, r1, #6
 800035a:	d03a      	beq.n	80003d2 <__divsi3+0x1ba>
 800035c:	1192      	asrs	r2, r2, #6
 800035e:	e000      	b.n	8000362 <__divsi3+0x14a>
 8000360:	0989      	lsrs	r1, r1, #6
 8000362:	09c3      	lsrs	r3, r0, #7
 8000364:	428b      	cmp	r3, r1
 8000366:	d301      	bcc.n	800036c <__divsi3+0x154>
 8000368:	01cb      	lsls	r3, r1, #7
 800036a:	1ac0      	subs	r0, r0, r3
 800036c:	4152      	adcs	r2, r2
 800036e:	0983      	lsrs	r3, r0, #6
 8000370:	428b      	cmp	r3, r1
 8000372:	d301      	bcc.n	8000378 <__divsi3+0x160>
 8000374:	018b      	lsls	r3, r1, #6
 8000376:	1ac0      	subs	r0, r0, r3
 8000378:	4152      	adcs	r2, r2
 800037a:	0943      	lsrs	r3, r0, #5
 800037c:	428b      	cmp	r3, r1
 800037e:	d301      	bcc.n	8000384 <__divsi3+0x16c>
 8000380:	014b      	lsls	r3, r1, #5
 8000382:	1ac0      	subs	r0, r0, r3
 8000384:	4152      	adcs	r2, r2
 8000386:	0903      	lsrs	r3, r0, #4
 8000388:	428b      	cmp	r3, r1
 800038a:	d301      	bcc.n	8000390 <__divsi3+0x178>
 800038c:	010b      	lsls	r3, r1, #4
 800038e:	1ac0      	subs	r0, r0, r3
 8000390:	4152      	adcs	r2, r2
 8000392:	08c3      	lsrs	r3, r0, #3
 8000394:	428b      	cmp	r3, r1
 8000396:	d301      	bcc.n	800039c <__divsi3+0x184>
 8000398:	00cb      	lsls	r3, r1, #3
 800039a:	1ac0      	subs	r0, r0, r3
 800039c:	4152      	adcs	r2, r2
 800039e:	0883      	lsrs	r3, r0, #2
 80003a0:	428b      	cmp	r3, r1
 80003a2:	d301      	bcc.n	80003a8 <__divsi3+0x190>
 80003a4:	008b      	lsls	r3, r1, #2
 80003a6:	1ac0      	subs	r0, r0, r3
 80003a8:	4152      	adcs	r2, r2
 80003aa:	d2d9      	bcs.n	8000360 <__divsi3+0x148>
 80003ac:	0843      	lsrs	r3, r0, #1
 80003ae:	428b      	cmp	r3, r1
 80003b0:	d301      	bcc.n	80003b6 <__divsi3+0x19e>
 80003b2:	004b      	lsls	r3, r1, #1
 80003b4:	1ac0      	subs	r0, r0, r3
 80003b6:	4152      	adcs	r2, r2
 80003b8:	1a41      	subs	r1, r0, r1
 80003ba:	d200      	bcs.n	80003be <__divsi3+0x1a6>
 80003bc:	4601      	mov	r1, r0
 80003be:	4663      	mov	r3, ip
 80003c0:	4152      	adcs	r2, r2
 80003c2:	105b      	asrs	r3, r3, #1
 80003c4:	4610      	mov	r0, r2
 80003c6:	d301      	bcc.n	80003cc <__divsi3+0x1b4>
 80003c8:	4240      	negs	r0, r0
 80003ca:	2b00      	cmp	r3, #0
 80003cc:	d500      	bpl.n	80003d0 <__divsi3+0x1b8>
 80003ce:	4249      	negs	r1, r1
 80003d0:	4770      	bx	lr
 80003d2:	4663      	mov	r3, ip
 80003d4:	105b      	asrs	r3, r3, #1
 80003d6:	d300      	bcc.n	80003da <__divsi3+0x1c2>
 80003d8:	4240      	negs	r0, r0
 80003da:	b501      	push	{r0, lr}
 80003dc:	2000      	movs	r0, #0
 80003de:	f000 f805 	bl	80003ec <__aeabi_idiv0>
 80003e2:	bd02      	pop	{r1, pc}

080003e4 <__aeabi_idivmod>:
 80003e4:	2900      	cmp	r1, #0
 80003e6:	d0f8      	beq.n	80003da <__divsi3+0x1c2>
 80003e8:	e716      	b.n	8000218 <__divsi3>
 80003ea:	4770      	bx	lr

080003ec <__aeabi_idiv0>:
 80003ec:	4770      	bx	lr
 80003ee:	46c0      	nop			; (mov r8, r8)

080003f0 <__aeabi_cfrcmple>:
 80003f0:	4684      	mov	ip, r0
 80003f2:	0008      	movs	r0, r1
 80003f4:	4661      	mov	r1, ip
 80003f6:	e7ff      	b.n	80003f8 <__aeabi_cfcmpeq>

080003f8 <__aeabi_cfcmpeq>:
 80003f8:	b51f      	push	{r0, r1, r2, r3, r4, lr}
 80003fa:	f000 fb71 	bl	8000ae0 <__lesf2>
 80003fe:	2800      	cmp	r0, #0
 8000400:	d401      	bmi.n	8000406 <__aeabi_cfcmpeq+0xe>
 8000402:	2100      	movs	r1, #0
 8000404:	42c8      	cmn	r0, r1
 8000406:	bd1f      	pop	{r0, r1, r2, r3, r4, pc}

08000408 <__aeabi_fcmpeq>:
 8000408:	b510      	push	{r4, lr}
 800040a:	f000 fafd 	bl	8000a08 <__eqsf2>
 800040e:	4240      	negs	r0, r0
 8000410:	3001      	adds	r0, #1
 8000412:	bd10      	pop	{r4, pc}

08000414 <__aeabi_fcmplt>:
 8000414:	b510      	push	{r4, lr}
 8000416:	f000 fb63 	bl	8000ae0 <__lesf2>
 800041a:	2800      	cmp	r0, #0
 800041c:	db01      	blt.n	8000422 <__aeabi_fcmplt+0xe>
 800041e:	2000      	movs	r0, #0
 8000420:	bd10      	pop	{r4, pc}
 8000422:	2001      	movs	r0, #1
 8000424:	bd10      	pop	{r4, pc}
 8000426:	46c0      	nop			; (mov r8, r8)

08000428 <__aeabi_fcmple>:
 8000428:	b510      	push	{r4, lr}
 800042a:	f000 fb59 	bl	8000ae0 <__lesf2>
 800042e:	2800      	cmp	r0, #0
 8000430:	dd01      	ble.n	8000436 <__aeabi_fcmple+0xe>
 8000432:	2000      	movs	r0, #0
 8000434:	bd10      	pop	{r4, pc}
 8000436:	2001      	movs	r0, #1
 8000438:	bd10      	pop	{r4, pc}
 800043a:	46c0      	nop			; (mov r8, r8)

0800043c <__aeabi_fcmpgt>:
 800043c:	b510      	push	{r4, lr}
 800043e:	f000 fb09 	bl	8000a54 <__gesf2>
 8000442:	2800      	cmp	r0, #0
 8000444:	dc01      	bgt.n	800044a <__aeabi_fcmpgt+0xe>
 8000446:	2000      	movs	r0, #0
 8000448:	bd10      	pop	{r4, pc}
 800044a:	2001      	movs	r0, #1
 800044c:	bd10      	pop	{r4, pc}
 800044e:	46c0      	nop			; (mov r8, r8)

08000450 <__aeabi_fcmpge>:
 8000450:	b510      	push	{r4, lr}
 8000452:	f000 faff 	bl	8000a54 <__gesf2>
 8000456:	2800      	cmp	r0, #0
 8000458:	da01      	bge.n	800045e <__aeabi_fcmpge+0xe>
 800045a:	2000      	movs	r0, #0
 800045c:	bd10      	pop	{r4, pc}
 800045e:	2001      	movs	r0, #1
 8000460:	bd10      	pop	{r4, pc}
 8000462:	46c0      	nop			; (mov r8, r8)

08000464 <__aeabi_f2uiz>:
 8000464:	219e      	movs	r1, #158	; 0x9e
 8000466:	b510      	push	{r4, lr}
 8000468:	05c9      	lsls	r1, r1, #23
 800046a:	1c04      	adds	r4, r0, #0
 800046c:	f7ff fff0 	bl	8000450 <__aeabi_fcmpge>
 8000470:	2800      	cmp	r0, #0
 8000472:	d103      	bne.n	800047c <__aeabi_f2uiz+0x18>
 8000474:	1c20      	adds	r0, r4, #0
 8000476:	f000 fe65 	bl	8001144 <__aeabi_f2iz>
 800047a:	bd10      	pop	{r4, pc}
 800047c:	219e      	movs	r1, #158	; 0x9e
 800047e:	1c20      	adds	r0, r4, #0
 8000480:	05c9      	lsls	r1, r1, #23
 8000482:	f000 fcbf 	bl	8000e04 <__aeabi_fsub>
 8000486:	f000 fe5d 	bl	8001144 <__aeabi_f2iz>
 800048a:	2380      	movs	r3, #128	; 0x80
 800048c:	061b      	lsls	r3, r3, #24
 800048e:	469c      	mov	ip, r3
 8000490:	4460      	add	r0, ip
 8000492:	e7f2      	b.n	800047a <__aeabi_f2uiz+0x16>

08000494 <__aeabi_fadd>:
 8000494:	b5f8      	push	{r3, r4, r5, r6, r7, lr}
 8000496:	4647      	mov	r7, r8
 8000498:	46ce      	mov	lr, r9
 800049a:	024a      	lsls	r2, r1, #9
 800049c:	0243      	lsls	r3, r0, #9
 800049e:	0045      	lsls	r5, r0, #1
 80004a0:	0fc4      	lsrs	r4, r0, #31
 80004a2:	0a50      	lsrs	r0, r2, #9
 80004a4:	4680      	mov	r8, r0
 80004a6:	0048      	lsls	r0, r1, #1
 80004a8:	0a5b      	lsrs	r3, r3, #9
 80004aa:	0e00      	lsrs	r0, r0, #24
 80004ac:	0992      	lsrs	r2, r2, #6
 80004ae:	4694      	mov	ip, r2
 80004b0:	b580      	push	{r7, lr}
 80004b2:	001e      	movs	r6, r3
 80004b4:	4681      	mov	r9, r0
 80004b6:	0002      	movs	r2, r0
 80004b8:	0e2d      	lsrs	r5, r5, #24
 80004ba:	00df      	lsls	r7, r3, #3
 80004bc:	0fc9      	lsrs	r1, r1, #31
 80004be:	428c      	cmp	r4, r1
 80004c0:	d024      	beq.n	800050c <__aeabi_fadd+0x78>
 80004c2:	1a28      	subs	r0, r5, r0
 80004c4:	2800      	cmp	r0, #0
 80004c6:	dd0e      	ble.n	80004e6 <__aeabi_fadd+0x52>
 80004c8:	2a00      	cmp	r2, #0
 80004ca:	d13e      	bne.n	800054a <__aeabi_fadd+0xb6>
 80004cc:	4662      	mov	r2, ip
 80004ce:	2a00      	cmp	r2, #0
 80004d0:	d100      	bne.n	80004d4 <__aeabi_fadd+0x40>
 80004d2:	e0fd      	b.n	80006d0 <__aeabi_fadd+0x23c>
 80004d4:	1e42      	subs	r2, r0, #1
 80004d6:	2801      	cmp	r0, #1
 80004d8:	d100      	bne.n	80004dc <__aeabi_fadd+0x48>
 80004da:	e137      	b.n	800074c <__aeabi_fadd+0x2b8>
 80004dc:	28ff      	cmp	r0, #255	; 0xff
 80004de:	d100      	bne.n	80004e2 <__aeabi_fadd+0x4e>
 80004e0:	e0a9      	b.n	8000636 <__aeabi_fadd+0x1a2>
 80004e2:	0010      	movs	r0, r2
 80004e4:	e039      	b.n	800055a <__aeabi_fadd+0xc6>
 80004e6:	2800      	cmp	r0, #0
 80004e8:	d063      	beq.n	80005b2 <__aeabi_fadd+0x11e>
 80004ea:	464b      	mov	r3, r9
 80004ec:	1b52      	subs	r2, r2, r5
 80004ee:	2d00      	cmp	r5, #0
 80004f0:	d000      	beq.n	80004f4 <__aeabi_fadd+0x60>
 80004f2:	e0e0      	b.n	80006b6 <__aeabi_fadd+0x222>
 80004f4:	2f00      	cmp	r7, #0
 80004f6:	d100      	bne.n	80004fa <__aeabi_fadd+0x66>
 80004f8:	e0ce      	b.n	8000698 <__aeabi_fadd+0x204>
 80004fa:	1e53      	subs	r3, r2, #1
 80004fc:	2a01      	cmp	r2, #1
 80004fe:	d100      	bne.n	8000502 <__aeabi_fadd+0x6e>
 8000500:	e155      	b.n	80007ae <__aeabi_fadd+0x31a>
 8000502:	2aff      	cmp	r2, #255	; 0xff
 8000504:	d100      	bne.n	8000508 <__aeabi_fadd+0x74>
 8000506:	e094      	b.n	8000632 <__aeabi_fadd+0x19e>
 8000508:	001a      	movs	r2, r3
 800050a:	e0d9      	b.n	80006c0 <__aeabi_fadd+0x22c>
 800050c:	1a2a      	subs	r2, r5, r0
 800050e:	2a00      	cmp	r2, #0
 8000510:	dc00      	bgt.n	8000514 <__aeabi_fadd+0x80>
 8000512:	e099      	b.n	8000648 <__aeabi_fadd+0x1b4>
 8000514:	2800      	cmp	r0, #0
 8000516:	d062      	beq.n	80005de <__aeabi_fadd+0x14a>
 8000518:	2dff      	cmp	r5, #255	; 0xff
 800051a:	d100      	bne.n	800051e <__aeabi_fadd+0x8a>
 800051c:	e08b      	b.n	8000636 <__aeabi_fadd+0x1a2>
 800051e:	2380      	movs	r3, #128	; 0x80
 8000520:	4661      	mov	r1, ip
 8000522:	04db      	lsls	r3, r3, #19
 8000524:	4319      	orrs	r1, r3
 8000526:	468c      	mov	ip, r1
 8000528:	2a1b      	cmp	r2, #27
 800052a:	dc00      	bgt.n	800052e <__aeabi_fadd+0x9a>
 800052c:	e0d2      	b.n	80006d4 <__aeabi_fadd+0x240>
 800052e:	2301      	movs	r3, #1
 8000530:	19db      	adds	r3, r3, r7
 8000532:	015a      	lsls	r2, r3, #5
 8000534:	d56a      	bpl.n	800060c <__aeabi_fadd+0x178>
 8000536:	3501      	adds	r5, #1
 8000538:	2dff      	cmp	r5, #255	; 0xff
 800053a:	d05b      	beq.n	80005f4 <__aeabi_fadd+0x160>
 800053c:	2201      	movs	r2, #1
 800053e:	49a3      	ldr	r1, [pc, #652]	; (80007cc <__aeabi_fadd+0x338>)
 8000540:	401a      	ands	r2, r3
 8000542:	085b      	lsrs	r3, r3, #1
 8000544:	400b      	ands	r3, r1
 8000546:	4313      	orrs	r3, r2
 8000548:	e01c      	b.n	8000584 <__aeabi_fadd+0xf0>
 800054a:	2dff      	cmp	r5, #255	; 0xff
 800054c:	d100      	bne.n	8000550 <__aeabi_fadd+0xbc>
 800054e:	e072      	b.n	8000636 <__aeabi_fadd+0x1a2>
 8000550:	2380      	movs	r3, #128	; 0x80
 8000552:	4662      	mov	r2, ip
 8000554:	04db      	lsls	r3, r3, #19
 8000556:	431a      	orrs	r2, r3
 8000558:	4694      	mov	ip, r2
 800055a:	281b      	cmp	r0, #27
 800055c:	dc00      	bgt.n	8000560 <__aeabi_fadd+0xcc>
 800055e:	e090      	b.n	8000682 <__aeabi_fadd+0x1ee>
 8000560:	2301      	movs	r3, #1
 8000562:	1afb      	subs	r3, r7, r3
 8000564:	015a      	lsls	r2, r3, #5
 8000566:	d551      	bpl.n	800060c <__aeabi_fadd+0x178>
 8000568:	019b      	lsls	r3, r3, #6
 800056a:	099e      	lsrs	r6, r3, #6
 800056c:	0030      	movs	r0, r6
 800056e:	f002 f8a1 	bl	80026b4 <__clzsi2>
 8000572:	0033      	movs	r3, r6
 8000574:	3805      	subs	r0, #5
 8000576:	4083      	lsls	r3, r0
 8000578:	4285      	cmp	r5, r0
 800057a:	dc00      	bgt.n	800057e <__aeabi_fadd+0xea>
 800057c:	e075      	b.n	800066a <__aeabi_fadd+0x1d6>
 800057e:	4a94      	ldr	r2, [pc, #592]	; (80007d0 <__aeabi_fadd+0x33c>)
 8000580:	1a2d      	subs	r5, r5, r0
 8000582:	4013      	ands	r3, r2
 8000584:	075a      	lsls	r2, r3, #29
 8000586:	d004      	beq.n	8000592 <__aeabi_fadd+0xfe>
 8000588:	220f      	movs	r2, #15
 800058a:	401a      	ands	r2, r3
 800058c:	2a04      	cmp	r2, #4
 800058e:	d000      	beq.n	8000592 <__aeabi_fadd+0xfe>
 8000590:	3304      	adds	r3, #4
 8000592:	015a      	lsls	r2, r3, #5
 8000594:	d53c      	bpl.n	8000610 <__aeabi_fadd+0x17c>
 8000596:	1c68      	adds	r0, r5, #1
 8000598:	2dfe      	cmp	r5, #254	; 0xfe
 800059a:	d02b      	beq.n	80005f4 <__aeabi_fadd+0x160>
 800059c:	019b      	lsls	r3, r3, #6
 800059e:	0a5e      	lsrs	r6, r3, #9
 80005a0:	b2c0      	uxtb	r0, r0
 80005a2:	05c0      	lsls	r0, r0, #23
 80005a4:	4330      	orrs	r0, r6
 80005a6:	07e4      	lsls	r4, r4, #31
 80005a8:	4320      	orrs	r0, r4
 80005aa:	bcc0      	pop	{r6, r7}
 80005ac:	46b9      	mov	r9, r7
 80005ae:	46b0      	mov	r8, r6
 80005b0:	bdf8      	pop	{r3, r4, r5, r6, r7, pc}
 80005b2:	20fe      	movs	r0, #254	; 0xfe
 80005b4:	1c6a      	adds	r2, r5, #1
 80005b6:	4210      	tst	r0, r2
 80005b8:	d172      	bne.n	80006a0 <__aeabi_fadd+0x20c>
 80005ba:	2d00      	cmp	r5, #0
 80005bc:	d000      	beq.n	80005c0 <__aeabi_fadd+0x12c>
 80005be:	e0ae      	b.n	800071e <__aeabi_fadd+0x28a>
 80005c0:	2f00      	cmp	r7, #0
 80005c2:	d100      	bne.n	80005c6 <__aeabi_fadd+0x132>
 80005c4:	e0ec      	b.n	80007a0 <__aeabi_fadd+0x30c>
 80005c6:	4663      	mov	r3, ip
 80005c8:	2000      	movs	r0, #0
 80005ca:	2b00      	cmp	r3, #0
 80005cc:	d0e9      	beq.n	80005a2 <__aeabi_fadd+0x10e>
 80005ce:	1afb      	subs	r3, r7, r3
 80005d0:	015a      	lsls	r2, r3, #5
 80005d2:	d400      	bmi.n	80005d6 <__aeabi_fadd+0x142>
 80005d4:	e0f3      	b.n	80007be <__aeabi_fadd+0x32a>
 80005d6:	4663      	mov	r3, ip
 80005d8:	000c      	movs	r4, r1
 80005da:	1bdb      	subs	r3, r3, r7
 80005dc:	e7d2      	b.n	8000584 <__aeabi_fadd+0xf0>
 80005de:	4661      	mov	r1, ip
 80005e0:	2900      	cmp	r1, #0
 80005e2:	d05b      	beq.n	800069c <__aeabi_fadd+0x208>
 80005e4:	1e51      	subs	r1, r2, #1
 80005e6:	2a01      	cmp	r2, #1
 80005e8:	d100      	bne.n	80005ec <__aeabi_fadd+0x158>
 80005ea:	e0a7      	b.n	800073c <__aeabi_fadd+0x2a8>
 80005ec:	2aff      	cmp	r2, #255	; 0xff
 80005ee:	d022      	beq.n	8000636 <__aeabi_fadd+0x1a2>
 80005f0:	000a      	movs	r2, r1
 80005f2:	e799      	b.n	8000528 <__aeabi_fadd+0x94>
 80005f4:	20ff      	movs	r0, #255	; 0xff
 80005f6:	2600      	movs	r6, #0
 80005f8:	e7d3      	b.n	80005a2 <__aeabi_fadd+0x10e>
 80005fa:	21fe      	movs	r1, #254	; 0xfe
 80005fc:	1c6a      	adds	r2, r5, #1
 80005fe:	4211      	tst	r1, r2
 8000600:	d073      	beq.n	80006ea <__aeabi_fadd+0x256>
 8000602:	2aff      	cmp	r2, #255	; 0xff
 8000604:	d0f6      	beq.n	80005f4 <__aeabi_fadd+0x160>
 8000606:	0015      	movs	r5, r2
 8000608:	4467      	add	r7, ip
 800060a:	087b      	lsrs	r3, r7, #1
 800060c:	075a      	lsls	r2, r3, #29
 800060e:	d1bb      	bne.n	8000588 <__aeabi_fadd+0xf4>
 8000610:	08db      	lsrs	r3, r3, #3
 8000612:	2dff      	cmp	r5, #255	; 0xff
 8000614:	d00f      	beq.n	8000636 <__aeabi_fadd+0x1a2>
 8000616:	025b      	lsls	r3, r3, #9
 8000618:	0a5e      	lsrs	r6, r3, #9
 800061a:	b2e8      	uxtb	r0, r5
 800061c:	e7c1      	b.n	80005a2 <__aeabi_fadd+0x10e>
 800061e:	4662      	mov	r2, ip
 8000620:	2a00      	cmp	r2, #0
 8000622:	d008      	beq.n	8000636 <__aeabi_fadd+0x1a2>
 8000624:	2280      	movs	r2, #128	; 0x80
 8000626:	03d2      	lsls	r2, r2, #15
 8000628:	4213      	tst	r3, r2
 800062a:	d004      	beq.n	8000636 <__aeabi_fadd+0x1a2>
 800062c:	4640      	mov	r0, r8
 800062e:	4210      	tst	r0, r2
 8000630:	d101      	bne.n	8000636 <__aeabi_fadd+0x1a2>
 8000632:	000c      	movs	r4, r1
 8000634:	4643      	mov	r3, r8
 8000636:	2b00      	cmp	r3, #0
 8000638:	d0dc      	beq.n	80005f4 <__aeabi_fadd+0x160>
 800063a:	2680      	movs	r6, #128	; 0x80
 800063c:	03f6      	lsls	r6, r6, #15
 800063e:	431e      	orrs	r6, r3
 8000640:	0276      	lsls	r6, r6, #9
 8000642:	20ff      	movs	r0, #255	; 0xff
 8000644:	0a76      	lsrs	r6, r6, #9
 8000646:	e7ac      	b.n	80005a2 <__aeabi_fadd+0x10e>
 8000648:	2a00      	cmp	r2, #0
 800064a:	d0d6      	beq.n	80005fa <__aeabi_fadd+0x166>
 800064c:	1b42      	subs	r2, r0, r5
 800064e:	2d00      	cmp	r5, #0
 8000650:	d05c      	beq.n	800070c <__aeabi_fadd+0x278>
 8000652:	28ff      	cmp	r0, #255	; 0xff
 8000654:	d0ee      	beq.n	8000634 <__aeabi_fadd+0x1a0>
 8000656:	2380      	movs	r3, #128	; 0x80
 8000658:	04db      	lsls	r3, r3, #19
 800065a:	431f      	orrs	r7, r3
 800065c:	2a1b      	cmp	r2, #27
 800065e:	dc00      	bgt.n	8000662 <__aeabi_fadd+0x1ce>
 8000660:	e082      	b.n	8000768 <__aeabi_fadd+0x2d4>
 8000662:	2301      	movs	r3, #1
 8000664:	464d      	mov	r5, r9
 8000666:	4463      	add	r3, ip
 8000668:	e763      	b.n	8000532 <__aeabi_fadd+0x9e>
 800066a:	2220      	movs	r2, #32
 800066c:	1b40      	subs	r0, r0, r5
 800066e:	3001      	adds	r0, #1
 8000670:	1a12      	subs	r2, r2, r0
 8000672:	0019      	movs	r1, r3
 8000674:	4093      	lsls	r3, r2
 8000676:	40c1      	lsrs	r1, r0
 8000678:	1e5a      	subs	r2, r3, #1
 800067a:	4193      	sbcs	r3, r2
 800067c:	2500      	movs	r5, #0
 800067e:	430b      	orrs	r3, r1
 8000680:	e780      	b.n	8000584 <__aeabi_fadd+0xf0>
 8000682:	2320      	movs	r3, #32
 8000684:	4661      	mov	r1, ip
 8000686:	1a1b      	subs	r3, r3, r0
 8000688:	4099      	lsls	r1, r3
 800068a:	4662      	mov	r2, ip
 800068c:	000b      	movs	r3, r1
 800068e:	40c2      	lsrs	r2, r0
 8000690:	1e59      	subs	r1, r3, #1
 8000692:	418b      	sbcs	r3, r1
 8000694:	4313      	orrs	r3, r2
 8000696:	e764      	b.n	8000562 <__aeabi_fadd+0xce>
 8000698:	000c      	movs	r4, r1
 800069a:	4643      	mov	r3, r8
 800069c:	0015      	movs	r5, r2
 800069e:	e7b8      	b.n	8000612 <__aeabi_fadd+0x17e>
 80006a0:	4663      	mov	r3, ip
 80006a2:	1afe      	subs	r6, r7, r3
 80006a4:	0173      	lsls	r3, r6, #5
 80006a6:	d445      	bmi.n	8000734 <__aeabi_fadd+0x2a0>
 80006a8:	2e00      	cmp	r6, #0
 80006aa:	d000      	beq.n	80006ae <__aeabi_fadd+0x21a>
 80006ac:	e75e      	b.n	800056c <__aeabi_fadd+0xd8>
 80006ae:	2400      	movs	r4, #0
 80006b0:	2000      	movs	r0, #0
 80006b2:	2600      	movs	r6, #0
 80006b4:	e775      	b.n	80005a2 <__aeabi_fadd+0x10e>
 80006b6:	2bff      	cmp	r3, #255	; 0xff
 80006b8:	d0bb      	beq.n	8000632 <__aeabi_fadd+0x19e>
 80006ba:	2380      	movs	r3, #128	; 0x80
 80006bc:	04db      	lsls	r3, r3, #19
 80006be:	431f      	orrs	r7, r3
 80006c0:	2a1b      	cmp	r2, #27
 80006c2:	dd47      	ble.n	8000754 <__aeabi_fadd+0x2c0>
 80006c4:	2301      	movs	r3, #1
 80006c6:	4662      	mov	r2, ip
 80006c8:	000c      	movs	r4, r1
 80006ca:	464d      	mov	r5, r9
 80006cc:	1ad3      	subs	r3, r2, r3
 80006ce:	e749      	b.n	8000564 <__aeabi_fadd+0xd0>
 80006d0:	0005      	movs	r5, r0
 80006d2:	e79e      	b.n	8000612 <__aeabi_fadd+0x17e>
 80006d4:	4661      	mov	r1, ip
 80006d6:	2320      	movs	r3, #32
 80006d8:	40d1      	lsrs	r1, r2
 80006da:	1a9b      	subs	r3, r3, r2
 80006dc:	4662      	mov	r2, ip
 80006de:	409a      	lsls	r2, r3
 80006e0:	0013      	movs	r3, r2
 80006e2:	1e5a      	subs	r2, r3, #1
 80006e4:	4193      	sbcs	r3, r2
 80006e6:	430b      	orrs	r3, r1
 80006e8:	e722      	b.n	8000530 <__aeabi_fadd+0x9c>
 80006ea:	2d00      	cmp	r5, #0
 80006ec:	d146      	bne.n	800077c <__aeabi_fadd+0x2e8>
 80006ee:	2f00      	cmp	r7, #0
 80006f0:	d062      	beq.n	80007b8 <__aeabi_fadd+0x324>
 80006f2:	4663      	mov	r3, ip
 80006f4:	2000      	movs	r0, #0
 80006f6:	2b00      	cmp	r3, #0
 80006f8:	d100      	bne.n	80006fc <__aeabi_fadd+0x268>
 80006fa:	e752      	b.n	80005a2 <__aeabi_fadd+0x10e>
 80006fc:	003b      	movs	r3, r7
 80006fe:	4463      	add	r3, ip
 8000700:	015a      	lsls	r2, r3, #5
 8000702:	d583      	bpl.n	800060c <__aeabi_fadd+0x178>
 8000704:	4a32      	ldr	r2, [pc, #200]	; (80007d0 <__aeabi_fadd+0x33c>)
 8000706:	3501      	adds	r5, #1
 8000708:	4013      	ands	r3, r2
 800070a:	e77f      	b.n	800060c <__aeabi_fadd+0x178>
 800070c:	2f00      	cmp	r7, #0
 800070e:	d0c4      	beq.n	800069a <__aeabi_fadd+0x206>
 8000710:	1e53      	subs	r3, r2, #1
 8000712:	2a01      	cmp	r2, #1
 8000714:	d012      	beq.n	800073c <__aeabi_fadd+0x2a8>
 8000716:	2aff      	cmp	r2, #255	; 0xff
 8000718:	d08c      	beq.n	8000634 <__aeabi_fadd+0x1a0>
 800071a:	001a      	movs	r2, r3
 800071c:	e79e      	b.n	800065c <__aeabi_fadd+0x1c8>
 800071e:	2f00      	cmp	r7, #0
 8000720:	d000      	beq.n	8000724 <__aeabi_fadd+0x290>
 8000722:	e77c      	b.n	800061e <__aeabi_fadd+0x18a>
 8000724:	4663      	mov	r3, ip
 8000726:	2b00      	cmp	r3, #0
 8000728:	d183      	bne.n	8000632 <__aeabi_fadd+0x19e>
 800072a:	2680      	movs	r6, #128	; 0x80
 800072c:	2400      	movs	r4, #0
 800072e:	20ff      	movs	r0, #255	; 0xff
 8000730:	03f6      	lsls	r6, r6, #15
 8000732:	e736      	b.n	80005a2 <__aeabi_fadd+0x10e>
 8000734:	4663      	mov	r3, ip
 8000736:	000c      	movs	r4, r1
 8000738:	1bde      	subs	r6, r3, r7
 800073a:	e717      	b.n	800056c <__aeabi_fadd+0xd8>
 800073c:	003b      	movs	r3, r7
 800073e:	4463      	add	r3, ip
 8000740:	2501      	movs	r5, #1
 8000742:	015a      	lsls	r2, r3, #5
 8000744:	d400      	bmi.n	8000748 <__aeabi_fadd+0x2b4>
 8000746:	e761      	b.n	800060c <__aeabi_fadd+0x178>
 8000748:	2502      	movs	r5, #2
 800074a:	e6f7      	b.n	800053c <__aeabi_fadd+0xa8>
 800074c:	4663      	mov	r3, ip
 800074e:	2501      	movs	r5, #1
 8000750:	1afb      	subs	r3, r7, r3
 8000752:	e707      	b.n	8000564 <__aeabi_fadd+0xd0>
 8000754:	2320      	movs	r3, #32
 8000756:	1a9b      	subs	r3, r3, r2
 8000758:	0038      	movs	r0, r7
 800075a:	409f      	lsls	r7, r3
 800075c:	003b      	movs	r3, r7
 800075e:	40d0      	lsrs	r0, r2
 8000760:	1e5a      	subs	r2, r3, #1
 8000762:	4193      	sbcs	r3, r2
 8000764:	4303      	orrs	r3, r0
 8000766:	e7ae      	b.n	80006c6 <__aeabi_fadd+0x232>
 8000768:	2320      	movs	r3, #32
 800076a:	1a9b      	subs	r3, r3, r2
 800076c:	0039      	movs	r1, r7
 800076e:	409f      	lsls	r7, r3
 8000770:	003b      	movs	r3, r7
 8000772:	40d1      	lsrs	r1, r2
 8000774:	1e5a      	subs	r2, r3, #1
 8000776:	4193      	sbcs	r3, r2
 8000778:	430b      	orrs	r3, r1
 800077a:	e773      	b.n	8000664 <__aeabi_fadd+0x1d0>
 800077c:	2f00      	cmp	r7, #0
 800077e:	d100      	bne.n	8000782 <__aeabi_fadd+0x2ee>
 8000780:	e758      	b.n	8000634 <__aeabi_fadd+0x1a0>
 8000782:	4662      	mov	r2, ip
 8000784:	2a00      	cmp	r2, #0
 8000786:	d100      	bne.n	800078a <__aeabi_fadd+0x2f6>
 8000788:	e755      	b.n	8000636 <__aeabi_fadd+0x1a2>
 800078a:	2280      	movs	r2, #128	; 0x80
 800078c:	03d2      	lsls	r2, r2, #15
 800078e:	4213      	tst	r3, r2
 8000790:	d100      	bne.n	8000794 <__aeabi_fadd+0x300>
 8000792:	e750      	b.n	8000636 <__aeabi_fadd+0x1a2>
 8000794:	4641      	mov	r1, r8
 8000796:	4211      	tst	r1, r2
 8000798:	d000      	beq.n	800079c <__aeabi_fadd+0x308>
 800079a:	e74c      	b.n	8000636 <__aeabi_fadd+0x1a2>
 800079c:	4643      	mov	r3, r8
 800079e:	e74a      	b.n	8000636 <__aeabi_fadd+0x1a2>
 80007a0:	4663      	mov	r3, ip
 80007a2:	2b00      	cmp	r3, #0
 80007a4:	d083      	beq.n	80006ae <__aeabi_fadd+0x21a>
 80007a6:	000c      	movs	r4, r1
 80007a8:	4646      	mov	r6, r8
 80007aa:	2000      	movs	r0, #0
 80007ac:	e6f9      	b.n	80005a2 <__aeabi_fadd+0x10e>
 80007ae:	4663      	mov	r3, ip
 80007b0:	000c      	movs	r4, r1
 80007b2:	1bdb      	subs	r3, r3, r7
 80007b4:	3501      	adds	r5, #1
 80007b6:	e6d5      	b.n	8000564 <__aeabi_fadd+0xd0>
 80007b8:	4646      	mov	r6, r8
 80007ba:	2000      	movs	r0, #0
 80007bc:	e6f1      	b.n	80005a2 <__aeabi_fadd+0x10e>
 80007be:	2b00      	cmp	r3, #0
 80007c0:	d000      	beq.n	80007c4 <__aeabi_fadd+0x330>
 80007c2:	e723      	b.n	800060c <__aeabi_fadd+0x178>
 80007c4:	2400      	movs	r4, #0
 80007c6:	2600      	movs	r6, #0
 80007c8:	e6eb      	b.n	80005a2 <__aeabi_fadd+0x10e>
 80007ca:	46c0      	nop			; (mov r8, r8)
 80007cc:	7dffffff 	.word	0x7dffffff
 80007d0:	fbffffff 	.word	0xfbffffff

080007d4 <__aeabi_fdiv>:
 80007d4:	b5f0      	push	{r4, r5, r6, r7, lr}
 80007d6:	464f      	mov	r7, r9
 80007d8:	4646      	mov	r6, r8
 80007da:	46d6      	mov	lr, sl
 80007dc:	0245      	lsls	r5, r0, #9
 80007de:	b5c0      	push	{r6, r7, lr}
 80007e0:	0047      	lsls	r7, r0, #1
 80007e2:	1c0c      	adds	r4, r1, #0
 80007e4:	0a6d      	lsrs	r5, r5, #9
 80007e6:	0e3f      	lsrs	r7, r7, #24
 80007e8:	0fc6      	lsrs	r6, r0, #31
 80007ea:	2f00      	cmp	r7, #0
 80007ec:	d100      	bne.n	80007f0 <__aeabi_fdiv+0x1c>
 80007ee:	e06f      	b.n	80008d0 <__aeabi_fdiv+0xfc>
 80007f0:	2fff      	cmp	r7, #255	; 0xff
 80007f2:	d100      	bne.n	80007f6 <__aeabi_fdiv+0x22>
 80007f4:	e074      	b.n	80008e0 <__aeabi_fdiv+0x10c>
 80007f6:	2300      	movs	r3, #0
 80007f8:	2280      	movs	r2, #128	; 0x80
 80007fa:	4699      	mov	r9, r3
 80007fc:	469a      	mov	sl, r3
 80007fe:	00ed      	lsls	r5, r5, #3
 8000800:	04d2      	lsls	r2, r2, #19
 8000802:	4315      	orrs	r5, r2
 8000804:	3f7f      	subs	r7, #127	; 0x7f
 8000806:	0263      	lsls	r3, r4, #9
 8000808:	0a5b      	lsrs	r3, r3, #9
 800080a:	4698      	mov	r8, r3
 800080c:	0063      	lsls	r3, r4, #1
 800080e:	0e1b      	lsrs	r3, r3, #24
 8000810:	0fe4      	lsrs	r4, r4, #31
 8000812:	2b00      	cmp	r3, #0
 8000814:	d04d      	beq.n	80008b2 <__aeabi_fdiv+0xde>
 8000816:	2bff      	cmp	r3, #255	; 0xff
 8000818:	d045      	beq.n	80008a6 <__aeabi_fdiv+0xd2>
 800081a:	4642      	mov	r2, r8
 800081c:	2180      	movs	r1, #128	; 0x80
 800081e:	00d2      	lsls	r2, r2, #3
 8000820:	04c9      	lsls	r1, r1, #19
 8000822:	4311      	orrs	r1, r2
 8000824:	4688      	mov	r8, r1
 8000826:	2200      	movs	r2, #0
 8000828:	3b7f      	subs	r3, #127	; 0x7f
 800082a:	0031      	movs	r1, r6
 800082c:	1aff      	subs	r7, r7, r3
 800082e:	464b      	mov	r3, r9
 8000830:	4061      	eors	r1, r4
 8000832:	b2c9      	uxtb	r1, r1
 8000834:	2b0f      	cmp	r3, #15
 8000836:	d900      	bls.n	800083a <__aeabi_fdiv+0x66>
 8000838:	e0b8      	b.n	80009ac <__aeabi_fdiv+0x1d8>
 800083a:	4870      	ldr	r0, [pc, #448]	; (80009fc <__aeabi_fdiv+0x228>)
 800083c:	009b      	lsls	r3, r3, #2
 800083e:	58c3      	ldr	r3, [r0, r3]
 8000840:	469f      	mov	pc, r3
 8000842:	2300      	movs	r3, #0
 8000844:	4698      	mov	r8, r3
 8000846:	0026      	movs	r6, r4
 8000848:	4645      	mov	r5, r8
 800084a:	4692      	mov	sl, r2
 800084c:	4653      	mov	r3, sl
 800084e:	2b02      	cmp	r3, #2
 8000850:	d100      	bne.n	8000854 <__aeabi_fdiv+0x80>
 8000852:	e08d      	b.n	8000970 <__aeabi_fdiv+0x19c>
 8000854:	2b03      	cmp	r3, #3
 8000856:	d100      	bne.n	800085a <__aeabi_fdiv+0x86>
 8000858:	e0a1      	b.n	800099e <__aeabi_fdiv+0x1ca>
 800085a:	2b01      	cmp	r3, #1
 800085c:	d018      	beq.n	8000890 <__aeabi_fdiv+0xbc>
 800085e:	003b      	movs	r3, r7
 8000860:	337f      	adds	r3, #127	; 0x7f
 8000862:	2b00      	cmp	r3, #0
 8000864:	dd6d      	ble.n	8000942 <__aeabi_fdiv+0x16e>
 8000866:	076a      	lsls	r2, r5, #29
 8000868:	d004      	beq.n	8000874 <__aeabi_fdiv+0xa0>
 800086a:	220f      	movs	r2, #15
 800086c:	402a      	ands	r2, r5
 800086e:	2a04      	cmp	r2, #4
 8000870:	d000      	beq.n	8000874 <__aeabi_fdiv+0xa0>
 8000872:	3504      	adds	r5, #4
 8000874:	012a      	lsls	r2, r5, #4
 8000876:	d503      	bpl.n	8000880 <__aeabi_fdiv+0xac>
 8000878:	4b61      	ldr	r3, [pc, #388]	; (8000a00 <__aeabi_fdiv+0x22c>)
 800087a:	401d      	ands	r5, r3
 800087c:	003b      	movs	r3, r7
 800087e:	3380      	adds	r3, #128	; 0x80
 8000880:	2bfe      	cmp	r3, #254	; 0xfe
 8000882:	dd00      	ble.n	8000886 <__aeabi_fdiv+0xb2>
 8000884:	e074      	b.n	8000970 <__aeabi_fdiv+0x19c>
 8000886:	01aa      	lsls	r2, r5, #6
 8000888:	0a52      	lsrs	r2, r2, #9
 800088a:	b2d8      	uxtb	r0, r3
 800088c:	e002      	b.n	8000894 <__aeabi_fdiv+0xc0>
 800088e:	000e      	movs	r6, r1
 8000890:	2000      	movs	r0, #0
 8000892:	2200      	movs	r2, #0
 8000894:	05c0      	lsls	r0, r0, #23
 8000896:	07f6      	lsls	r6, r6, #31
 8000898:	4310      	orrs	r0, r2
 800089a:	4330      	orrs	r0, r6
 800089c:	bce0      	pop	{r5, r6, r7}
 800089e:	46ba      	mov	sl, r7
 80008a0:	46b1      	mov	r9, r6
 80008a2:	46a8      	mov	r8, r5
 80008a4:	bdf0      	pop	{r4, r5, r6, r7, pc}
 80008a6:	4643      	mov	r3, r8
 80008a8:	2b00      	cmp	r3, #0
 80008aa:	d13f      	bne.n	800092c <__aeabi_fdiv+0x158>
 80008ac:	2202      	movs	r2, #2
 80008ae:	3fff      	subs	r7, #255	; 0xff
 80008b0:	e003      	b.n	80008ba <__aeabi_fdiv+0xe6>
 80008b2:	4643      	mov	r3, r8
 80008b4:	2b00      	cmp	r3, #0
 80008b6:	d12d      	bne.n	8000914 <__aeabi_fdiv+0x140>
 80008b8:	2201      	movs	r2, #1
 80008ba:	0031      	movs	r1, r6
 80008bc:	464b      	mov	r3, r9
 80008be:	4061      	eors	r1, r4
 80008c0:	b2c9      	uxtb	r1, r1
 80008c2:	4313      	orrs	r3, r2
 80008c4:	2b0f      	cmp	r3, #15
 80008c6:	d838      	bhi.n	800093a <__aeabi_fdiv+0x166>
 80008c8:	484e      	ldr	r0, [pc, #312]	; (8000a04 <__aeabi_fdiv+0x230>)
 80008ca:	009b      	lsls	r3, r3, #2
 80008cc:	58c3      	ldr	r3, [r0, r3]
 80008ce:	469f      	mov	pc, r3
 80008d0:	2d00      	cmp	r5, #0
 80008d2:	d113      	bne.n	80008fc <__aeabi_fdiv+0x128>
 80008d4:	2304      	movs	r3, #4
 80008d6:	4699      	mov	r9, r3
 80008d8:	3b03      	subs	r3, #3
 80008da:	2700      	movs	r7, #0
 80008dc:	469a      	mov	sl, r3
 80008de:	e792      	b.n	8000806 <__aeabi_fdiv+0x32>
 80008e0:	2d00      	cmp	r5, #0
 80008e2:	d105      	bne.n	80008f0 <__aeabi_fdiv+0x11c>
 80008e4:	2308      	movs	r3, #8
 80008e6:	4699      	mov	r9, r3
 80008e8:	3b06      	subs	r3, #6
 80008ea:	27ff      	movs	r7, #255	; 0xff
 80008ec:	469a      	mov	sl, r3
 80008ee:	e78a      	b.n	8000806 <__aeabi_fdiv+0x32>
 80008f0:	230c      	movs	r3, #12
 80008f2:	4699      	mov	r9, r3
 80008f4:	3b09      	subs	r3, #9
 80008f6:	27ff      	movs	r7, #255	; 0xff
 80008f8:	469a      	mov	sl, r3
 80008fa:	e784      	b.n	8000806 <__aeabi_fdiv+0x32>
 80008fc:	0028      	movs	r0, r5
 80008fe:	f001 fed9 	bl	80026b4 <__clzsi2>
 8000902:	2776      	movs	r7, #118	; 0x76
 8000904:	1f43      	subs	r3, r0, #5
 8000906:	409d      	lsls	r5, r3
 8000908:	2300      	movs	r3, #0
 800090a:	427f      	negs	r7, r7
 800090c:	4699      	mov	r9, r3
 800090e:	469a      	mov	sl, r3
 8000910:	1a3f      	subs	r7, r7, r0
 8000912:	e778      	b.n	8000806 <__aeabi_fdiv+0x32>
 8000914:	4640      	mov	r0, r8
 8000916:	f001 fecd 	bl	80026b4 <__clzsi2>
 800091a:	4642      	mov	r2, r8
 800091c:	1f43      	subs	r3, r0, #5
 800091e:	409a      	lsls	r2, r3
 8000920:	2376      	movs	r3, #118	; 0x76
 8000922:	425b      	negs	r3, r3
 8000924:	4690      	mov	r8, r2
 8000926:	1a1b      	subs	r3, r3, r0
 8000928:	2200      	movs	r2, #0
 800092a:	e77e      	b.n	800082a <__aeabi_fdiv+0x56>
 800092c:	2303      	movs	r3, #3
 800092e:	464a      	mov	r2, r9
 8000930:	431a      	orrs	r2, r3
 8000932:	4691      	mov	r9, r2
 8000934:	33fc      	adds	r3, #252	; 0xfc
 8000936:	2203      	movs	r2, #3
 8000938:	e777      	b.n	800082a <__aeabi_fdiv+0x56>
 800093a:	000e      	movs	r6, r1
 800093c:	20ff      	movs	r0, #255	; 0xff
 800093e:	2200      	movs	r2, #0
 8000940:	e7a8      	b.n	8000894 <__aeabi_fdiv+0xc0>
 8000942:	2201      	movs	r2, #1
 8000944:	1ad3      	subs	r3, r2, r3
 8000946:	2b1b      	cmp	r3, #27
 8000948:	dca2      	bgt.n	8000890 <__aeabi_fdiv+0xbc>
 800094a:	379e      	adds	r7, #158	; 0x9e
 800094c:	002a      	movs	r2, r5
 800094e:	40bd      	lsls	r5, r7
 8000950:	40da      	lsrs	r2, r3
 8000952:	1e6b      	subs	r3, r5, #1
 8000954:	419d      	sbcs	r5, r3
 8000956:	4315      	orrs	r5, r2
 8000958:	076a      	lsls	r2, r5, #29
 800095a:	d004      	beq.n	8000966 <__aeabi_fdiv+0x192>
 800095c:	220f      	movs	r2, #15
 800095e:	402a      	ands	r2, r5
 8000960:	2a04      	cmp	r2, #4
 8000962:	d000      	beq.n	8000966 <__aeabi_fdiv+0x192>
 8000964:	3504      	adds	r5, #4
 8000966:	016a      	lsls	r2, r5, #5
 8000968:	d544      	bpl.n	80009f4 <__aeabi_fdiv+0x220>
 800096a:	2001      	movs	r0, #1
 800096c:	2200      	movs	r2, #0
 800096e:	e791      	b.n	8000894 <__aeabi_fdiv+0xc0>
 8000970:	20ff      	movs	r0, #255	; 0xff
 8000972:	2200      	movs	r2, #0
 8000974:	e78e      	b.n	8000894 <__aeabi_fdiv+0xc0>
 8000976:	2280      	movs	r2, #128	; 0x80
 8000978:	2600      	movs	r6, #0
 800097a:	20ff      	movs	r0, #255	; 0xff
 800097c:	03d2      	lsls	r2, r2, #15
 800097e:	e789      	b.n	8000894 <__aeabi_fdiv+0xc0>
 8000980:	2300      	movs	r3, #0
 8000982:	4698      	mov	r8, r3
 8000984:	2280      	movs	r2, #128	; 0x80
 8000986:	03d2      	lsls	r2, r2, #15
 8000988:	4215      	tst	r5, r2
 800098a:	d008      	beq.n	800099e <__aeabi_fdiv+0x1ca>
 800098c:	4643      	mov	r3, r8
 800098e:	4213      	tst	r3, r2
 8000990:	d105      	bne.n	800099e <__aeabi_fdiv+0x1ca>
 8000992:	431a      	orrs	r2, r3
 8000994:	0252      	lsls	r2, r2, #9
 8000996:	0026      	movs	r6, r4
 8000998:	20ff      	movs	r0, #255	; 0xff
 800099a:	0a52      	lsrs	r2, r2, #9
 800099c:	e77a      	b.n	8000894 <__aeabi_fdiv+0xc0>
 800099e:	2280      	movs	r2, #128	; 0x80
 80009a0:	03d2      	lsls	r2, r2, #15
 80009a2:	432a      	orrs	r2, r5
 80009a4:	0252      	lsls	r2, r2, #9
 80009a6:	20ff      	movs	r0, #255	; 0xff
 80009a8:	0a52      	lsrs	r2, r2, #9
 80009aa:	e773      	b.n	8000894 <__aeabi_fdiv+0xc0>
 80009ac:	4642      	mov	r2, r8
 80009ae:	016b      	lsls	r3, r5, #5
 80009b0:	0155      	lsls	r5, r2, #5
 80009b2:	42ab      	cmp	r3, r5
 80009b4:	d21a      	bcs.n	80009ec <__aeabi_fdiv+0x218>
 80009b6:	201b      	movs	r0, #27
 80009b8:	2200      	movs	r2, #0
 80009ba:	3f01      	subs	r7, #1
 80009bc:	2601      	movs	r6, #1
 80009be:	001c      	movs	r4, r3
 80009c0:	0052      	lsls	r2, r2, #1
 80009c2:	005b      	lsls	r3, r3, #1
 80009c4:	2c00      	cmp	r4, #0
 80009c6:	db01      	blt.n	80009cc <__aeabi_fdiv+0x1f8>
 80009c8:	429d      	cmp	r5, r3
 80009ca:	d801      	bhi.n	80009d0 <__aeabi_fdiv+0x1fc>
 80009cc:	1b5b      	subs	r3, r3, r5
 80009ce:	4332      	orrs	r2, r6
 80009d0:	3801      	subs	r0, #1
 80009d2:	2800      	cmp	r0, #0
 80009d4:	d1f3      	bne.n	80009be <__aeabi_fdiv+0x1ea>
 80009d6:	1e58      	subs	r0, r3, #1
 80009d8:	4183      	sbcs	r3, r0
 80009da:	4313      	orrs	r3, r2
 80009dc:	001d      	movs	r5, r3
 80009de:	003b      	movs	r3, r7
 80009e0:	337f      	adds	r3, #127	; 0x7f
 80009e2:	000e      	movs	r6, r1
 80009e4:	2b00      	cmp	r3, #0
 80009e6:	dd00      	ble.n	80009ea <__aeabi_fdiv+0x216>
 80009e8:	e73d      	b.n	8000866 <__aeabi_fdiv+0x92>
 80009ea:	e7aa      	b.n	8000942 <__aeabi_fdiv+0x16e>
 80009ec:	201a      	movs	r0, #26
 80009ee:	2201      	movs	r2, #1
 80009f0:	1b5b      	subs	r3, r3, r5
 80009f2:	e7e3      	b.n	80009bc <__aeabi_fdiv+0x1e8>
 80009f4:	01aa      	lsls	r2, r5, #6
 80009f6:	2000      	movs	r0, #0
 80009f8:	0a52      	lsrs	r2, r2, #9
 80009fa:	e74b      	b.n	8000894 <__aeabi_fdiv+0xc0>
 80009fc:	080070e8 	.word	0x080070e8
 8000a00:	f7ffffff 	.word	0xf7ffffff
 8000a04:	08007128 	.word	0x08007128

08000a08 <__eqsf2>:
 8000a08:	b570      	push	{r4, r5, r6, lr}
 8000a0a:	0042      	lsls	r2, r0, #1
 8000a0c:	0245      	lsls	r5, r0, #9
 8000a0e:	024e      	lsls	r6, r1, #9
 8000a10:	004c      	lsls	r4, r1, #1
 8000a12:	0fc3      	lsrs	r3, r0, #31
 8000a14:	0a6d      	lsrs	r5, r5, #9
 8000a16:	2001      	movs	r0, #1
 8000a18:	0e12      	lsrs	r2, r2, #24
 8000a1a:	0a76      	lsrs	r6, r6, #9
 8000a1c:	0e24      	lsrs	r4, r4, #24
 8000a1e:	0fc9      	lsrs	r1, r1, #31
 8000a20:	2aff      	cmp	r2, #255	; 0xff
 8000a22:	d006      	beq.n	8000a32 <__eqsf2+0x2a>
 8000a24:	2cff      	cmp	r4, #255	; 0xff
 8000a26:	d003      	beq.n	8000a30 <__eqsf2+0x28>
 8000a28:	42a2      	cmp	r2, r4
 8000a2a:	d101      	bne.n	8000a30 <__eqsf2+0x28>
 8000a2c:	42b5      	cmp	r5, r6
 8000a2e:	d006      	beq.n	8000a3e <__eqsf2+0x36>
 8000a30:	bd70      	pop	{r4, r5, r6, pc}
 8000a32:	2d00      	cmp	r5, #0
 8000a34:	d1fc      	bne.n	8000a30 <__eqsf2+0x28>
 8000a36:	2cff      	cmp	r4, #255	; 0xff
 8000a38:	d1fa      	bne.n	8000a30 <__eqsf2+0x28>
 8000a3a:	2e00      	cmp	r6, #0
 8000a3c:	d1f8      	bne.n	8000a30 <__eqsf2+0x28>
 8000a3e:	428b      	cmp	r3, r1
 8000a40:	d006      	beq.n	8000a50 <__eqsf2+0x48>
 8000a42:	2001      	movs	r0, #1
 8000a44:	2a00      	cmp	r2, #0
 8000a46:	d1f3      	bne.n	8000a30 <__eqsf2+0x28>
 8000a48:	0028      	movs	r0, r5
 8000a4a:	1e43      	subs	r3, r0, #1
 8000a4c:	4198      	sbcs	r0, r3
 8000a4e:	e7ef      	b.n	8000a30 <__eqsf2+0x28>
 8000a50:	2000      	movs	r0, #0
 8000a52:	e7ed      	b.n	8000a30 <__eqsf2+0x28>

08000a54 <__gesf2>:
 8000a54:	b570      	push	{r4, r5, r6, lr}
 8000a56:	0042      	lsls	r2, r0, #1
 8000a58:	0245      	lsls	r5, r0, #9
 8000a5a:	024e      	lsls	r6, r1, #9
 8000a5c:	004c      	lsls	r4, r1, #1
 8000a5e:	0fc3      	lsrs	r3, r0, #31
 8000a60:	0a6d      	lsrs	r5, r5, #9
 8000a62:	0e12      	lsrs	r2, r2, #24
 8000a64:	0a76      	lsrs	r6, r6, #9
 8000a66:	0e24      	lsrs	r4, r4, #24
 8000a68:	0fc8      	lsrs	r0, r1, #31
 8000a6a:	2aff      	cmp	r2, #255	; 0xff
 8000a6c:	d01b      	beq.n	8000aa6 <__gesf2+0x52>
 8000a6e:	2cff      	cmp	r4, #255	; 0xff
 8000a70:	d00e      	beq.n	8000a90 <__gesf2+0x3c>
 8000a72:	2a00      	cmp	r2, #0
 8000a74:	d11b      	bne.n	8000aae <__gesf2+0x5a>
 8000a76:	2c00      	cmp	r4, #0
 8000a78:	d101      	bne.n	8000a7e <__gesf2+0x2a>
 8000a7a:	2e00      	cmp	r6, #0
 8000a7c:	d01c      	beq.n	8000ab8 <__gesf2+0x64>
 8000a7e:	2d00      	cmp	r5, #0
 8000a80:	d00c      	beq.n	8000a9c <__gesf2+0x48>
 8000a82:	4283      	cmp	r3, r0
 8000a84:	d01c      	beq.n	8000ac0 <__gesf2+0x6c>
 8000a86:	2102      	movs	r1, #2
 8000a88:	1e58      	subs	r0, r3, #1
 8000a8a:	4008      	ands	r0, r1
 8000a8c:	3801      	subs	r0, #1
 8000a8e:	bd70      	pop	{r4, r5, r6, pc}
 8000a90:	2e00      	cmp	r6, #0
 8000a92:	d122      	bne.n	8000ada <__gesf2+0x86>
 8000a94:	2a00      	cmp	r2, #0
 8000a96:	d1f4      	bne.n	8000a82 <__gesf2+0x2e>
 8000a98:	2d00      	cmp	r5, #0
 8000a9a:	d1f2      	bne.n	8000a82 <__gesf2+0x2e>
 8000a9c:	2800      	cmp	r0, #0
 8000a9e:	d1f6      	bne.n	8000a8e <__gesf2+0x3a>
 8000aa0:	2001      	movs	r0, #1
 8000aa2:	4240      	negs	r0, r0
 8000aa4:	e7f3      	b.n	8000a8e <__gesf2+0x3a>
 8000aa6:	2d00      	cmp	r5, #0
 8000aa8:	d117      	bne.n	8000ada <__gesf2+0x86>
 8000aaa:	2cff      	cmp	r4, #255	; 0xff
 8000aac:	d0f0      	beq.n	8000a90 <__gesf2+0x3c>
 8000aae:	2c00      	cmp	r4, #0
 8000ab0:	d1e7      	bne.n	8000a82 <__gesf2+0x2e>
 8000ab2:	2e00      	cmp	r6, #0
 8000ab4:	d1e5      	bne.n	8000a82 <__gesf2+0x2e>
 8000ab6:	e7e6      	b.n	8000a86 <__gesf2+0x32>
 8000ab8:	2000      	movs	r0, #0
 8000aba:	2d00      	cmp	r5, #0
 8000abc:	d0e7      	beq.n	8000a8e <__gesf2+0x3a>
 8000abe:	e7e2      	b.n	8000a86 <__gesf2+0x32>
 8000ac0:	42a2      	cmp	r2, r4
 8000ac2:	dc05      	bgt.n	8000ad0 <__gesf2+0x7c>
 8000ac4:	dbea      	blt.n	8000a9c <__gesf2+0x48>
 8000ac6:	42b5      	cmp	r5, r6
 8000ac8:	d802      	bhi.n	8000ad0 <__gesf2+0x7c>
 8000aca:	d3e7      	bcc.n	8000a9c <__gesf2+0x48>
 8000acc:	2000      	movs	r0, #0
 8000ace:	e7de      	b.n	8000a8e <__gesf2+0x3a>
 8000ad0:	4243      	negs	r3, r0
 8000ad2:	4158      	adcs	r0, r3
 8000ad4:	0040      	lsls	r0, r0, #1
 8000ad6:	3801      	subs	r0, #1
 8000ad8:	e7d9      	b.n	8000a8e <__gesf2+0x3a>
 8000ada:	2002      	movs	r0, #2
 8000adc:	4240      	negs	r0, r0
 8000ade:	e7d6      	b.n	8000a8e <__gesf2+0x3a>

08000ae0 <__lesf2>:
 8000ae0:	b570      	push	{r4, r5, r6, lr}
 8000ae2:	0042      	lsls	r2, r0, #1
 8000ae4:	0245      	lsls	r5, r0, #9
 8000ae6:	024e      	lsls	r6, r1, #9
 8000ae8:	004c      	lsls	r4, r1, #1
 8000aea:	0fc3      	lsrs	r3, r0, #31
 8000aec:	0a6d      	lsrs	r5, r5, #9
 8000aee:	0e12      	lsrs	r2, r2, #24
 8000af0:	0a76      	lsrs	r6, r6, #9
 8000af2:	0e24      	lsrs	r4, r4, #24
 8000af4:	0fc8      	lsrs	r0, r1, #31
 8000af6:	2aff      	cmp	r2, #255	; 0xff
 8000af8:	d00b      	beq.n	8000b12 <__lesf2+0x32>
 8000afa:	2cff      	cmp	r4, #255	; 0xff
 8000afc:	d00d      	beq.n	8000b1a <__lesf2+0x3a>
 8000afe:	2a00      	cmp	r2, #0
 8000b00:	d11f      	bne.n	8000b42 <__lesf2+0x62>
 8000b02:	2c00      	cmp	r4, #0
 8000b04:	d116      	bne.n	8000b34 <__lesf2+0x54>
 8000b06:	2e00      	cmp	r6, #0
 8000b08:	d114      	bne.n	8000b34 <__lesf2+0x54>
 8000b0a:	2000      	movs	r0, #0
 8000b0c:	2d00      	cmp	r5, #0
 8000b0e:	d010      	beq.n	8000b32 <__lesf2+0x52>
 8000b10:	e009      	b.n	8000b26 <__lesf2+0x46>
 8000b12:	2d00      	cmp	r5, #0
 8000b14:	d10c      	bne.n	8000b30 <__lesf2+0x50>
 8000b16:	2cff      	cmp	r4, #255	; 0xff
 8000b18:	d113      	bne.n	8000b42 <__lesf2+0x62>
 8000b1a:	2e00      	cmp	r6, #0
 8000b1c:	d108      	bne.n	8000b30 <__lesf2+0x50>
 8000b1e:	2a00      	cmp	r2, #0
 8000b20:	d008      	beq.n	8000b34 <__lesf2+0x54>
 8000b22:	4283      	cmp	r3, r0
 8000b24:	d012      	beq.n	8000b4c <__lesf2+0x6c>
 8000b26:	2102      	movs	r1, #2
 8000b28:	1e58      	subs	r0, r3, #1
 8000b2a:	4008      	ands	r0, r1
 8000b2c:	3801      	subs	r0, #1
 8000b2e:	e000      	b.n	8000b32 <__lesf2+0x52>
 8000b30:	2002      	movs	r0, #2
 8000b32:	bd70      	pop	{r4, r5, r6, pc}
 8000b34:	2d00      	cmp	r5, #0
 8000b36:	d1f4      	bne.n	8000b22 <__lesf2+0x42>
 8000b38:	2800      	cmp	r0, #0
 8000b3a:	d1fa      	bne.n	8000b32 <__lesf2+0x52>
 8000b3c:	2001      	movs	r0, #1
 8000b3e:	4240      	negs	r0, r0
 8000b40:	e7f7      	b.n	8000b32 <__lesf2+0x52>
 8000b42:	2c00      	cmp	r4, #0
 8000b44:	d1ed      	bne.n	8000b22 <__lesf2+0x42>
 8000b46:	2e00      	cmp	r6, #0
 8000b48:	d1eb      	bne.n	8000b22 <__lesf2+0x42>
 8000b4a:	e7ec      	b.n	8000b26 <__lesf2+0x46>
 8000b4c:	42a2      	cmp	r2, r4
 8000b4e:	dc05      	bgt.n	8000b5c <__lesf2+0x7c>
 8000b50:	dbf2      	blt.n	8000b38 <__lesf2+0x58>
 8000b52:	42b5      	cmp	r5, r6
 8000b54:	d802      	bhi.n	8000b5c <__lesf2+0x7c>
 8000b56:	d3ef      	bcc.n	8000b38 <__lesf2+0x58>
 8000b58:	2000      	movs	r0, #0
 8000b5a:	e7ea      	b.n	8000b32 <__lesf2+0x52>
 8000b5c:	4243      	negs	r3, r0
 8000b5e:	4158      	adcs	r0, r3
 8000b60:	0040      	lsls	r0, r0, #1
 8000b62:	3801      	subs	r0, #1
 8000b64:	e7e5      	b.n	8000b32 <__lesf2+0x52>
 8000b66:	46c0      	nop			; (mov r8, r8)

08000b68 <__aeabi_fmul>:
 8000b68:	0243      	lsls	r3, r0, #9
 8000b6a:	0a5b      	lsrs	r3, r3, #9
 8000b6c:	b5f0      	push	{r4, r5, r6, r7, lr}
 8000b6e:	464f      	mov	r7, r9
 8000b70:	4646      	mov	r6, r8
 8000b72:	4699      	mov	r9, r3
 8000b74:	46d6      	mov	lr, sl
 8000b76:	0fc3      	lsrs	r3, r0, #31
 8000b78:	0045      	lsls	r5, r0, #1
 8000b7a:	4698      	mov	r8, r3
 8000b7c:	b5c0      	push	{r6, r7, lr}
 8000b7e:	464b      	mov	r3, r9
 8000b80:	1c0f      	adds	r7, r1, #0
 8000b82:	0e2d      	lsrs	r5, r5, #24
 8000b84:	d100      	bne.n	8000b88 <__aeabi_fmul+0x20>
 8000b86:	e0cb      	b.n	8000d20 <__aeabi_fmul+0x1b8>
 8000b88:	2dff      	cmp	r5, #255	; 0xff
 8000b8a:	d100      	bne.n	8000b8e <__aeabi_fmul+0x26>
 8000b8c:	e0cf      	b.n	8000d2e <__aeabi_fmul+0x1c6>
 8000b8e:	2280      	movs	r2, #128	; 0x80
 8000b90:	00db      	lsls	r3, r3, #3
 8000b92:	04d2      	lsls	r2, r2, #19
 8000b94:	431a      	orrs	r2, r3
 8000b96:	2300      	movs	r3, #0
 8000b98:	4691      	mov	r9, r2
 8000b9a:	2600      	movs	r6, #0
 8000b9c:	469a      	mov	sl, r3
 8000b9e:	3d7f      	subs	r5, #127	; 0x7f
 8000ba0:	027c      	lsls	r4, r7, #9
 8000ba2:	007b      	lsls	r3, r7, #1
 8000ba4:	0a64      	lsrs	r4, r4, #9
 8000ba6:	0e1b      	lsrs	r3, r3, #24
 8000ba8:	0fff      	lsrs	r7, r7, #31
 8000baa:	2b00      	cmp	r3, #0
 8000bac:	d100      	bne.n	8000bb0 <__aeabi_fmul+0x48>
 8000bae:	e0a9      	b.n	8000d04 <__aeabi_fmul+0x19c>
 8000bb0:	2bff      	cmp	r3, #255	; 0xff
 8000bb2:	d011      	beq.n	8000bd8 <__aeabi_fmul+0x70>
 8000bb4:	2280      	movs	r2, #128	; 0x80
 8000bb6:	00e4      	lsls	r4, r4, #3
 8000bb8:	04d2      	lsls	r2, r2, #19
 8000bba:	4314      	orrs	r4, r2
 8000bbc:	4642      	mov	r2, r8
 8000bbe:	3b7f      	subs	r3, #127	; 0x7f
 8000bc0:	195b      	adds	r3, r3, r5
 8000bc2:	407a      	eors	r2, r7
 8000bc4:	2000      	movs	r0, #0
 8000bc6:	b2d2      	uxtb	r2, r2
 8000bc8:	1c5d      	adds	r5, r3, #1
 8000bca:	2e0a      	cmp	r6, #10
 8000bcc:	dd13      	ble.n	8000bf6 <__aeabi_fmul+0x8e>
 8000bce:	003a      	movs	r2, r7
 8000bd0:	2e0b      	cmp	r6, #11
 8000bd2:	d047      	beq.n	8000c64 <__aeabi_fmul+0xfc>
 8000bd4:	4647      	mov	r7, r8
 8000bd6:	e03f      	b.n	8000c58 <__aeabi_fmul+0xf0>
 8000bd8:	002b      	movs	r3, r5
 8000bda:	33ff      	adds	r3, #255	; 0xff
 8000bdc:	2c00      	cmp	r4, #0
 8000bde:	d11e      	bne.n	8000c1e <__aeabi_fmul+0xb6>
 8000be0:	2202      	movs	r2, #2
 8000be2:	4316      	orrs	r6, r2
 8000be4:	4642      	mov	r2, r8
 8000be6:	3501      	adds	r5, #1
 8000be8:	407a      	eors	r2, r7
 8000bea:	b2d2      	uxtb	r2, r2
 8000bec:	35ff      	adds	r5, #255	; 0xff
 8000bee:	2e0a      	cmp	r6, #10
 8000bf0:	dd00      	ble.n	8000bf4 <__aeabi_fmul+0x8c>
 8000bf2:	e0e4      	b.n	8000dbe <__aeabi_fmul+0x256>
 8000bf4:	2002      	movs	r0, #2
 8000bf6:	2e02      	cmp	r6, #2
 8000bf8:	dc1c      	bgt.n	8000c34 <__aeabi_fmul+0xcc>
 8000bfa:	3e01      	subs	r6, #1
 8000bfc:	2e01      	cmp	r6, #1
 8000bfe:	d842      	bhi.n	8000c86 <__aeabi_fmul+0x11e>
 8000c00:	2802      	cmp	r0, #2
 8000c02:	d03d      	beq.n	8000c80 <__aeabi_fmul+0x118>
 8000c04:	2801      	cmp	r0, #1
 8000c06:	d166      	bne.n	8000cd6 <__aeabi_fmul+0x16e>
 8000c08:	2000      	movs	r0, #0
 8000c0a:	2100      	movs	r1, #0
 8000c0c:	05c0      	lsls	r0, r0, #23
 8000c0e:	4308      	orrs	r0, r1
 8000c10:	07d2      	lsls	r2, r2, #31
 8000c12:	4310      	orrs	r0, r2
 8000c14:	bce0      	pop	{r5, r6, r7}
 8000c16:	46ba      	mov	sl, r7
 8000c18:	46b1      	mov	r9, r6
 8000c1a:	46a8      	mov	r8, r5
 8000c1c:	bdf0      	pop	{r4, r5, r6, r7, pc}
 8000c1e:	2203      	movs	r2, #3
 8000c20:	4316      	orrs	r6, r2
 8000c22:	4642      	mov	r2, r8
 8000c24:	3501      	adds	r5, #1
 8000c26:	407a      	eors	r2, r7
 8000c28:	b2d2      	uxtb	r2, r2
 8000c2a:	35ff      	adds	r5, #255	; 0xff
 8000c2c:	2e0a      	cmp	r6, #10
 8000c2e:	dd00      	ble.n	8000c32 <__aeabi_fmul+0xca>
 8000c30:	e0e4      	b.n	8000dfc <__aeabi_fmul+0x294>
 8000c32:	2003      	movs	r0, #3
 8000c34:	2101      	movs	r1, #1
 8000c36:	40b1      	lsls	r1, r6
 8000c38:	26a6      	movs	r6, #166	; 0xa6
 8000c3a:	00f6      	lsls	r6, r6, #3
 8000c3c:	4231      	tst	r1, r6
 8000c3e:	d10a      	bne.n	8000c56 <__aeabi_fmul+0xee>
 8000c40:	2690      	movs	r6, #144	; 0x90
 8000c42:	00b6      	lsls	r6, r6, #2
 8000c44:	4231      	tst	r1, r6
 8000c46:	d116      	bne.n	8000c76 <__aeabi_fmul+0x10e>
 8000c48:	3eb9      	subs	r6, #185	; 0xb9
 8000c4a:	3eff      	subs	r6, #255	; 0xff
 8000c4c:	420e      	tst	r6, r1
 8000c4e:	d01a      	beq.n	8000c86 <__aeabi_fmul+0x11e>
 8000c50:	46a1      	mov	r9, r4
 8000c52:	4682      	mov	sl, r0
 8000c54:	e000      	b.n	8000c58 <__aeabi_fmul+0xf0>
 8000c56:	0017      	movs	r7, r2
 8000c58:	4653      	mov	r3, sl
 8000c5a:	003a      	movs	r2, r7
 8000c5c:	2b02      	cmp	r3, #2
 8000c5e:	d00f      	beq.n	8000c80 <__aeabi_fmul+0x118>
 8000c60:	464c      	mov	r4, r9
 8000c62:	4650      	mov	r0, sl
 8000c64:	2803      	cmp	r0, #3
 8000c66:	d1cd      	bne.n	8000c04 <__aeabi_fmul+0x9c>
 8000c68:	2180      	movs	r1, #128	; 0x80
 8000c6a:	03c9      	lsls	r1, r1, #15
 8000c6c:	4321      	orrs	r1, r4
 8000c6e:	0249      	lsls	r1, r1, #9
 8000c70:	20ff      	movs	r0, #255	; 0xff
 8000c72:	0a49      	lsrs	r1, r1, #9
 8000c74:	e7ca      	b.n	8000c0c <__aeabi_fmul+0xa4>
 8000c76:	2180      	movs	r1, #128	; 0x80
 8000c78:	2200      	movs	r2, #0
 8000c7a:	20ff      	movs	r0, #255	; 0xff
 8000c7c:	03c9      	lsls	r1, r1, #15
 8000c7e:	e7c5      	b.n	8000c0c <__aeabi_fmul+0xa4>
 8000c80:	20ff      	movs	r0, #255	; 0xff
 8000c82:	2100      	movs	r1, #0
 8000c84:	e7c2      	b.n	8000c0c <__aeabi_fmul+0xa4>
 8000c86:	0c20      	lsrs	r0, r4, #16
 8000c88:	4649      	mov	r1, r9
 8000c8a:	0424      	lsls	r4, r4, #16
 8000c8c:	0c24      	lsrs	r4, r4, #16
 8000c8e:	0027      	movs	r7, r4
 8000c90:	0c0e      	lsrs	r6, r1, #16
 8000c92:	0409      	lsls	r1, r1, #16
 8000c94:	0c09      	lsrs	r1, r1, #16
 8000c96:	4374      	muls	r4, r6
 8000c98:	434f      	muls	r7, r1
 8000c9a:	4346      	muls	r6, r0
 8000c9c:	4348      	muls	r0, r1
 8000c9e:	0c39      	lsrs	r1, r7, #16
 8000ca0:	1900      	adds	r0, r0, r4
 8000ca2:	1809      	adds	r1, r1, r0
 8000ca4:	428c      	cmp	r4, r1
 8000ca6:	d903      	bls.n	8000cb0 <__aeabi_fmul+0x148>
 8000ca8:	2080      	movs	r0, #128	; 0x80
 8000caa:	0240      	lsls	r0, r0, #9
 8000cac:	4684      	mov	ip, r0
 8000cae:	4466      	add	r6, ip
 8000cb0:	043f      	lsls	r7, r7, #16
 8000cb2:	0408      	lsls	r0, r1, #16
 8000cb4:	0c3f      	lsrs	r7, r7, #16
 8000cb6:	19c0      	adds	r0, r0, r7
 8000cb8:	0184      	lsls	r4, r0, #6
 8000cba:	1e67      	subs	r7, r4, #1
 8000cbc:	41bc      	sbcs	r4, r7
 8000cbe:	0c09      	lsrs	r1, r1, #16
 8000cc0:	0e80      	lsrs	r0, r0, #26
 8000cc2:	1989      	adds	r1, r1, r6
 8000cc4:	4304      	orrs	r4, r0
 8000cc6:	0189      	lsls	r1, r1, #6
 8000cc8:	430c      	orrs	r4, r1
 8000cca:	0109      	lsls	r1, r1, #4
 8000ccc:	d571      	bpl.n	8000db2 <__aeabi_fmul+0x24a>
 8000cce:	2301      	movs	r3, #1
 8000cd0:	0861      	lsrs	r1, r4, #1
 8000cd2:	401c      	ands	r4, r3
 8000cd4:	430c      	orrs	r4, r1
 8000cd6:	002b      	movs	r3, r5
 8000cd8:	337f      	adds	r3, #127	; 0x7f
 8000cda:	2b00      	cmp	r3, #0
 8000cdc:	dd51      	ble.n	8000d82 <__aeabi_fmul+0x21a>
 8000cde:	0761      	lsls	r1, r4, #29
 8000ce0:	d004      	beq.n	8000cec <__aeabi_fmul+0x184>
 8000ce2:	210f      	movs	r1, #15
 8000ce4:	4021      	ands	r1, r4
 8000ce6:	2904      	cmp	r1, #4
 8000ce8:	d000      	beq.n	8000cec <__aeabi_fmul+0x184>
 8000cea:	3404      	adds	r4, #4
 8000cec:	0121      	lsls	r1, r4, #4
 8000cee:	d503      	bpl.n	8000cf8 <__aeabi_fmul+0x190>
 8000cf0:	4b43      	ldr	r3, [pc, #268]	; (8000e00 <__aeabi_fmul+0x298>)
 8000cf2:	401c      	ands	r4, r3
 8000cf4:	002b      	movs	r3, r5
 8000cf6:	3380      	adds	r3, #128	; 0x80
 8000cf8:	2bfe      	cmp	r3, #254	; 0xfe
 8000cfa:	dcc1      	bgt.n	8000c80 <__aeabi_fmul+0x118>
 8000cfc:	01a1      	lsls	r1, r4, #6
 8000cfe:	0a49      	lsrs	r1, r1, #9
 8000d00:	b2d8      	uxtb	r0, r3
 8000d02:	e783      	b.n	8000c0c <__aeabi_fmul+0xa4>
 8000d04:	2c00      	cmp	r4, #0
 8000d06:	d12c      	bne.n	8000d62 <__aeabi_fmul+0x1fa>
 8000d08:	2301      	movs	r3, #1
 8000d0a:	4642      	mov	r2, r8
 8000d0c:	431e      	orrs	r6, r3
 8000d0e:	002b      	movs	r3, r5
 8000d10:	407a      	eors	r2, r7
 8000d12:	2001      	movs	r0, #1
 8000d14:	b2d2      	uxtb	r2, r2
 8000d16:	1c5d      	adds	r5, r3, #1
 8000d18:	2e0a      	cmp	r6, #10
 8000d1a:	dd00      	ble.n	8000d1e <__aeabi_fmul+0x1b6>
 8000d1c:	e757      	b.n	8000bce <__aeabi_fmul+0x66>
 8000d1e:	e76a      	b.n	8000bf6 <__aeabi_fmul+0x8e>
 8000d20:	2b00      	cmp	r3, #0
 8000d22:	d110      	bne.n	8000d46 <__aeabi_fmul+0x1de>
 8000d24:	2301      	movs	r3, #1
 8000d26:	2604      	movs	r6, #4
 8000d28:	2500      	movs	r5, #0
 8000d2a:	469a      	mov	sl, r3
 8000d2c:	e738      	b.n	8000ba0 <__aeabi_fmul+0x38>
 8000d2e:	2b00      	cmp	r3, #0
 8000d30:	d104      	bne.n	8000d3c <__aeabi_fmul+0x1d4>
 8000d32:	2302      	movs	r3, #2
 8000d34:	2608      	movs	r6, #8
 8000d36:	25ff      	movs	r5, #255	; 0xff
 8000d38:	469a      	mov	sl, r3
 8000d3a:	e731      	b.n	8000ba0 <__aeabi_fmul+0x38>
 8000d3c:	2303      	movs	r3, #3
 8000d3e:	260c      	movs	r6, #12
 8000d40:	25ff      	movs	r5, #255	; 0xff
 8000d42:	469a      	mov	sl, r3
 8000d44:	e72c      	b.n	8000ba0 <__aeabi_fmul+0x38>
 8000d46:	4648      	mov	r0, r9
 8000d48:	f001 fcb4 	bl	80026b4 <__clzsi2>
 8000d4c:	464a      	mov	r2, r9
 8000d4e:	1f43      	subs	r3, r0, #5
 8000d50:	2576      	movs	r5, #118	; 0x76
 8000d52:	409a      	lsls	r2, r3
 8000d54:	2300      	movs	r3, #0
 8000d56:	426d      	negs	r5, r5
 8000d58:	4691      	mov	r9, r2
 8000d5a:	2600      	movs	r6, #0
 8000d5c:	469a      	mov	sl, r3
 8000d5e:	1a2d      	subs	r5, r5, r0
 8000d60:	e71e      	b.n	8000ba0 <__aeabi_fmul+0x38>
 8000d62:	0020      	movs	r0, r4
 8000d64:	f001 fca6 	bl	80026b4 <__clzsi2>
 8000d68:	4642      	mov	r2, r8
 8000d6a:	1f43      	subs	r3, r0, #5
 8000d6c:	409c      	lsls	r4, r3
 8000d6e:	1a2b      	subs	r3, r5, r0
 8000d70:	3b76      	subs	r3, #118	; 0x76
 8000d72:	407a      	eors	r2, r7
 8000d74:	2000      	movs	r0, #0
 8000d76:	b2d2      	uxtb	r2, r2
 8000d78:	1c5d      	adds	r5, r3, #1
 8000d7a:	2e0a      	cmp	r6, #10
 8000d7c:	dd00      	ble.n	8000d80 <__aeabi_fmul+0x218>
 8000d7e:	e726      	b.n	8000bce <__aeabi_fmul+0x66>
 8000d80:	e739      	b.n	8000bf6 <__aeabi_fmul+0x8e>
 8000d82:	2101      	movs	r1, #1
 8000d84:	1acb      	subs	r3, r1, r3
 8000d86:	2b1b      	cmp	r3, #27
 8000d88:	dd00      	ble.n	8000d8c <__aeabi_fmul+0x224>
 8000d8a:	e73d      	b.n	8000c08 <__aeabi_fmul+0xa0>
 8000d8c:	359e      	adds	r5, #158	; 0x9e
 8000d8e:	0021      	movs	r1, r4
 8000d90:	40ac      	lsls	r4, r5
 8000d92:	40d9      	lsrs	r1, r3
 8000d94:	1e63      	subs	r3, r4, #1
 8000d96:	419c      	sbcs	r4, r3
 8000d98:	4321      	orrs	r1, r4
 8000d9a:	074b      	lsls	r3, r1, #29
 8000d9c:	d004      	beq.n	8000da8 <__aeabi_fmul+0x240>
 8000d9e:	230f      	movs	r3, #15
 8000da0:	400b      	ands	r3, r1
 8000da2:	2b04      	cmp	r3, #4
 8000da4:	d000      	beq.n	8000da8 <__aeabi_fmul+0x240>
 8000da6:	3104      	adds	r1, #4
 8000da8:	014b      	lsls	r3, r1, #5
 8000daa:	d504      	bpl.n	8000db6 <__aeabi_fmul+0x24e>
 8000dac:	2001      	movs	r0, #1
 8000dae:	2100      	movs	r1, #0
 8000db0:	e72c      	b.n	8000c0c <__aeabi_fmul+0xa4>
 8000db2:	001d      	movs	r5, r3
 8000db4:	e78f      	b.n	8000cd6 <__aeabi_fmul+0x16e>
 8000db6:	0189      	lsls	r1, r1, #6
 8000db8:	2000      	movs	r0, #0
 8000dba:	0a49      	lsrs	r1, r1, #9
 8000dbc:	e726      	b.n	8000c0c <__aeabi_fmul+0xa4>
 8000dbe:	2302      	movs	r3, #2
 8000dc0:	2e0f      	cmp	r6, #15
 8000dc2:	d10c      	bne.n	8000dde <__aeabi_fmul+0x276>
 8000dc4:	2180      	movs	r1, #128	; 0x80
 8000dc6:	464b      	mov	r3, r9
 8000dc8:	03c9      	lsls	r1, r1, #15
 8000dca:	420b      	tst	r3, r1
 8000dcc:	d00d      	beq.n	8000dea <__aeabi_fmul+0x282>
 8000dce:	420c      	tst	r4, r1
 8000dd0:	d10b      	bne.n	8000dea <__aeabi_fmul+0x282>
 8000dd2:	4321      	orrs	r1, r4
 8000dd4:	0249      	lsls	r1, r1, #9
 8000dd6:	003a      	movs	r2, r7
 8000dd8:	20ff      	movs	r0, #255	; 0xff
 8000dda:	0a49      	lsrs	r1, r1, #9
 8000ddc:	e716      	b.n	8000c0c <__aeabi_fmul+0xa4>
 8000dde:	2e0b      	cmp	r6, #11
 8000de0:	d000      	beq.n	8000de4 <__aeabi_fmul+0x27c>
 8000de2:	e6f7      	b.n	8000bd4 <__aeabi_fmul+0x6c>
 8000de4:	46a1      	mov	r9, r4
 8000de6:	469a      	mov	sl, r3
 8000de8:	e736      	b.n	8000c58 <__aeabi_fmul+0xf0>
 8000dea:	2180      	movs	r1, #128	; 0x80
 8000dec:	464b      	mov	r3, r9
 8000dee:	03c9      	lsls	r1, r1, #15
 8000df0:	4319      	orrs	r1, r3
 8000df2:	0249      	lsls	r1, r1, #9
 8000df4:	4642      	mov	r2, r8
 8000df6:	20ff      	movs	r0, #255	; 0xff
 8000df8:	0a49      	lsrs	r1, r1, #9
 8000dfa:	e707      	b.n	8000c0c <__aeabi_fmul+0xa4>
 8000dfc:	2303      	movs	r3, #3
 8000dfe:	e7df      	b.n	8000dc0 <__aeabi_fmul+0x258>
 8000e00:	f7ffffff 	.word	0xf7ffffff

08000e04 <__aeabi_fsub>:
 8000e04:	b5f0      	push	{r4, r5, r6, r7, lr}
 8000e06:	46c6      	mov	lr, r8
 8000e08:	0243      	lsls	r3, r0, #9
 8000e0a:	0a5b      	lsrs	r3, r3, #9
 8000e0c:	0045      	lsls	r5, r0, #1
 8000e0e:	00da      	lsls	r2, r3, #3
 8000e10:	0fc4      	lsrs	r4, r0, #31
 8000e12:	0248      	lsls	r0, r1, #9
 8000e14:	004f      	lsls	r7, r1, #1
 8000e16:	4694      	mov	ip, r2
 8000e18:	0a42      	lsrs	r2, r0, #9
 8000e1a:	001e      	movs	r6, r3
 8000e1c:	4690      	mov	r8, r2
 8000e1e:	b500      	push	{lr}
 8000e20:	0e2d      	lsrs	r5, r5, #24
 8000e22:	0e3f      	lsrs	r7, r7, #24
 8000e24:	0fc9      	lsrs	r1, r1, #31
 8000e26:	0980      	lsrs	r0, r0, #6
 8000e28:	2fff      	cmp	r7, #255	; 0xff
 8000e2a:	d059      	beq.n	8000ee0 <__aeabi_fsub+0xdc>
 8000e2c:	2201      	movs	r2, #1
 8000e2e:	4051      	eors	r1, r2
 8000e30:	428c      	cmp	r4, r1
 8000e32:	d039      	beq.n	8000ea8 <__aeabi_fsub+0xa4>
 8000e34:	1bea      	subs	r2, r5, r7
 8000e36:	2a00      	cmp	r2, #0
 8000e38:	dd58      	ble.n	8000eec <__aeabi_fsub+0xe8>
 8000e3a:	2f00      	cmp	r7, #0
 8000e3c:	d068      	beq.n	8000f10 <__aeabi_fsub+0x10c>
 8000e3e:	2dff      	cmp	r5, #255	; 0xff
 8000e40:	d100      	bne.n	8000e44 <__aeabi_fsub+0x40>
 8000e42:	e0d1      	b.n	8000fe8 <__aeabi_fsub+0x1e4>
 8000e44:	2380      	movs	r3, #128	; 0x80
 8000e46:	04db      	lsls	r3, r3, #19
 8000e48:	4318      	orrs	r0, r3
 8000e4a:	2a1b      	cmp	r2, #27
 8000e4c:	dc00      	bgt.n	8000e50 <__aeabi_fsub+0x4c>
 8000e4e:	e0e3      	b.n	8001018 <__aeabi_fsub+0x214>
 8000e50:	2301      	movs	r3, #1
 8000e52:	4662      	mov	r2, ip
 8000e54:	1ad3      	subs	r3, r2, r3
 8000e56:	015a      	lsls	r2, r3, #5
 8000e58:	d400      	bmi.n	8000e5c <__aeabi_fsub+0x58>
 8000e5a:	e0ac      	b.n	8000fb6 <__aeabi_fsub+0x1b2>
 8000e5c:	019b      	lsls	r3, r3, #6
 8000e5e:	099e      	lsrs	r6, r3, #6
 8000e60:	0030      	movs	r0, r6
 8000e62:	f001 fc27 	bl	80026b4 <__clzsi2>
 8000e66:	0033      	movs	r3, r6
 8000e68:	3805      	subs	r0, #5
 8000e6a:	4083      	lsls	r3, r0
 8000e6c:	4285      	cmp	r5, r0
 8000e6e:	dc00      	bgt.n	8000e72 <__aeabi_fsub+0x6e>
 8000e70:	e0c6      	b.n	8001000 <__aeabi_fsub+0x1fc>
 8000e72:	4ab2      	ldr	r2, [pc, #712]	; (800113c <__aeabi_fsub+0x338>)
 8000e74:	1a2d      	subs	r5, r5, r0
 8000e76:	4013      	ands	r3, r2
 8000e78:	075a      	lsls	r2, r3, #29
 8000e7a:	d004      	beq.n	8000e86 <__aeabi_fsub+0x82>
 8000e7c:	220f      	movs	r2, #15
 8000e7e:	401a      	ands	r2, r3
 8000e80:	2a04      	cmp	r2, #4
 8000e82:	d000      	beq.n	8000e86 <__aeabi_fsub+0x82>
 8000e84:	3304      	adds	r3, #4
 8000e86:	015a      	lsls	r2, r3, #5
 8000e88:	d400      	bmi.n	8000e8c <__aeabi_fsub+0x88>
 8000e8a:	e097      	b.n	8000fbc <__aeabi_fsub+0x1b8>
 8000e8c:	1c6a      	adds	r2, r5, #1
 8000e8e:	2dfe      	cmp	r5, #254	; 0xfe
 8000e90:	d100      	bne.n	8000e94 <__aeabi_fsub+0x90>
 8000e92:	e084      	b.n	8000f9e <__aeabi_fsub+0x19a>
 8000e94:	019b      	lsls	r3, r3, #6
 8000e96:	0a5e      	lsrs	r6, r3, #9
 8000e98:	b2d2      	uxtb	r2, r2
 8000e9a:	05d0      	lsls	r0, r2, #23
 8000e9c:	4330      	orrs	r0, r6
 8000e9e:	07e4      	lsls	r4, r4, #31
 8000ea0:	4320      	orrs	r0, r4
 8000ea2:	bc80      	pop	{r7}
 8000ea4:	46b8      	mov	r8, r7
 8000ea6:	bdf0      	pop	{r4, r5, r6, r7, pc}
 8000ea8:	1bea      	subs	r2, r5, r7
 8000eaa:	2a00      	cmp	r2, #0
 8000eac:	dd41      	ble.n	8000f32 <__aeabi_fsub+0x12e>
 8000eae:	2f00      	cmp	r7, #0
 8000eb0:	d06b      	beq.n	8000f8a <__aeabi_fsub+0x186>
 8000eb2:	2dff      	cmp	r5, #255	; 0xff
 8000eb4:	d100      	bne.n	8000eb8 <__aeabi_fsub+0xb4>
 8000eb6:	e097      	b.n	8000fe8 <__aeabi_fsub+0x1e4>
 8000eb8:	2380      	movs	r3, #128	; 0x80
 8000eba:	04db      	lsls	r3, r3, #19
 8000ebc:	4318      	orrs	r0, r3
 8000ebe:	2a1b      	cmp	r2, #27
 8000ec0:	dc00      	bgt.n	8000ec4 <__aeabi_fsub+0xc0>
 8000ec2:	e0cc      	b.n	800105e <__aeabi_fsub+0x25a>
 8000ec4:	2301      	movs	r3, #1
 8000ec6:	4463      	add	r3, ip
 8000ec8:	015a      	lsls	r2, r3, #5
 8000eca:	d574      	bpl.n	8000fb6 <__aeabi_fsub+0x1b2>
 8000ecc:	3501      	adds	r5, #1
 8000ece:	2dff      	cmp	r5, #255	; 0xff
 8000ed0:	d065      	beq.n	8000f9e <__aeabi_fsub+0x19a>
 8000ed2:	2201      	movs	r2, #1
 8000ed4:	499a      	ldr	r1, [pc, #616]	; (8001140 <__aeabi_fsub+0x33c>)
 8000ed6:	401a      	ands	r2, r3
 8000ed8:	085b      	lsrs	r3, r3, #1
 8000eda:	400b      	ands	r3, r1
 8000edc:	4313      	orrs	r3, r2
 8000ede:	e7cb      	b.n	8000e78 <__aeabi_fsub+0x74>
 8000ee0:	2800      	cmp	r0, #0
 8000ee2:	d01f      	beq.n	8000f24 <__aeabi_fsub+0x120>
 8000ee4:	428c      	cmp	r4, r1
 8000ee6:	d022      	beq.n	8000f2e <__aeabi_fsub+0x12a>
 8000ee8:	002a      	movs	r2, r5
 8000eea:	3aff      	subs	r2, #255	; 0xff
 8000eec:	2a00      	cmp	r2, #0
 8000eee:	d035      	beq.n	8000f5c <__aeabi_fsub+0x158>
 8000ef0:	1b7a      	subs	r2, r7, r5
 8000ef2:	2d00      	cmp	r5, #0
 8000ef4:	d000      	beq.n	8000ef8 <__aeabi_fsub+0xf4>
 8000ef6:	e099      	b.n	800102c <__aeabi_fsub+0x228>
 8000ef8:	4663      	mov	r3, ip
 8000efa:	2b00      	cmp	r3, #0
 8000efc:	d100      	bne.n	8000f00 <__aeabi_fsub+0xfc>
 8000efe:	e0dd      	b.n	80010bc <__aeabi_fsub+0x2b8>
 8000f00:	1e53      	subs	r3, r2, #1
 8000f02:	2a01      	cmp	r2, #1
 8000f04:	d100      	bne.n	8000f08 <__aeabi_fsub+0x104>
 8000f06:	e105      	b.n	8001114 <__aeabi_fsub+0x310>
 8000f08:	2aff      	cmp	r2, #255	; 0xff
 8000f0a:	d06b      	beq.n	8000fe4 <__aeabi_fsub+0x1e0>
 8000f0c:	001a      	movs	r2, r3
 8000f0e:	e094      	b.n	800103a <__aeabi_fsub+0x236>
 8000f10:	2800      	cmp	r0, #0
 8000f12:	d073      	beq.n	8000ffc <__aeabi_fsub+0x1f8>
 8000f14:	1e51      	subs	r1, r2, #1
 8000f16:	2a01      	cmp	r2, #1
 8000f18:	d100      	bne.n	8000f1c <__aeabi_fsub+0x118>
 8000f1a:	e0df      	b.n	80010dc <__aeabi_fsub+0x2d8>
 8000f1c:	2aff      	cmp	r2, #255	; 0xff
 8000f1e:	d063      	beq.n	8000fe8 <__aeabi_fsub+0x1e4>
 8000f20:	000a      	movs	r2, r1
 8000f22:	e792      	b.n	8000e4a <__aeabi_fsub+0x46>
 8000f24:	2201      	movs	r2, #1
 8000f26:	4051      	eors	r1, r2
 8000f28:	42a1      	cmp	r1, r4
 8000f2a:	d000      	beq.n	8000f2e <__aeabi_fsub+0x12a>
 8000f2c:	e782      	b.n	8000e34 <__aeabi_fsub+0x30>
 8000f2e:	002a      	movs	r2, r5
 8000f30:	3aff      	subs	r2, #255	; 0xff
 8000f32:	2a00      	cmp	r2, #0
 8000f34:	d036      	beq.n	8000fa4 <__aeabi_fsub+0x1a0>
 8000f36:	1b7a      	subs	r2, r7, r5
 8000f38:	2d00      	cmp	r5, #0
 8000f3a:	d100      	bne.n	8000f3e <__aeabi_fsub+0x13a>
 8000f3c:	e0aa      	b.n	8001094 <__aeabi_fsub+0x290>
 8000f3e:	2fff      	cmp	r7, #255	; 0xff
 8000f40:	d100      	bne.n	8000f44 <__aeabi_fsub+0x140>
 8000f42:	e0da      	b.n	80010fa <__aeabi_fsub+0x2f6>
 8000f44:	2380      	movs	r3, #128	; 0x80
 8000f46:	4661      	mov	r1, ip
 8000f48:	04db      	lsls	r3, r3, #19
 8000f4a:	4319      	orrs	r1, r3
 8000f4c:	468c      	mov	ip, r1
 8000f4e:	2a1b      	cmp	r2, #27
 8000f50:	dc00      	bgt.n	8000f54 <__aeabi_fsub+0x150>
 8000f52:	e0d4      	b.n	80010fe <__aeabi_fsub+0x2fa>
 8000f54:	2301      	movs	r3, #1
 8000f56:	003d      	movs	r5, r7
 8000f58:	181b      	adds	r3, r3, r0
 8000f5a:	e7b5      	b.n	8000ec8 <__aeabi_fsub+0xc4>
 8000f5c:	27fe      	movs	r7, #254	; 0xfe
 8000f5e:	1c6a      	adds	r2, r5, #1
 8000f60:	4217      	tst	r7, r2
 8000f62:	d171      	bne.n	8001048 <__aeabi_fsub+0x244>
 8000f64:	2d00      	cmp	r5, #0
 8000f66:	d000      	beq.n	8000f6a <__aeabi_fsub+0x166>
 8000f68:	e09e      	b.n	80010a8 <__aeabi_fsub+0x2a4>
 8000f6a:	4663      	mov	r3, ip
 8000f6c:	2b00      	cmp	r3, #0
 8000f6e:	d100      	bne.n	8000f72 <__aeabi_fsub+0x16e>
 8000f70:	e0d5      	b.n	800111e <__aeabi_fsub+0x31a>
 8000f72:	2200      	movs	r2, #0
 8000f74:	2800      	cmp	r0, #0
 8000f76:	d100      	bne.n	8000f7a <__aeabi_fsub+0x176>
 8000f78:	e78f      	b.n	8000e9a <__aeabi_fsub+0x96>
 8000f7a:	1a1b      	subs	r3, r3, r0
 8000f7c:	015e      	lsls	r6, r3, #5
 8000f7e:	d400      	bmi.n	8000f82 <__aeabi_fsub+0x17e>
 8000f80:	e0d6      	b.n	8001130 <__aeabi_fsub+0x32c>
 8000f82:	4663      	mov	r3, ip
 8000f84:	000c      	movs	r4, r1
 8000f86:	1ac3      	subs	r3, r0, r3
 8000f88:	e776      	b.n	8000e78 <__aeabi_fsub+0x74>
 8000f8a:	2800      	cmp	r0, #0
 8000f8c:	d036      	beq.n	8000ffc <__aeabi_fsub+0x1f8>
 8000f8e:	1e51      	subs	r1, r2, #1
 8000f90:	2a01      	cmp	r2, #1
 8000f92:	d100      	bne.n	8000f96 <__aeabi_fsub+0x192>
 8000f94:	e09a      	b.n	80010cc <__aeabi_fsub+0x2c8>
 8000f96:	2aff      	cmp	r2, #255	; 0xff
 8000f98:	d026      	beq.n	8000fe8 <__aeabi_fsub+0x1e4>
 8000f9a:	000a      	movs	r2, r1
 8000f9c:	e78f      	b.n	8000ebe <__aeabi_fsub+0xba>
 8000f9e:	22ff      	movs	r2, #255	; 0xff
 8000fa0:	2600      	movs	r6, #0
 8000fa2:	e77a      	b.n	8000e9a <__aeabi_fsub+0x96>
 8000fa4:	27fe      	movs	r7, #254	; 0xfe
 8000fa6:	1c6a      	adds	r2, r5, #1
 8000fa8:	4217      	tst	r7, r2
 8000faa:	d062      	beq.n	8001072 <__aeabi_fsub+0x26e>
 8000fac:	2aff      	cmp	r2, #255	; 0xff
 8000fae:	d0f6      	beq.n	8000f9e <__aeabi_fsub+0x19a>
 8000fb0:	0015      	movs	r5, r2
 8000fb2:	4460      	add	r0, ip
 8000fb4:	0843      	lsrs	r3, r0, #1
 8000fb6:	075a      	lsls	r2, r3, #29
 8000fb8:	d000      	beq.n	8000fbc <__aeabi_fsub+0x1b8>
 8000fba:	e75f      	b.n	8000e7c <__aeabi_fsub+0x78>
 8000fbc:	08db      	lsrs	r3, r3, #3
 8000fbe:	2dff      	cmp	r5, #255	; 0xff
 8000fc0:	d012      	beq.n	8000fe8 <__aeabi_fsub+0x1e4>
 8000fc2:	025b      	lsls	r3, r3, #9
 8000fc4:	0a5e      	lsrs	r6, r3, #9
 8000fc6:	b2ea      	uxtb	r2, r5
 8000fc8:	e767      	b.n	8000e9a <__aeabi_fsub+0x96>
 8000fca:	4662      	mov	r2, ip
 8000fcc:	2a00      	cmp	r2, #0
 8000fce:	d100      	bne.n	8000fd2 <__aeabi_fsub+0x1ce>
 8000fd0:	e093      	b.n	80010fa <__aeabi_fsub+0x2f6>
 8000fd2:	2800      	cmp	r0, #0
 8000fd4:	d008      	beq.n	8000fe8 <__aeabi_fsub+0x1e4>
 8000fd6:	2280      	movs	r2, #128	; 0x80
 8000fd8:	03d2      	lsls	r2, r2, #15
 8000fda:	4213      	tst	r3, r2
 8000fdc:	d004      	beq.n	8000fe8 <__aeabi_fsub+0x1e4>
 8000fde:	4640      	mov	r0, r8
 8000fe0:	4210      	tst	r0, r2
 8000fe2:	d101      	bne.n	8000fe8 <__aeabi_fsub+0x1e4>
 8000fe4:	000c      	movs	r4, r1
 8000fe6:	4643      	mov	r3, r8
 8000fe8:	2b00      	cmp	r3, #0
 8000fea:	d0d8      	beq.n	8000f9e <__aeabi_fsub+0x19a>
 8000fec:	2680      	movs	r6, #128	; 0x80
 8000fee:	03f6      	lsls	r6, r6, #15
 8000ff0:	431e      	orrs	r6, r3
 8000ff2:	0276      	lsls	r6, r6, #9
 8000ff4:	22ff      	movs	r2, #255	; 0xff
 8000ff6:	0a76      	lsrs	r6, r6, #9
 8000ff8:	e74f      	b.n	8000e9a <__aeabi_fsub+0x96>
 8000ffa:	4643      	mov	r3, r8
 8000ffc:	0015      	movs	r5, r2
 8000ffe:	e7de      	b.n	8000fbe <__aeabi_fsub+0x1ba>
 8001000:	2220      	movs	r2, #32
 8001002:	1b40      	subs	r0, r0, r5
 8001004:	3001      	adds	r0, #1
 8001006:	1a12      	subs	r2, r2, r0
 8001008:	0019      	movs	r1, r3
 800100a:	4093      	lsls	r3, r2
 800100c:	40c1      	lsrs	r1, r0
 800100e:	1e5a      	subs	r2, r3, #1
 8001010:	4193      	sbcs	r3, r2
 8001012:	2500      	movs	r5, #0
 8001014:	430b      	orrs	r3, r1
 8001016:	e72f      	b.n	8000e78 <__aeabi_fsub+0x74>
 8001018:	2320      	movs	r3, #32
 800101a:	1a9b      	subs	r3, r3, r2
 800101c:	0001      	movs	r1, r0
 800101e:	4098      	lsls	r0, r3
 8001020:	0003      	movs	r3, r0
 8001022:	40d1      	lsrs	r1, r2
 8001024:	1e5a      	subs	r2, r3, #1
 8001026:	4193      	sbcs	r3, r2
 8001028:	430b      	orrs	r3, r1
 800102a:	e712      	b.n	8000e52 <__aeabi_fsub+0x4e>
 800102c:	2fff      	cmp	r7, #255	; 0xff
 800102e:	d0d9      	beq.n	8000fe4 <__aeabi_fsub+0x1e0>
 8001030:	2380      	movs	r3, #128	; 0x80
 8001032:	4664      	mov	r4, ip
 8001034:	04db      	lsls	r3, r3, #19
 8001036:	431c      	orrs	r4, r3
 8001038:	46a4      	mov	ip, r4
 800103a:	2a1b      	cmp	r2, #27
 800103c:	dd52      	ble.n	80010e4 <__aeabi_fsub+0x2e0>
 800103e:	2301      	movs	r3, #1
 8001040:	000c      	movs	r4, r1
 8001042:	003d      	movs	r5, r7
 8001044:	1ac3      	subs	r3, r0, r3
 8001046:	e706      	b.n	8000e56 <__aeabi_fsub+0x52>
 8001048:	4663      	mov	r3, ip
 800104a:	1a1e      	subs	r6, r3, r0
 800104c:	0173      	lsls	r3, r6, #5
 800104e:	d439      	bmi.n	80010c4 <__aeabi_fsub+0x2c0>
 8001050:	2e00      	cmp	r6, #0
 8001052:	d000      	beq.n	8001056 <__aeabi_fsub+0x252>
 8001054:	e704      	b.n	8000e60 <__aeabi_fsub+0x5c>
 8001056:	2400      	movs	r4, #0
 8001058:	2200      	movs	r2, #0
 800105a:	2600      	movs	r6, #0
 800105c:	e71d      	b.n	8000e9a <__aeabi_fsub+0x96>
 800105e:	2320      	movs	r3, #32
 8001060:	1a9b      	subs	r3, r3, r2
 8001062:	0001      	movs	r1, r0
 8001064:	4098      	lsls	r0, r3
 8001066:	0003      	movs	r3, r0
 8001068:	40d1      	lsrs	r1, r2
 800106a:	1e5a      	subs	r2, r3, #1
 800106c:	4193      	sbcs	r3, r2
 800106e:	430b      	orrs	r3, r1
 8001070:	e729      	b.n	8000ec6 <__aeabi_fsub+0xc2>
 8001072:	2d00      	cmp	r5, #0
 8001074:	d1a9      	bne.n	8000fca <__aeabi_fsub+0x1c6>
 8001076:	4663      	mov	r3, ip
 8001078:	2b00      	cmp	r3, #0
 800107a:	d056      	beq.n	800112a <__aeabi_fsub+0x326>
 800107c:	2200      	movs	r2, #0
 800107e:	2800      	cmp	r0, #0
 8001080:	d100      	bne.n	8001084 <__aeabi_fsub+0x280>
 8001082:	e70a      	b.n	8000e9a <__aeabi_fsub+0x96>
 8001084:	0003      	movs	r3, r0
 8001086:	4463      	add	r3, ip
 8001088:	015a      	lsls	r2, r3, #5
 800108a:	d594      	bpl.n	8000fb6 <__aeabi_fsub+0x1b2>
 800108c:	4a2b      	ldr	r2, [pc, #172]	; (800113c <__aeabi_fsub+0x338>)
 800108e:	3501      	adds	r5, #1
 8001090:	4013      	ands	r3, r2
 8001092:	e790      	b.n	8000fb6 <__aeabi_fsub+0x1b2>
 8001094:	4663      	mov	r3, ip
 8001096:	2b00      	cmp	r3, #0
 8001098:	d0af      	beq.n	8000ffa <__aeabi_fsub+0x1f6>
 800109a:	1e53      	subs	r3, r2, #1
 800109c:	2a01      	cmp	r2, #1
 800109e:	d015      	beq.n	80010cc <__aeabi_fsub+0x2c8>
 80010a0:	2aff      	cmp	r2, #255	; 0xff
 80010a2:	d02a      	beq.n	80010fa <__aeabi_fsub+0x2f6>
 80010a4:	001a      	movs	r2, r3
 80010a6:	e752      	b.n	8000f4e <__aeabi_fsub+0x14a>
 80010a8:	4662      	mov	r2, ip
 80010aa:	2a00      	cmp	r2, #0
 80010ac:	d191      	bne.n	8000fd2 <__aeabi_fsub+0x1ce>
 80010ae:	2800      	cmp	r0, #0
 80010b0:	d198      	bne.n	8000fe4 <__aeabi_fsub+0x1e0>
 80010b2:	2680      	movs	r6, #128	; 0x80
 80010b4:	2400      	movs	r4, #0
 80010b6:	22ff      	movs	r2, #255	; 0xff
 80010b8:	03f6      	lsls	r6, r6, #15
 80010ba:	e6ee      	b.n	8000e9a <__aeabi_fsub+0x96>
 80010bc:	000c      	movs	r4, r1
 80010be:	4643      	mov	r3, r8
 80010c0:	0015      	movs	r5, r2
 80010c2:	e77c      	b.n	8000fbe <__aeabi_fsub+0x1ba>
 80010c4:	4663      	mov	r3, ip
 80010c6:	000c      	movs	r4, r1
 80010c8:	1ac6      	subs	r6, r0, r3
 80010ca:	e6c9      	b.n	8000e60 <__aeabi_fsub+0x5c>
 80010cc:	0003      	movs	r3, r0
 80010ce:	4463      	add	r3, ip
 80010d0:	2501      	movs	r5, #1
 80010d2:	015a      	lsls	r2, r3, #5
 80010d4:	d400      	bmi.n	80010d8 <__aeabi_fsub+0x2d4>
 80010d6:	e76e      	b.n	8000fb6 <__aeabi_fsub+0x1b2>
 80010d8:	2502      	movs	r5, #2
 80010da:	e6fa      	b.n	8000ed2 <__aeabi_fsub+0xce>
 80010dc:	4663      	mov	r3, ip
 80010de:	2501      	movs	r5, #1
 80010e0:	1a1b      	subs	r3, r3, r0
 80010e2:	e6b8      	b.n	8000e56 <__aeabi_fsub+0x52>
 80010e4:	4664      	mov	r4, ip
 80010e6:	2320      	movs	r3, #32
 80010e8:	40d4      	lsrs	r4, r2
 80010ea:	1a9b      	subs	r3, r3, r2
 80010ec:	4662      	mov	r2, ip
 80010ee:	409a      	lsls	r2, r3
 80010f0:	0013      	movs	r3, r2
 80010f2:	1e5a      	subs	r2, r3, #1
 80010f4:	4193      	sbcs	r3, r2
 80010f6:	4323      	orrs	r3, r4
 80010f8:	e7a2      	b.n	8001040 <__aeabi_fsub+0x23c>
 80010fa:	4643      	mov	r3, r8
 80010fc:	e774      	b.n	8000fe8 <__aeabi_fsub+0x1e4>
 80010fe:	4661      	mov	r1, ip
 8001100:	2320      	movs	r3, #32
 8001102:	40d1      	lsrs	r1, r2
 8001104:	1a9b      	subs	r3, r3, r2
 8001106:	4662      	mov	r2, ip
 8001108:	409a      	lsls	r2, r3
 800110a:	0013      	movs	r3, r2
 800110c:	1e5a      	subs	r2, r3, #1
 800110e:	4193      	sbcs	r3, r2
 8001110:	430b      	orrs	r3, r1
 8001112:	e720      	b.n	8000f56 <__aeabi_fsub+0x152>
 8001114:	4663      	mov	r3, ip
 8001116:	000c      	movs	r4, r1
 8001118:	2501      	movs	r5, #1
 800111a:	1ac3      	subs	r3, r0, r3
 800111c:	e69b      	b.n	8000e56 <__aeabi_fsub+0x52>
 800111e:	2800      	cmp	r0, #0
 8001120:	d099      	beq.n	8001056 <__aeabi_fsub+0x252>
 8001122:	000c      	movs	r4, r1
 8001124:	4646      	mov	r6, r8
 8001126:	2200      	movs	r2, #0
 8001128:	e6b7      	b.n	8000e9a <__aeabi_fsub+0x96>
 800112a:	4646      	mov	r6, r8
 800112c:	2200      	movs	r2, #0
 800112e:	e6b4      	b.n	8000e9a <__aeabi_fsub+0x96>
 8001130:	2b00      	cmp	r3, #0
 8001132:	d000      	beq.n	8001136 <__aeabi_fsub+0x332>
 8001134:	e73f      	b.n	8000fb6 <__aeabi_fsub+0x1b2>
 8001136:	2400      	movs	r4, #0
 8001138:	2600      	movs	r6, #0
 800113a:	e6ae      	b.n	8000e9a <__aeabi_fsub+0x96>
 800113c:	fbffffff 	.word	0xfbffffff
 8001140:	7dffffff 	.word	0x7dffffff

08001144 <__aeabi_f2iz>:
 8001144:	0241      	lsls	r1, r0, #9
 8001146:	0042      	lsls	r2, r0, #1
 8001148:	0fc3      	lsrs	r3, r0, #31
 800114a:	0a49      	lsrs	r1, r1, #9
 800114c:	2000      	movs	r0, #0
 800114e:	0e12      	lsrs	r2, r2, #24
 8001150:	2a7e      	cmp	r2, #126	; 0x7e
 8001152:	dd03      	ble.n	800115c <__aeabi_f2iz+0x18>
 8001154:	2a9d      	cmp	r2, #157	; 0x9d
 8001156:	dd02      	ble.n	800115e <__aeabi_f2iz+0x1a>
 8001158:	4a09      	ldr	r2, [pc, #36]	; (8001180 <__aeabi_f2iz+0x3c>)
 800115a:	1898      	adds	r0, r3, r2
 800115c:	4770      	bx	lr
 800115e:	2080      	movs	r0, #128	; 0x80
 8001160:	0400      	lsls	r0, r0, #16
 8001162:	4301      	orrs	r1, r0
 8001164:	2a95      	cmp	r2, #149	; 0x95
 8001166:	dc07      	bgt.n	8001178 <__aeabi_f2iz+0x34>
 8001168:	2096      	movs	r0, #150	; 0x96
 800116a:	1a82      	subs	r2, r0, r2
 800116c:	40d1      	lsrs	r1, r2
 800116e:	4248      	negs	r0, r1
 8001170:	2b00      	cmp	r3, #0
 8001172:	d1f3      	bne.n	800115c <__aeabi_f2iz+0x18>
 8001174:	0008      	movs	r0, r1
 8001176:	e7f1      	b.n	800115c <__aeabi_f2iz+0x18>
 8001178:	3a96      	subs	r2, #150	; 0x96
 800117a:	4091      	lsls	r1, r2
 800117c:	e7f7      	b.n	800116e <__aeabi_f2iz+0x2a>
 800117e:	46c0      	nop			; (mov r8, r8)
 8001180:	7fffffff 	.word	0x7fffffff

08001184 <__aeabi_dadd>:
 8001184:	b5f0      	push	{r4, r5, r6, r7, lr}
 8001186:	464f      	mov	r7, r9
 8001188:	4646      	mov	r6, r8
 800118a:	46d6      	mov	lr, sl
 800118c:	0004      	movs	r4, r0
 800118e:	b5c0      	push	{r6, r7, lr}
 8001190:	001f      	movs	r7, r3
 8001192:	030b      	lsls	r3, r1, #12
 8001194:	0010      	movs	r0, r2
 8001196:	004e      	lsls	r6, r1, #1
 8001198:	0a5b      	lsrs	r3, r3, #9
 800119a:	0fcd      	lsrs	r5, r1, #31
 800119c:	0f61      	lsrs	r1, r4, #29
 800119e:	007a      	lsls	r2, r7, #1
 80011a0:	4319      	orrs	r1, r3
 80011a2:	00e3      	lsls	r3, r4, #3
 80011a4:	033c      	lsls	r4, r7, #12
 80011a6:	0fff      	lsrs	r7, r7, #31
 80011a8:	46bc      	mov	ip, r7
 80011aa:	0a64      	lsrs	r4, r4, #9
 80011ac:	0f47      	lsrs	r7, r0, #29
 80011ae:	4327      	orrs	r7, r4
 80011b0:	0d76      	lsrs	r6, r6, #21
 80011b2:	0d52      	lsrs	r2, r2, #21
 80011b4:	00c0      	lsls	r0, r0, #3
 80011b6:	46b9      	mov	r9, r7
 80011b8:	4680      	mov	r8, r0
 80011ba:	1ab7      	subs	r7, r6, r2
 80011bc:	4565      	cmp	r5, ip
 80011be:	d100      	bne.n	80011c2 <__aeabi_dadd+0x3e>
 80011c0:	e09b      	b.n	80012fa <__aeabi_dadd+0x176>
 80011c2:	2f00      	cmp	r7, #0
 80011c4:	dc00      	bgt.n	80011c8 <__aeabi_dadd+0x44>
 80011c6:	e084      	b.n	80012d2 <__aeabi_dadd+0x14e>
 80011c8:	2a00      	cmp	r2, #0
 80011ca:	d100      	bne.n	80011ce <__aeabi_dadd+0x4a>
 80011cc:	e0be      	b.n	800134c <__aeabi_dadd+0x1c8>
 80011ce:	4ac8      	ldr	r2, [pc, #800]	; (80014f0 <__aeabi_dadd+0x36c>)
 80011d0:	4296      	cmp	r6, r2
 80011d2:	d100      	bne.n	80011d6 <__aeabi_dadd+0x52>
 80011d4:	e124      	b.n	8001420 <__aeabi_dadd+0x29c>
 80011d6:	2280      	movs	r2, #128	; 0x80
 80011d8:	464c      	mov	r4, r9
 80011da:	0412      	lsls	r2, r2, #16
 80011dc:	4314      	orrs	r4, r2
 80011de:	46a1      	mov	r9, r4
 80011e0:	2f38      	cmp	r7, #56	; 0x38
 80011e2:	dd00      	ble.n	80011e6 <__aeabi_dadd+0x62>
 80011e4:	e167      	b.n	80014b6 <__aeabi_dadd+0x332>
 80011e6:	2f1f      	cmp	r7, #31
 80011e8:	dd00      	ble.n	80011ec <__aeabi_dadd+0x68>
 80011ea:	e1d6      	b.n	800159a <__aeabi_dadd+0x416>
 80011ec:	2220      	movs	r2, #32
 80011ee:	464c      	mov	r4, r9
 80011f0:	1bd2      	subs	r2, r2, r7
 80011f2:	4094      	lsls	r4, r2
 80011f4:	46a2      	mov	sl, r4
 80011f6:	4644      	mov	r4, r8
 80011f8:	40fc      	lsrs	r4, r7
 80011fa:	0020      	movs	r0, r4
 80011fc:	4654      	mov	r4, sl
 80011fe:	4304      	orrs	r4, r0
 8001200:	4640      	mov	r0, r8
 8001202:	4090      	lsls	r0, r2
 8001204:	1e42      	subs	r2, r0, #1
 8001206:	4190      	sbcs	r0, r2
 8001208:	464a      	mov	r2, r9
 800120a:	40fa      	lsrs	r2, r7
 800120c:	4304      	orrs	r4, r0
 800120e:	1a89      	subs	r1, r1, r2
 8001210:	1b1c      	subs	r4, r3, r4
 8001212:	42a3      	cmp	r3, r4
 8001214:	4192      	sbcs	r2, r2
 8001216:	4252      	negs	r2, r2
 8001218:	1a8b      	subs	r3, r1, r2
 800121a:	469a      	mov	sl, r3
 800121c:	4653      	mov	r3, sl
 800121e:	021b      	lsls	r3, r3, #8
 8001220:	d400      	bmi.n	8001224 <__aeabi_dadd+0xa0>
 8001222:	e0d4      	b.n	80013ce <__aeabi_dadd+0x24a>
 8001224:	4653      	mov	r3, sl
 8001226:	025a      	lsls	r2, r3, #9
 8001228:	0a53      	lsrs	r3, r2, #9
 800122a:	469a      	mov	sl, r3
 800122c:	4653      	mov	r3, sl
 800122e:	2b00      	cmp	r3, #0
 8001230:	d100      	bne.n	8001234 <__aeabi_dadd+0xb0>
 8001232:	e104      	b.n	800143e <__aeabi_dadd+0x2ba>
 8001234:	4650      	mov	r0, sl
 8001236:	f001 fa3d 	bl	80026b4 <__clzsi2>
 800123a:	0003      	movs	r3, r0
 800123c:	3b08      	subs	r3, #8
 800123e:	2220      	movs	r2, #32
 8001240:	0020      	movs	r0, r4
 8001242:	1ad2      	subs	r2, r2, r3
 8001244:	4651      	mov	r1, sl
 8001246:	40d0      	lsrs	r0, r2
 8001248:	4099      	lsls	r1, r3
 800124a:	0002      	movs	r2, r0
 800124c:	409c      	lsls	r4, r3
 800124e:	430a      	orrs	r2, r1
 8001250:	42b3      	cmp	r3, r6
 8001252:	da00      	bge.n	8001256 <__aeabi_dadd+0xd2>
 8001254:	e102      	b.n	800145c <__aeabi_dadd+0x2d8>
 8001256:	1b9b      	subs	r3, r3, r6
 8001258:	1c59      	adds	r1, r3, #1
 800125a:	291f      	cmp	r1, #31
 800125c:	dd00      	ble.n	8001260 <__aeabi_dadd+0xdc>
 800125e:	e0a7      	b.n	80013b0 <__aeabi_dadd+0x22c>
 8001260:	2320      	movs	r3, #32
 8001262:	0010      	movs	r0, r2
 8001264:	0026      	movs	r6, r4
 8001266:	1a5b      	subs	r3, r3, r1
 8001268:	409c      	lsls	r4, r3
 800126a:	4098      	lsls	r0, r3
 800126c:	40ce      	lsrs	r6, r1
 800126e:	40ca      	lsrs	r2, r1
 8001270:	1e63      	subs	r3, r4, #1
 8001272:	419c      	sbcs	r4, r3
 8001274:	4330      	orrs	r0, r6
 8001276:	4692      	mov	sl, r2
 8001278:	2600      	movs	r6, #0
 800127a:	4304      	orrs	r4, r0
 800127c:	0763      	lsls	r3, r4, #29
 800127e:	d009      	beq.n	8001294 <__aeabi_dadd+0x110>
 8001280:	230f      	movs	r3, #15
 8001282:	4023      	ands	r3, r4
 8001284:	2b04      	cmp	r3, #4
 8001286:	d005      	beq.n	8001294 <__aeabi_dadd+0x110>
 8001288:	1d23      	adds	r3, r4, #4
 800128a:	42a3      	cmp	r3, r4
 800128c:	41a4      	sbcs	r4, r4
 800128e:	4264      	negs	r4, r4
 8001290:	44a2      	add	sl, r4
 8001292:	001c      	movs	r4, r3
 8001294:	4653      	mov	r3, sl
 8001296:	021b      	lsls	r3, r3, #8
 8001298:	d400      	bmi.n	800129c <__aeabi_dadd+0x118>
 800129a:	e09b      	b.n	80013d4 <__aeabi_dadd+0x250>
 800129c:	4b94      	ldr	r3, [pc, #592]	; (80014f0 <__aeabi_dadd+0x36c>)
 800129e:	3601      	adds	r6, #1
 80012a0:	429e      	cmp	r6, r3
 80012a2:	d100      	bne.n	80012a6 <__aeabi_dadd+0x122>
 80012a4:	e0b8      	b.n	8001418 <__aeabi_dadd+0x294>
 80012a6:	4653      	mov	r3, sl
 80012a8:	4992      	ldr	r1, [pc, #584]	; (80014f4 <__aeabi_dadd+0x370>)
 80012aa:	08e4      	lsrs	r4, r4, #3
 80012ac:	400b      	ands	r3, r1
 80012ae:	0019      	movs	r1, r3
 80012b0:	075b      	lsls	r3, r3, #29
 80012b2:	4323      	orrs	r3, r4
 80012b4:	0572      	lsls	r2, r6, #21
 80012b6:	024c      	lsls	r4, r1, #9
 80012b8:	0b24      	lsrs	r4, r4, #12
 80012ba:	0d52      	lsrs	r2, r2, #21
 80012bc:	0512      	lsls	r2, r2, #20
 80012be:	07ed      	lsls	r5, r5, #31
 80012c0:	4322      	orrs	r2, r4
 80012c2:	432a      	orrs	r2, r5
 80012c4:	0018      	movs	r0, r3
 80012c6:	0011      	movs	r1, r2
 80012c8:	bce0      	pop	{r5, r6, r7}
 80012ca:	46ba      	mov	sl, r7
 80012cc:	46b1      	mov	r9, r6
 80012ce:	46a8      	mov	r8, r5
 80012d0:	bdf0      	pop	{r4, r5, r6, r7, pc}
 80012d2:	2f00      	cmp	r7, #0
 80012d4:	d048      	beq.n	8001368 <__aeabi_dadd+0x1e4>
 80012d6:	1b97      	subs	r7, r2, r6
 80012d8:	2e00      	cmp	r6, #0
 80012da:	d000      	beq.n	80012de <__aeabi_dadd+0x15a>
 80012dc:	e10e      	b.n	80014fc <__aeabi_dadd+0x378>
 80012de:	000c      	movs	r4, r1
 80012e0:	431c      	orrs	r4, r3
 80012e2:	d100      	bne.n	80012e6 <__aeabi_dadd+0x162>
 80012e4:	e1b7      	b.n	8001656 <__aeabi_dadd+0x4d2>
 80012e6:	1e7c      	subs	r4, r7, #1
 80012e8:	2f01      	cmp	r7, #1
 80012ea:	d100      	bne.n	80012ee <__aeabi_dadd+0x16a>
 80012ec:	e226      	b.n	800173c <__aeabi_dadd+0x5b8>
 80012ee:	4d80      	ldr	r5, [pc, #512]	; (80014f0 <__aeabi_dadd+0x36c>)
 80012f0:	42af      	cmp	r7, r5
 80012f2:	d100      	bne.n	80012f6 <__aeabi_dadd+0x172>
 80012f4:	e1d5      	b.n	80016a2 <__aeabi_dadd+0x51e>
 80012f6:	0027      	movs	r7, r4
 80012f8:	e107      	b.n	800150a <__aeabi_dadd+0x386>
 80012fa:	2f00      	cmp	r7, #0
 80012fc:	dc00      	bgt.n	8001300 <__aeabi_dadd+0x17c>
 80012fe:	e0b2      	b.n	8001466 <__aeabi_dadd+0x2e2>
 8001300:	2a00      	cmp	r2, #0
 8001302:	d047      	beq.n	8001394 <__aeabi_dadd+0x210>
 8001304:	4a7a      	ldr	r2, [pc, #488]	; (80014f0 <__aeabi_dadd+0x36c>)
 8001306:	4296      	cmp	r6, r2
 8001308:	d100      	bne.n	800130c <__aeabi_dadd+0x188>
 800130a:	e089      	b.n	8001420 <__aeabi_dadd+0x29c>
 800130c:	2280      	movs	r2, #128	; 0x80
 800130e:	464c      	mov	r4, r9
 8001310:	0412      	lsls	r2, r2, #16
 8001312:	4314      	orrs	r4, r2
 8001314:	46a1      	mov	r9, r4
 8001316:	2f38      	cmp	r7, #56	; 0x38
 8001318:	dc6b      	bgt.n	80013f2 <__aeabi_dadd+0x26e>
 800131a:	2f1f      	cmp	r7, #31
 800131c:	dc00      	bgt.n	8001320 <__aeabi_dadd+0x19c>
 800131e:	e16e      	b.n	80015fe <__aeabi_dadd+0x47a>
 8001320:	003a      	movs	r2, r7
 8001322:	4648      	mov	r0, r9
 8001324:	3a20      	subs	r2, #32
 8001326:	40d0      	lsrs	r0, r2
 8001328:	4684      	mov	ip, r0
 800132a:	2f20      	cmp	r7, #32
 800132c:	d007      	beq.n	800133e <__aeabi_dadd+0x1ba>
 800132e:	2240      	movs	r2, #64	; 0x40
 8001330:	4648      	mov	r0, r9
 8001332:	1bd2      	subs	r2, r2, r7
 8001334:	4090      	lsls	r0, r2
 8001336:	0002      	movs	r2, r0
 8001338:	4640      	mov	r0, r8
 800133a:	4310      	orrs	r0, r2
 800133c:	4680      	mov	r8, r0
 800133e:	4640      	mov	r0, r8
 8001340:	1e42      	subs	r2, r0, #1
 8001342:	4190      	sbcs	r0, r2
 8001344:	4662      	mov	r2, ip
 8001346:	0004      	movs	r4, r0
 8001348:	4314      	orrs	r4, r2
 800134a:	e057      	b.n	80013fc <__aeabi_dadd+0x278>
 800134c:	464a      	mov	r2, r9
 800134e:	4302      	orrs	r2, r0
 8001350:	d100      	bne.n	8001354 <__aeabi_dadd+0x1d0>
 8001352:	e103      	b.n	800155c <__aeabi_dadd+0x3d8>
 8001354:	1e7a      	subs	r2, r7, #1
 8001356:	2f01      	cmp	r7, #1
 8001358:	d100      	bne.n	800135c <__aeabi_dadd+0x1d8>
 800135a:	e193      	b.n	8001684 <__aeabi_dadd+0x500>
 800135c:	4c64      	ldr	r4, [pc, #400]	; (80014f0 <__aeabi_dadd+0x36c>)
 800135e:	42a7      	cmp	r7, r4
 8001360:	d100      	bne.n	8001364 <__aeabi_dadd+0x1e0>
 8001362:	e18a      	b.n	800167a <__aeabi_dadd+0x4f6>
 8001364:	0017      	movs	r7, r2
 8001366:	e73b      	b.n	80011e0 <__aeabi_dadd+0x5c>
 8001368:	4c63      	ldr	r4, [pc, #396]	; (80014f8 <__aeabi_dadd+0x374>)
 800136a:	1c72      	adds	r2, r6, #1
 800136c:	4222      	tst	r2, r4
 800136e:	d000      	beq.n	8001372 <__aeabi_dadd+0x1ee>
 8001370:	e0e0      	b.n	8001534 <__aeabi_dadd+0x3b0>
 8001372:	000a      	movs	r2, r1
 8001374:	431a      	orrs	r2, r3
 8001376:	2e00      	cmp	r6, #0
 8001378:	d000      	beq.n	800137c <__aeabi_dadd+0x1f8>
 800137a:	e174      	b.n	8001666 <__aeabi_dadd+0x4e2>
 800137c:	2a00      	cmp	r2, #0
 800137e:	d100      	bne.n	8001382 <__aeabi_dadd+0x1fe>
 8001380:	e1d0      	b.n	8001724 <__aeabi_dadd+0x5a0>
 8001382:	464a      	mov	r2, r9
 8001384:	4302      	orrs	r2, r0
 8001386:	d000      	beq.n	800138a <__aeabi_dadd+0x206>
 8001388:	e1e3      	b.n	8001752 <__aeabi_dadd+0x5ce>
 800138a:	074a      	lsls	r2, r1, #29
 800138c:	08db      	lsrs	r3, r3, #3
 800138e:	4313      	orrs	r3, r2
 8001390:	08c9      	lsrs	r1, r1, #3
 8001392:	e029      	b.n	80013e8 <__aeabi_dadd+0x264>
 8001394:	464a      	mov	r2, r9
 8001396:	4302      	orrs	r2, r0
 8001398:	d100      	bne.n	800139c <__aeabi_dadd+0x218>
 800139a:	e17d      	b.n	8001698 <__aeabi_dadd+0x514>
 800139c:	1e7a      	subs	r2, r7, #1
 800139e:	2f01      	cmp	r7, #1
 80013a0:	d100      	bne.n	80013a4 <__aeabi_dadd+0x220>
 80013a2:	e0e0      	b.n	8001566 <__aeabi_dadd+0x3e2>
 80013a4:	4c52      	ldr	r4, [pc, #328]	; (80014f0 <__aeabi_dadd+0x36c>)
 80013a6:	42a7      	cmp	r7, r4
 80013a8:	d100      	bne.n	80013ac <__aeabi_dadd+0x228>
 80013aa:	e166      	b.n	800167a <__aeabi_dadd+0x4f6>
 80013ac:	0017      	movs	r7, r2
 80013ae:	e7b2      	b.n	8001316 <__aeabi_dadd+0x192>
 80013b0:	0010      	movs	r0, r2
 80013b2:	3b1f      	subs	r3, #31
 80013b4:	40d8      	lsrs	r0, r3
 80013b6:	2920      	cmp	r1, #32
 80013b8:	d003      	beq.n	80013c2 <__aeabi_dadd+0x23e>
 80013ba:	2340      	movs	r3, #64	; 0x40
 80013bc:	1a5b      	subs	r3, r3, r1
 80013be:	409a      	lsls	r2, r3
 80013c0:	4314      	orrs	r4, r2
 80013c2:	1e63      	subs	r3, r4, #1
 80013c4:	419c      	sbcs	r4, r3
 80013c6:	2300      	movs	r3, #0
 80013c8:	2600      	movs	r6, #0
 80013ca:	469a      	mov	sl, r3
 80013cc:	4304      	orrs	r4, r0
 80013ce:	0763      	lsls	r3, r4, #29
 80013d0:	d000      	beq.n	80013d4 <__aeabi_dadd+0x250>
 80013d2:	e755      	b.n	8001280 <__aeabi_dadd+0xfc>
 80013d4:	4652      	mov	r2, sl
 80013d6:	08e3      	lsrs	r3, r4, #3
 80013d8:	0752      	lsls	r2, r2, #29
 80013da:	4313      	orrs	r3, r2
 80013dc:	4652      	mov	r2, sl
 80013de:	0037      	movs	r7, r6
 80013e0:	08d1      	lsrs	r1, r2, #3
 80013e2:	4a43      	ldr	r2, [pc, #268]	; (80014f0 <__aeabi_dadd+0x36c>)
 80013e4:	4297      	cmp	r7, r2
 80013e6:	d01f      	beq.n	8001428 <__aeabi_dadd+0x2a4>
 80013e8:	0309      	lsls	r1, r1, #12
 80013ea:	057a      	lsls	r2, r7, #21
 80013ec:	0b0c      	lsrs	r4, r1, #12
 80013ee:	0d52      	lsrs	r2, r2, #21
 80013f0:	e764      	b.n	80012bc <__aeabi_dadd+0x138>
 80013f2:	4642      	mov	r2, r8
 80013f4:	464c      	mov	r4, r9
 80013f6:	4314      	orrs	r4, r2
 80013f8:	1e62      	subs	r2, r4, #1
 80013fa:	4194      	sbcs	r4, r2
 80013fc:	18e4      	adds	r4, r4, r3
 80013fe:	429c      	cmp	r4, r3
 8001400:	4192      	sbcs	r2, r2
 8001402:	4252      	negs	r2, r2
 8001404:	4692      	mov	sl, r2
 8001406:	448a      	add	sl, r1
 8001408:	4653      	mov	r3, sl
 800140a:	021b      	lsls	r3, r3, #8
 800140c:	d5df      	bpl.n	80013ce <__aeabi_dadd+0x24a>
 800140e:	4b38      	ldr	r3, [pc, #224]	; (80014f0 <__aeabi_dadd+0x36c>)
 8001410:	3601      	adds	r6, #1
 8001412:	429e      	cmp	r6, r3
 8001414:	d000      	beq.n	8001418 <__aeabi_dadd+0x294>
 8001416:	e0b3      	b.n	8001580 <__aeabi_dadd+0x3fc>
 8001418:	0032      	movs	r2, r6
 800141a:	2400      	movs	r4, #0
 800141c:	2300      	movs	r3, #0
 800141e:	e74d      	b.n	80012bc <__aeabi_dadd+0x138>
 8001420:	074a      	lsls	r2, r1, #29
 8001422:	08db      	lsrs	r3, r3, #3
 8001424:	4313      	orrs	r3, r2
 8001426:	08c9      	lsrs	r1, r1, #3
 8001428:	001a      	movs	r2, r3
 800142a:	430a      	orrs	r2, r1
 800142c:	d100      	bne.n	8001430 <__aeabi_dadd+0x2ac>
 800142e:	e200      	b.n	8001832 <__aeabi_dadd+0x6ae>
 8001430:	2480      	movs	r4, #128	; 0x80
 8001432:	0324      	lsls	r4, r4, #12
 8001434:	430c      	orrs	r4, r1
 8001436:	0324      	lsls	r4, r4, #12
 8001438:	4a2d      	ldr	r2, [pc, #180]	; (80014f0 <__aeabi_dadd+0x36c>)
 800143a:	0b24      	lsrs	r4, r4, #12
 800143c:	e73e      	b.n	80012bc <__aeabi_dadd+0x138>
 800143e:	0020      	movs	r0, r4
 8001440:	f001 f938 	bl	80026b4 <__clzsi2>
 8001444:	0003      	movs	r3, r0
 8001446:	3318      	adds	r3, #24
 8001448:	2b1f      	cmp	r3, #31
 800144a:	dc00      	bgt.n	800144e <__aeabi_dadd+0x2ca>
 800144c:	e6f7      	b.n	800123e <__aeabi_dadd+0xba>
 800144e:	0022      	movs	r2, r4
 8001450:	3808      	subs	r0, #8
 8001452:	4082      	lsls	r2, r0
 8001454:	2400      	movs	r4, #0
 8001456:	42b3      	cmp	r3, r6
 8001458:	db00      	blt.n	800145c <__aeabi_dadd+0x2d8>
 800145a:	e6fc      	b.n	8001256 <__aeabi_dadd+0xd2>
 800145c:	1af6      	subs	r6, r6, r3
 800145e:	4b25      	ldr	r3, [pc, #148]	; (80014f4 <__aeabi_dadd+0x370>)
 8001460:	401a      	ands	r2, r3
 8001462:	4692      	mov	sl, r2
 8001464:	e70a      	b.n	800127c <__aeabi_dadd+0xf8>
 8001466:	2f00      	cmp	r7, #0
 8001468:	d02b      	beq.n	80014c2 <__aeabi_dadd+0x33e>
 800146a:	1b97      	subs	r7, r2, r6
 800146c:	2e00      	cmp	r6, #0
 800146e:	d100      	bne.n	8001472 <__aeabi_dadd+0x2ee>
 8001470:	e0b8      	b.n	80015e4 <__aeabi_dadd+0x460>
 8001472:	4c1f      	ldr	r4, [pc, #124]	; (80014f0 <__aeabi_dadd+0x36c>)
 8001474:	42a2      	cmp	r2, r4
 8001476:	d100      	bne.n	800147a <__aeabi_dadd+0x2f6>
 8001478:	e11c      	b.n	80016b4 <__aeabi_dadd+0x530>
 800147a:	2480      	movs	r4, #128	; 0x80
 800147c:	0424      	lsls	r4, r4, #16
 800147e:	4321      	orrs	r1, r4
 8001480:	2f38      	cmp	r7, #56	; 0x38
 8001482:	dd00      	ble.n	8001486 <__aeabi_dadd+0x302>
 8001484:	e11e      	b.n	80016c4 <__aeabi_dadd+0x540>
 8001486:	2f1f      	cmp	r7, #31
 8001488:	dd00      	ble.n	800148c <__aeabi_dadd+0x308>
 800148a:	e19e      	b.n	80017ca <__aeabi_dadd+0x646>
 800148c:	2620      	movs	r6, #32
 800148e:	000c      	movs	r4, r1
 8001490:	1bf6      	subs	r6, r6, r7
 8001492:	0018      	movs	r0, r3
 8001494:	40b3      	lsls	r3, r6
 8001496:	40b4      	lsls	r4, r6
 8001498:	40f8      	lsrs	r0, r7
 800149a:	1e5e      	subs	r6, r3, #1
 800149c:	41b3      	sbcs	r3, r6
 800149e:	40f9      	lsrs	r1, r7
 80014a0:	4304      	orrs	r4, r0
 80014a2:	431c      	orrs	r4, r3
 80014a4:	4489      	add	r9, r1
 80014a6:	4444      	add	r4, r8
 80014a8:	4544      	cmp	r4, r8
 80014aa:	419b      	sbcs	r3, r3
 80014ac:	425b      	negs	r3, r3
 80014ae:	444b      	add	r3, r9
 80014b0:	469a      	mov	sl, r3
 80014b2:	0016      	movs	r6, r2
 80014b4:	e7a8      	b.n	8001408 <__aeabi_dadd+0x284>
 80014b6:	4642      	mov	r2, r8
 80014b8:	464c      	mov	r4, r9
 80014ba:	4314      	orrs	r4, r2
 80014bc:	1e62      	subs	r2, r4, #1
 80014be:	4194      	sbcs	r4, r2
 80014c0:	e6a6      	b.n	8001210 <__aeabi_dadd+0x8c>
 80014c2:	4c0d      	ldr	r4, [pc, #52]	; (80014f8 <__aeabi_dadd+0x374>)
 80014c4:	1c72      	adds	r2, r6, #1
 80014c6:	4222      	tst	r2, r4
 80014c8:	d000      	beq.n	80014cc <__aeabi_dadd+0x348>
 80014ca:	e0a8      	b.n	800161e <__aeabi_dadd+0x49a>
 80014cc:	000a      	movs	r2, r1
 80014ce:	431a      	orrs	r2, r3
 80014d0:	2e00      	cmp	r6, #0
 80014d2:	d000      	beq.n	80014d6 <__aeabi_dadd+0x352>
 80014d4:	e10a      	b.n	80016ec <__aeabi_dadd+0x568>
 80014d6:	2a00      	cmp	r2, #0
 80014d8:	d100      	bne.n	80014dc <__aeabi_dadd+0x358>
 80014da:	e15e      	b.n	800179a <__aeabi_dadd+0x616>
 80014dc:	464a      	mov	r2, r9
 80014de:	4302      	orrs	r2, r0
 80014e0:	d000      	beq.n	80014e4 <__aeabi_dadd+0x360>
 80014e2:	e161      	b.n	80017a8 <__aeabi_dadd+0x624>
 80014e4:	074a      	lsls	r2, r1, #29
 80014e6:	08db      	lsrs	r3, r3, #3
 80014e8:	4313      	orrs	r3, r2
 80014ea:	08c9      	lsrs	r1, r1, #3
 80014ec:	e77c      	b.n	80013e8 <__aeabi_dadd+0x264>
 80014ee:	46c0      	nop			; (mov r8, r8)
 80014f0:	000007ff 	.word	0x000007ff
 80014f4:	ff7fffff 	.word	0xff7fffff
 80014f8:	000007fe 	.word	0x000007fe
 80014fc:	4ccf      	ldr	r4, [pc, #828]	; (800183c <__aeabi_dadd+0x6b8>)
 80014fe:	42a2      	cmp	r2, r4
 8001500:	d100      	bne.n	8001504 <__aeabi_dadd+0x380>
 8001502:	e0ce      	b.n	80016a2 <__aeabi_dadd+0x51e>
 8001504:	2480      	movs	r4, #128	; 0x80
 8001506:	0424      	lsls	r4, r4, #16
 8001508:	4321      	orrs	r1, r4
 800150a:	2f38      	cmp	r7, #56	; 0x38
 800150c:	dc5b      	bgt.n	80015c6 <__aeabi_dadd+0x442>
 800150e:	2f1f      	cmp	r7, #31
 8001510:	dd00      	ble.n	8001514 <__aeabi_dadd+0x390>
 8001512:	e0dc      	b.n	80016ce <__aeabi_dadd+0x54a>
 8001514:	2520      	movs	r5, #32
 8001516:	000c      	movs	r4, r1
 8001518:	1bed      	subs	r5, r5, r7
 800151a:	001e      	movs	r6, r3
 800151c:	40ab      	lsls	r3, r5
 800151e:	40ac      	lsls	r4, r5
 8001520:	40fe      	lsrs	r6, r7
 8001522:	1e5d      	subs	r5, r3, #1
 8001524:	41ab      	sbcs	r3, r5
 8001526:	4334      	orrs	r4, r6
 8001528:	40f9      	lsrs	r1, r7
 800152a:	431c      	orrs	r4, r3
 800152c:	464b      	mov	r3, r9
 800152e:	1a5b      	subs	r3, r3, r1
 8001530:	4699      	mov	r9, r3
 8001532:	e04c      	b.n	80015ce <__aeabi_dadd+0x44a>
 8001534:	464a      	mov	r2, r9
 8001536:	1a1c      	subs	r4, r3, r0
 8001538:	1a88      	subs	r0, r1, r2
 800153a:	42a3      	cmp	r3, r4
 800153c:	4192      	sbcs	r2, r2
 800153e:	4252      	negs	r2, r2
 8001540:	4692      	mov	sl, r2
 8001542:	0002      	movs	r2, r0
 8001544:	4650      	mov	r0, sl
 8001546:	1a12      	subs	r2, r2, r0
 8001548:	4692      	mov	sl, r2
 800154a:	0212      	lsls	r2, r2, #8
 800154c:	d478      	bmi.n	8001640 <__aeabi_dadd+0x4bc>
 800154e:	4653      	mov	r3, sl
 8001550:	4323      	orrs	r3, r4
 8001552:	d000      	beq.n	8001556 <__aeabi_dadd+0x3d2>
 8001554:	e66a      	b.n	800122c <__aeabi_dadd+0xa8>
 8001556:	2100      	movs	r1, #0
 8001558:	2500      	movs	r5, #0
 800155a:	e745      	b.n	80013e8 <__aeabi_dadd+0x264>
 800155c:	074a      	lsls	r2, r1, #29
 800155e:	08db      	lsrs	r3, r3, #3
 8001560:	4313      	orrs	r3, r2
 8001562:	08c9      	lsrs	r1, r1, #3
 8001564:	e73d      	b.n	80013e2 <__aeabi_dadd+0x25e>
 8001566:	181c      	adds	r4, r3, r0
 8001568:	429c      	cmp	r4, r3
 800156a:	419b      	sbcs	r3, r3
 800156c:	4449      	add	r1, r9
 800156e:	468a      	mov	sl, r1
 8001570:	425b      	negs	r3, r3
 8001572:	449a      	add	sl, r3
 8001574:	4653      	mov	r3, sl
 8001576:	2601      	movs	r6, #1
 8001578:	021b      	lsls	r3, r3, #8
 800157a:	d400      	bmi.n	800157e <__aeabi_dadd+0x3fa>
 800157c:	e727      	b.n	80013ce <__aeabi_dadd+0x24a>
 800157e:	2602      	movs	r6, #2
 8001580:	4652      	mov	r2, sl
 8001582:	4baf      	ldr	r3, [pc, #700]	; (8001840 <__aeabi_dadd+0x6bc>)
 8001584:	2101      	movs	r1, #1
 8001586:	401a      	ands	r2, r3
 8001588:	0013      	movs	r3, r2
 800158a:	4021      	ands	r1, r4
 800158c:	0862      	lsrs	r2, r4, #1
 800158e:	430a      	orrs	r2, r1
 8001590:	07dc      	lsls	r4, r3, #31
 8001592:	085b      	lsrs	r3, r3, #1
 8001594:	469a      	mov	sl, r3
 8001596:	4314      	orrs	r4, r2
 8001598:	e670      	b.n	800127c <__aeabi_dadd+0xf8>
 800159a:	003a      	movs	r2, r7
 800159c:	464c      	mov	r4, r9
 800159e:	3a20      	subs	r2, #32
 80015a0:	40d4      	lsrs	r4, r2
 80015a2:	46a4      	mov	ip, r4
 80015a4:	2f20      	cmp	r7, #32
 80015a6:	d007      	beq.n	80015b8 <__aeabi_dadd+0x434>
 80015a8:	2240      	movs	r2, #64	; 0x40
 80015aa:	4648      	mov	r0, r9
 80015ac:	1bd2      	subs	r2, r2, r7
 80015ae:	4090      	lsls	r0, r2
 80015b0:	0002      	movs	r2, r0
 80015b2:	4640      	mov	r0, r8
 80015b4:	4310      	orrs	r0, r2
 80015b6:	4680      	mov	r8, r0
 80015b8:	4640      	mov	r0, r8
 80015ba:	1e42      	subs	r2, r0, #1
 80015bc:	4190      	sbcs	r0, r2
 80015be:	4662      	mov	r2, ip
 80015c0:	0004      	movs	r4, r0
 80015c2:	4314      	orrs	r4, r2
 80015c4:	e624      	b.n	8001210 <__aeabi_dadd+0x8c>
 80015c6:	4319      	orrs	r1, r3
 80015c8:	000c      	movs	r4, r1
 80015ca:	1e63      	subs	r3, r4, #1
 80015cc:	419c      	sbcs	r4, r3
 80015ce:	4643      	mov	r3, r8
 80015d0:	1b1c      	subs	r4, r3, r4
 80015d2:	45a0      	cmp	r8, r4
 80015d4:	419b      	sbcs	r3, r3
 80015d6:	4649      	mov	r1, r9
 80015d8:	425b      	negs	r3, r3
 80015da:	1acb      	subs	r3, r1, r3
 80015dc:	469a      	mov	sl, r3
 80015de:	4665      	mov	r5, ip
 80015e0:	0016      	movs	r6, r2
 80015e2:	e61b      	b.n	800121c <__aeabi_dadd+0x98>
 80015e4:	000c      	movs	r4, r1
 80015e6:	431c      	orrs	r4, r3
 80015e8:	d100      	bne.n	80015ec <__aeabi_dadd+0x468>
 80015ea:	e0c7      	b.n	800177c <__aeabi_dadd+0x5f8>
 80015ec:	1e7c      	subs	r4, r7, #1
 80015ee:	2f01      	cmp	r7, #1
 80015f0:	d100      	bne.n	80015f4 <__aeabi_dadd+0x470>
 80015f2:	e0f9      	b.n	80017e8 <__aeabi_dadd+0x664>
 80015f4:	4e91      	ldr	r6, [pc, #580]	; (800183c <__aeabi_dadd+0x6b8>)
 80015f6:	42b7      	cmp	r7, r6
 80015f8:	d05c      	beq.n	80016b4 <__aeabi_dadd+0x530>
 80015fa:	0027      	movs	r7, r4
 80015fc:	e740      	b.n	8001480 <__aeabi_dadd+0x2fc>
 80015fe:	2220      	movs	r2, #32
 8001600:	464c      	mov	r4, r9
 8001602:	4640      	mov	r0, r8
 8001604:	1bd2      	subs	r2, r2, r7
 8001606:	4094      	lsls	r4, r2
 8001608:	40f8      	lsrs	r0, r7
 800160a:	4304      	orrs	r4, r0
 800160c:	4640      	mov	r0, r8
 800160e:	4090      	lsls	r0, r2
 8001610:	1e42      	subs	r2, r0, #1
 8001612:	4190      	sbcs	r0, r2
 8001614:	464a      	mov	r2, r9
 8001616:	40fa      	lsrs	r2, r7
 8001618:	4304      	orrs	r4, r0
 800161a:	1889      	adds	r1, r1, r2
 800161c:	e6ee      	b.n	80013fc <__aeabi_dadd+0x278>
 800161e:	4c87      	ldr	r4, [pc, #540]	; (800183c <__aeabi_dadd+0x6b8>)
 8001620:	42a2      	cmp	r2, r4
 8001622:	d100      	bne.n	8001626 <__aeabi_dadd+0x4a2>
 8001624:	e6f9      	b.n	800141a <__aeabi_dadd+0x296>
 8001626:	1818      	adds	r0, r3, r0
 8001628:	4298      	cmp	r0, r3
 800162a:	419b      	sbcs	r3, r3
 800162c:	4449      	add	r1, r9
 800162e:	425b      	negs	r3, r3
 8001630:	18cb      	adds	r3, r1, r3
 8001632:	07dc      	lsls	r4, r3, #31
 8001634:	0840      	lsrs	r0, r0, #1
 8001636:	085b      	lsrs	r3, r3, #1
 8001638:	469a      	mov	sl, r3
 800163a:	0016      	movs	r6, r2
 800163c:	4304      	orrs	r4, r0
 800163e:	e6c6      	b.n	80013ce <__aeabi_dadd+0x24a>
 8001640:	4642      	mov	r2, r8
 8001642:	1ad4      	subs	r4, r2, r3
 8001644:	45a0      	cmp	r8, r4
 8001646:	4180      	sbcs	r0, r0
 8001648:	464b      	mov	r3, r9
 800164a:	4240      	negs	r0, r0
 800164c:	1a59      	subs	r1, r3, r1
 800164e:	1a0b      	subs	r3, r1, r0
 8001650:	469a      	mov	sl, r3
 8001652:	4665      	mov	r5, ip
 8001654:	e5ea      	b.n	800122c <__aeabi_dadd+0xa8>
 8001656:	464b      	mov	r3, r9
 8001658:	464a      	mov	r2, r9
 800165a:	08c0      	lsrs	r0, r0, #3
 800165c:	075b      	lsls	r3, r3, #29
 800165e:	4665      	mov	r5, ip
 8001660:	4303      	orrs	r3, r0
 8001662:	08d1      	lsrs	r1, r2, #3
 8001664:	e6bd      	b.n	80013e2 <__aeabi_dadd+0x25e>
 8001666:	2a00      	cmp	r2, #0
 8001668:	d000      	beq.n	800166c <__aeabi_dadd+0x4e8>
 800166a:	e08e      	b.n	800178a <__aeabi_dadd+0x606>
 800166c:	464b      	mov	r3, r9
 800166e:	4303      	orrs	r3, r0
 8001670:	d117      	bne.n	80016a2 <__aeabi_dadd+0x51e>
 8001672:	2180      	movs	r1, #128	; 0x80
 8001674:	2500      	movs	r5, #0
 8001676:	0309      	lsls	r1, r1, #12
 8001678:	e6da      	b.n	8001430 <__aeabi_dadd+0x2ac>
 800167a:	074a      	lsls	r2, r1, #29
 800167c:	08db      	lsrs	r3, r3, #3
 800167e:	4313      	orrs	r3, r2
 8001680:	08c9      	lsrs	r1, r1, #3
 8001682:	e6d1      	b.n	8001428 <__aeabi_dadd+0x2a4>
 8001684:	1a1c      	subs	r4, r3, r0
 8001686:	464a      	mov	r2, r9
 8001688:	42a3      	cmp	r3, r4
 800168a:	419b      	sbcs	r3, r3
 800168c:	1a89      	subs	r1, r1, r2
 800168e:	425b      	negs	r3, r3
 8001690:	1acb      	subs	r3, r1, r3
 8001692:	469a      	mov	sl, r3
 8001694:	2601      	movs	r6, #1
 8001696:	e5c1      	b.n	800121c <__aeabi_dadd+0x98>
 8001698:	074a      	lsls	r2, r1, #29
 800169a:	08db      	lsrs	r3, r3, #3
 800169c:	4313      	orrs	r3, r2
 800169e:	08c9      	lsrs	r1, r1, #3
 80016a0:	e69f      	b.n	80013e2 <__aeabi_dadd+0x25e>
 80016a2:	4643      	mov	r3, r8
 80016a4:	08d8      	lsrs	r0, r3, #3
 80016a6:	464b      	mov	r3, r9
 80016a8:	464a      	mov	r2, r9
 80016aa:	075b      	lsls	r3, r3, #29
 80016ac:	4665      	mov	r5, ip
 80016ae:	4303      	orrs	r3, r0
 80016b0:	08d1      	lsrs	r1, r2, #3
 80016b2:	e6b9      	b.n	8001428 <__aeabi_dadd+0x2a4>
 80016b4:	4643      	mov	r3, r8
 80016b6:	08d8      	lsrs	r0, r3, #3
 80016b8:	464b      	mov	r3, r9
 80016ba:	464a      	mov	r2, r9
 80016bc:	075b      	lsls	r3, r3, #29
 80016be:	4303      	orrs	r3, r0
 80016c0:	08d1      	lsrs	r1, r2, #3
 80016c2:	e6b1      	b.n	8001428 <__aeabi_dadd+0x2a4>
 80016c4:	4319      	orrs	r1, r3
 80016c6:	000c      	movs	r4, r1
 80016c8:	1e63      	subs	r3, r4, #1
 80016ca:	419c      	sbcs	r4, r3
 80016cc:	e6eb      	b.n	80014a6 <__aeabi_dadd+0x322>
 80016ce:	003c      	movs	r4, r7
 80016d0:	000d      	movs	r5, r1
 80016d2:	3c20      	subs	r4, #32
 80016d4:	40e5      	lsrs	r5, r4
 80016d6:	2f20      	cmp	r7, #32
 80016d8:	d003      	beq.n	80016e2 <__aeabi_dadd+0x55e>
 80016da:	2440      	movs	r4, #64	; 0x40
 80016dc:	1be4      	subs	r4, r4, r7
 80016de:	40a1      	lsls	r1, r4
 80016e0:	430b      	orrs	r3, r1
 80016e2:	001c      	movs	r4, r3
 80016e4:	1e63      	subs	r3, r4, #1
 80016e6:	419c      	sbcs	r4, r3
 80016e8:	432c      	orrs	r4, r5
 80016ea:	e770      	b.n	80015ce <__aeabi_dadd+0x44a>
 80016ec:	2a00      	cmp	r2, #0
 80016ee:	d0e1      	beq.n	80016b4 <__aeabi_dadd+0x530>
 80016f0:	464a      	mov	r2, r9
 80016f2:	4302      	orrs	r2, r0
 80016f4:	d0c1      	beq.n	800167a <__aeabi_dadd+0x4f6>
 80016f6:	074a      	lsls	r2, r1, #29
 80016f8:	08db      	lsrs	r3, r3, #3
 80016fa:	4313      	orrs	r3, r2
 80016fc:	2280      	movs	r2, #128	; 0x80
 80016fe:	08c9      	lsrs	r1, r1, #3
 8001700:	0312      	lsls	r2, r2, #12
 8001702:	4211      	tst	r1, r2
 8001704:	d008      	beq.n	8001718 <__aeabi_dadd+0x594>
 8001706:	4648      	mov	r0, r9
 8001708:	08c4      	lsrs	r4, r0, #3
 800170a:	4214      	tst	r4, r2
 800170c:	d104      	bne.n	8001718 <__aeabi_dadd+0x594>
 800170e:	4643      	mov	r3, r8
 8001710:	0021      	movs	r1, r4
 8001712:	08db      	lsrs	r3, r3, #3
 8001714:	0742      	lsls	r2, r0, #29
 8001716:	4313      	orrs	r3, r2
 8001718:	0f5a      	lsrs	r2, r3, #29
 800171a:	00db      	lsls	r3, r3, #3
 800171c:	0752      	lsls	r2, r2, #29
 800171e:	08db      	lsrs	r3, r3, #3
 8001720:	4313      	orrs	r3, r2
 8001722:	e681      	b.n	8001428 <__aeabi_dadd+0x2a4>
 8001724:	464b      	mov	r3, r9
 8001726:	4303      	orrs	r3, r0
 8001728:	d100      	bne.n	800172c <__aeabi_dadd+0x5a8>
 800172a:	e714      	b.n	8001556 <__aeabi_dadd+0x3d2>
 800172c:	464b      	mov	r3, r9
 800172e:	464a      	mov	r2, r9
 8001730:	08c0      	lsrs	r0, r0, #3
 8001732:	075b      	lsls	r3, r3, #29
 8001734:	4665      	mov	r5, ip
 8001736:	4303      	orrs	r3, r0
 8001738:	08d1      	lsrs	r1, r2, #3
 800173a:	e655      	b.n	80013e8 <__aeabi_dadd+0x264>
 800173c:	1ac4      	subs	r4, r0, r3
 800173e:	45a0      	cmp	r8, r4
 8001740:	4180      	sbcs	r0, r0
 8001742:	464b      	mov	r3, r9
 8001744:	4240      	negs	r0, r0
 8001746:	1a59      	subs	r1, r3, r1
 8001748:	1a0b      	subs	r3, r1, r0
 800174a:	469a      	mov	sl, r3
 800174c:	4665      	mov	r5, ip
 800174e:	2601      	movs	r6, #1
 8001750:	e564      	b.n	800121c <__aeabi_dadd+0x98>
 8001752:	1a1c      	subs	r4, r3, r0
 8001754:	464a      	mov	r2, r9
 8001756:	42a3      	cmp	r3, r4
 8001758:	4180      	sbcs	r0, r0
 800175a:	1a8a      	subs	r2, r1, r2
 800175c:	4240      	negs	r0, r0
 800175e:	1a12      	subs	r2, r2, r0
 8001760:	4692      	mov	sl, r2
 8001762:	0212      	lsls	r2, r2, #8
 8001764:	d549      	bpl.n	80017fa <__aeabi_dadd+0x676>
 8001766:	4642      	mov	r2, r8
 8001768:	1ad4      	subs	r4, r2, r3
 800176a:	45a0      	cmp	r8, r4
 800176c:	4180      	sbcs	r0, r0
 800176e:	464b      	mov	r3, r9
 8001770:	4240      	negs	r0, r0
 8001772:	1a59      	subs	r1, r3, r1
 8001774:	1a0b      	subs	r3, r1, r0
 8001776:	469a      	mov	sl, r3
 8001778:	4665      	mov	r5, ip
 800177a:	e57f      	b.n	800127c <__aeabi_dadd+0xf8>
 800177c:	464b      	mov	r3, r9
 800177e:	464a      	mov	r2, r9
 8001780:	08c0      	lsrs	r0, r0, #3
 8001782:	075b      	lsls	r3, r3, #29
 8001784:	4303      	orrs	r3, r0
 8001786:	08d1      	lsrs	r1, r2, #3
 8001788:	e62b      	b.n	80013e2 <__aeabi_dadd+0x25e>
 800178a:	464a      	mov	r2, r9
 800178c:	08db      	lsrs	r3, r3, #3
 800178e:	4302      	orrs	r2, r0
 8001790:	d138      	bne.n	8001804 <__aeabi_dadd+0x680>
 8001792:	074a      	lsls	r2, r1, #29
 8001794:	4313      	orrs	r3, r2
 8001796:	08c9      	lsrs	r1, r1, #3
 8001798:	e646      	b.n	8001428 <__aeabi_dadd+0x2a4>
 800179a:	464b      	mov	r3, r9
 800179c:	464a      	mov	r2, r9
 800179e:	08c0      	lsrs	r0, r0, #3
 80017a0:	075b      	lsls	r3, r3, #29
 80017a2:	4303      	orrs	r3, r0
 80017a4:	08d1      	lsrs	r1, r2, #3
 80017a6:	e61f      	b.n	80013e8 <__aeabi_dadd+0x264>
 80017a8:	181c      	adds	r4, r3, r0
 80017aa:	429c      	cmp	r4, r3
 80017ac:	419b      	sbcs	r3, r3
 80017ae:	4449      	add	r1, r9
 80017b0:	468a      	mov	sl, r1
 80017b2:	425b      	negs	r3, r3
 80017b4:	449a      	add	sl, r3
 80017b6:	4653      	mov	r3, sl
 80017b8:	021b      	lsls	r3, r3, #8
 80017ba:	d400      	bmi.n	80017be <__aeabi_dadd+0x63a>
 80017bc:	e607      	b.n	80013ce <__aeabi_dadd+0x24a>
 80017be:	4652      	mov	r2, sl
 80017c0:	4b1f      	ldr	r3, [pc, #124]	; (8001840 <__aeabi_dadd+0x6bc>)
 80017c2:	2601      	movs	r6, #1
 80017c4:	401a      	ands	r2, r3
 80017c6:	4692      	mov	sl, r2
 80017c8:	e601      	b.n	80013ce <__aeabi_dadd+0x24a>
 80017ca:	003c      	movs	r4, r7
 80017cc:	000e      	movs	r6, r1
 80017ce:	3c20      	subs	r4, #32
 80017d0:	40e6      	lsrs	r6, r4
 80017d2:	2f20      	cmp	r7, #32
 80017d4:	d003      	beq.n	80017de <__aeabi_dadd+0x65a>
 80017d6:	2440      	movs	r4, #64	; 0x40
 80017d8:	1be4      	subs	r4, r4, r7
 80017da:	40a1      	lsls	r1, r4
 80017dc:	430b      	orrs	r3, r1
 80017de:	001c      	movs	r4, r3
 80017e0:	1e63      	subs	r3, r4, #1
 80017e2:	419c      	sbcs	r4, r3
 80017e4:	4334      	orrs	r4, r6
 80017e6:	e65e      	b.n	80014a6 <__aeabi_dadd+0x322>
 80017e8:	4443      	add	r3, r8
 80017ea:	4283      	cmp	r3, r0
 80017ec:	4180      	sbcs	r0, r0
 80017ee:	4449      	add	r1, r9
 80017f0:	468a      	mov	sl, r1
 80017f2:	4240      	negs	r0, r0
 80017f4:	001c      	movs	r4, r3
 80017f6:	4482      	add	sl, r0
 80017f8:	e6bc      	b.n	8001574 <__aeabi_dadd+0x3f0>
 80017fa:	4653      	mov	r3, sl
 80017fc:	4323      	orrs	r3, r4
 80017fe:	d100      	bne.n	8001802 <__aeabi_dadd+0x67e>
 8001800:	e6a9      	b.n	8001556 <__aeabi_dadd+0x3d2>
 8001802:	e5e4      	b.n	80013ce <__aeabi_dadd+0x24a>
 8001804:	074a      	lsls	r2, r1, #29
 8001806:	4313      	orrs	r3, r2
 8001808:	2280      	movs	r2, #128	; 0x80
 800180a:	08c9      	lsrs	r1, r1, #3
 800180c:	0312      	lsls	r2, r2, #12
 800180e:	4211      	tst	r1, r2
 8001810:	d009      	beq.n	8001826 <__aeabi_dadd+0x6a2>
 8001812:	4648      	mov	r0, r9
 8001814:	08c4      	lsrs	r4, r0, #3
 8001816:	4214      	tst	r4, r2
 8001818:	d105      	bne.n	8001826 <__aeabi_dadd+0x6a2>
 800181a:	4643      	mov	r3, r8
 800181c:	4665      	mov	r5, ip
 800181e:	0021      	movs	r1, r4
 8001820:	08db      	lsrs	r3, r3, #3
 8001822:	0742      	lsls	r2, r0, #29
 8001824:	4313      	orrs	r3, r2
 8001826:	0f5a      	lsrs	r2, r3, #29
 8001828:	00db      	lsls	r3, r3, #3
 800182a:	08db      	lsrs	r3, r3, #3
 800182c:	0752      	lsls	r2, r2, #29
 800182e:	4313      	orrs	r3, r2
 8001830:	e5fa      	b.n	8001428 <__aeabi_dadd+0x2a4>
 8001832:	2300      	movs	r3, #0
 8001834:	4a01      	ldr	r2, [pc, #4]	; (800183c <__aeabi_dadd+0x6b8>)
 8001836:	001c      	movs	r4, r3
 8001838:	e540      	b.n	80012bc <__aeabi_dadd+0x138>
 800183a:	46c0      	nop			; (mov r8, r8)
 800183c:	000007ff 	.word	0x000007ff
 8001840:	ff7fffff 	.word	0xff7fffff

08001844 <__aeabi_dmul>:
 8001844:	b5f0      	push	{r4, r5, r6, r7, lr}
 8001846:	4645      	mov	r5, r8
 8001848:	46de      	mov	lr, fp
 800184a:	4657      	mov	r7, sl
 800184c:	464e      	mov	r6, r9
 800184e:	b5e0      	push	{r5, r6, r7, lr}
 8001850:	001f      	movs	r7, r3
 8001852:	030b      	lsls	r3, r1, #12
 8001854:	0b1b      	lsrs	r3, r3, #12
 8001856:	469b      	mov	fp, r3
 8001858:	004d      	lsls	r5, r1, #1
 800185a:	0fcb      	lsrs	r3, r1, #31
 800185c:	0004      	movs	r4, r0
 800185e:	4691      	mov	r9, r2
 8001860:	4698      	mov	r8, r3
 8001862:	b087      	sub	sp, #28
 8001864:	0d6d      	lsrs	r5, r5, #21
 8001866:	d100      	bne.n	800186a <__aeabi_dmul+0x26>
 8001868:	e1cd      	b.n	8001c06 <__aeabi_dmul+0x3c2>
 800186a:	4bce      	ldr	r3, [pc, #824]	; (8001ba4 <__aeabi_dmul+0x360>)
 800186c:	429d      	cmp	r5, r3
 800186e:	d100      	bne.n	8001872 <__aeabi_dmul+0x2e>
 8001870:	e1e9      	b.n	8001c46 <__aeabi_dmul+0x402>
 8001872:	465a      	mov	r2, fp
 8001874:	0f43      	lsrs	r3, r0, #29
 8001876:	00d2      	lsls	r2, r2, #3
 8001878:	4313      	orrs	r3, r2
 800187a:	2280      	movs	r2, #128	; 0x80
 800187c:	0412      	lsls	r2, r2, #16
 800187e:	431a      	orrs	r2, r3
 8001880:	00c3      	lsls	r3, r0, #3
 8001882:	469a      	mov	sl, r3
 8001884:	4bc8      	ldr	r3, [pc, #800]	; (8001ba8 <__aeabi_dmul+0x364>)
 8001886:	4693      	mov	fp, r2
 8001888:	469c      	mov	ip, r3
 800188a:	2300      	movs	r3, #0
 800188c:	2600      	movs	r6, #0
 800188e:	4465      	add	r5, ip
 8001890:	9300      	str	r3, [sp, #0]
 8001892:	033c      	lsls	r4, r7, #12
 8001894:	007b      	lsls	r3, r7, #1
 8001896:	4648      	mov	r0, r9
 8001898:	0b24      	lsrs	r4, r4, #12
 800189a:	0d5b      	lsrs	r3, r3, #21
 800189c:	0fff      	lsrs	r7, r7, #31
 800189e:	2b00      	cmp	r3, #0
 80018a0:	d100      	bne.n	80018a4 <__aeabi_dmul+0x60>
 80018a2:	e189      	b.n	8001bb8 <__aeabi_dmul+0x374>
 80018a4:	4abf      	ldr	r2, [pc, #764]	; (8001ba4 <__aeabi_dmul+0x360>)
 80018a6:	4293      	cmp	r3, r2
 80018a8:	d019      	beq.n	80018de <__aeabi_dmul+0x9a>
 80018aa:	0f42      	lsrs	r2, r0, #29
 80018ac:	00e4      	lsls	r4, r4, #3
 80018ae:	4322      	orrs	r2, r4
 80018b0:	2480      	movs	r4, #128	; 0x80
 80018b2:	0424      	lsls	r4, r4, #16
 80018b4:	4314      	orrs	r4, r2
 80018b6:	4abc      	ldr	r2, [pc, #752]	; (8001ba8 <__aeabi_dmul+0x364>)
 80018b8:	2100      	movs	r1, #0
 80018ba:	4694      	mov	ip, r2
 80018bc:	4642      	mov	r2, r8
 80018be:	4463      	add	r3, ip
 80018c0:	195b      	adds	r3, r3, r5
 80018c2:	9301      	str	r3, [sp, #4]
 80018c4:	9b01      	ldr	r3, [sp, #4]
 80018c6:	407a      	eors	r2, r7
 80018c8:	3301      	adds	r3, #1
 80018ca:	00c0      	lsls	r0, r0, #3
 80018cc:	b2d2      	uxtb	r2, r2
 80018ce:	9302      	str	r3, [sp, #8]
 80018d0:	2e0a      	cmp	r6, #10
 80018d2:	dd1c      	ble.n	800190e <__aeabi_dmul+0xca>
 80018d4:	003a      	movs	r2, r7
 80018d6:	2e0b      	cmp	r6, #11
 80018d8:	d05e      	beq.n	8001998 <__aeabi_dmul+0x154>
 80018da:	4647      	mov	r7, r8
 80018dc:	e056      	b.n	800198c <__aeabi_dmul+0x148>
 80018de:	4649      	mov	r1, r9
 80018e0:	4bb0      	ldr	r3, [pc, #704]	; (8001ba4 <__aeabi_dmul+0x360>)
 80018e2:	4321      	orrs	r1, r4
 80018e4:	18eb      	adds	r3, r5, r3
 80018e6:	9301      	str	r3, [sp, #4]
 80018e8:	2900      	cmp	r1, #0
 80018ea:	d12a      	bne.n	8001942 <__aeabi_dmul+0xfe>
 80018ec:	2080      	movs	r0, #128	; 0x80
 80018ee:	2202      	movs	r2, #2
 80018f0:	0100      	lsls	r0, r0, #4
 80018f2:	002b      	movs	r3, r5
 80018f4:	4684      	mov	ip, r0
 80018f6:	4316      	orrs	r6, r2
 80018f8:	4642      	mov	r2, r8
 80018fa:	4463      	add	r3, ip
 80018fc:	407a      	eors	r2, r7
 80018fe:	b2d2      	uxtb	r2, r2
 8001900:	9302      	str	r3, [sp, #8]
 8001902:	2e0a      	cmp	r6, #10
 8001904:	dd00      	ble.n	8001908 <__aeabi_dmul+0xc4>
 8001906:	e231      	b.n	8001d6c <__aeabi_dmul+0x528>
 8001908:	2000      	movs	r0, #0
 800190a:	2400      	movs	r4, #0
 800190c:	2102      	movs	r1, #2
 800190e:	2e02      	cmp	r6, #2
 8001910:	dc26      	bgt.n	8001960 <__aeabi_dmul+0x11c>
 8001912:	3e01      	subs	r6, #1
 8001914:	2e01      	cmp	r6, #1
 8001916:	d852      	bhi.n	80019be <__aeabi_dmul+0x17a>
 8001918:	2902      	cmp	r1, #2
 800191a:	d04c      	beq.n	80019b6 <__aeabi_dmul+0x172>
 800191c:	2901      	cmp	r1, #1
 800191e:	d000      	beq.n	8001922 <__aeabi_dmul+0xde>
 8001920:	e118      	b.n	8001b54 <__aeabi_dmul+0x310>
 8001922:	2300      	movs	r3, #0
 8001924:	2400      	movs	r4, #0
 8001926:	2500      	movs	r5, #0
 8001928:	051b      	lsls	r3, r3, #20
 800192a:	4323      	orrs	r3, r4
 800192c:	07d2      	lsls	r2, r2, #31
 800192e:	4313      	orrs	r3, r2
 8001930:	0028      	movs	r0, r5
 8001932:	0019      	movs	r1, r3
 8001934:	b007      	add	sp, #28
 8001936:	bcf0      	pop	{r4, r5, r6, r7}
 8001938:	46bb      	mov	fp, r7
 800193a:	46b2      	mov	sl, r6
 800193c:	46a9      	mov	r9, r5
 800193e:	46a0      	mov	r8, r4
 8001940:	bdf0      	pop	{r4, r5, r6, r7, pc}
 8001942:	2180      	movs	r1, #128	; 0x80
 8001944:	2203      	movs	r2, #3
 8001946:	0109      	lsls	r1, r1, #4
 8001948:	002b      	movs	r3, r5
 800194a:	468c      	mov	ip, r1
 800194c:	4316      	orrs	r6, r2
 800194e:	4642      	mov	r2, r8
 8001950:	4463      	add	r3, ip
 8001952:	407a      	eors	r2, r7
 8001954:	b2d2      	uxtb	r2, r2
 8001956:	9302      	str	r3, [sp, #8]
 8001958:	2e0a      	cmp	r6, #10
 800195a:	dd00      	ble.n	800195e <__aeabi_dmul+0x11a>
 800195c:	e228      	b.n	8001db0 <__aeabi_dmul+0x56c>
 800195e:	2103      	movs	r1, #3
 8001960:	2501      	movs	r5, #1
 8001962:	40b5      	lsls	r5, r6
 8001964:	46ac      	mov	ip, r5
 8001966:	26a6      	movs	r6, #166	; 0xa6
 8001968:	4663      	mov	r3, ip
 800196a:	00f6      	lsls	r6, r6, #3
 800196c:	4035      	ands	r5, r6
 800196e:	4233      	tst	r3, r6
 8001970:	d10b      	bne.n	800198a <__aeabi_dmul+0x146>
 8001972:	2690      	movs	r6, #144	; 0x90
 8001974:	00b6      	lsls	r6, r6, #2
 8001976:	4233      	tst	r3, r6
 8001978:	d118      	bne.n	80019ac <__aeabi_dmul+0x168>
 800197a:	3eb9      	subs	r6, #185	; 0xb9
 800197c:	3eff      	subs	r6, #255	; 0xff
 800197e:	421e      	tst	r6, r3
 8001980:	d01d      	beq.n	80019be <__aeabi_dmul+0x17a>
 8001982:	46a3      	mov	fp, r4
 8001984:	4682      	mov	sl, r0
 8001986:	9100      	str	r1, [sp, #0]
 8001988:	e000      	b.n	800198c <__aeabi_dmul+0x148>
 800198a:	0017      	movs	r7, r2
 800198c:	9900      	ldr	r1, [sp, #0]
 800198e:	003a      	movs	r2, r7
 8001990:	2902      	cmp	r1, #2
 8001992:	d010      	beq.n	80019b6 <__aeabi_dmul+0x172>
 8001994:	465c      	mov	r4, fp
 8001996:	4650      	mov	r0, sl
 8001998:	2903      	cmp	r1, #3
 800199a:	d1bf      	bne.n	800191c <__aeabi_dmul+0xd8>
 800199c:	2380      	movs	r3, #128	; 0x80
 800199e:	031b      	lsls	r3, r3, #12
 80019a0:	431c      	orrs	r4, r3
 80019a2:	0324      	lsls	r4, r4, #12
 80019a4:	0005      	movs	r5, r0
 80019a6:	4b7f      	ldr	r3, [pc, #508]	; (8001ba4 <__aeabi_dmul+0x360>)
 80019a8:	0b24      	lsrs	r4, r4, #12
 80019aa:	e7bd      	b.n	8001928 <__aeabi_dmul+0xe4>
 80019ac:	2480      	movs	r4, #128	; 0x80
 80019ae:	2200      	movs	r2, #0
 80019b0:	4b7c      	ldr	r3, [pc, #496]	; (8001ba4 <__aeabi_dmul+0x360>)
 80019b2:	0324      	lsls	r4, r4, #12
 80019b4:	e7b8      	b.n	8001928 <__aeabi_dmul+0xe4>
 80019b6:	2400      	movs	r4, #0
 80019b8:	2500      	movs	r5, #0
 80019ba:	4b7a      	ldr	r3, [pc, #488]	; (8001ba4 <__aeabi_dmul+0x360>)
 80019bc:	e7b4      	b.n	8001928 <__aeabi_dmul+0xe4>
 80019be:	4653      	mov	r3, sl
 80019c0:	041e      	lsls	r6, r3, #16
 80019c2:	0c36      	lsrs	r6, r6, #16
 80019c4:	0c1f      	lsrs	r7, r3, #16
 80019c6:	0033      	movs	r3, r6
 80019c8:	0c01      	lsrs	r1, r0, #16
 80019ca:	0400      	lsls	r0, r0, #16
 80019cc:	0c00      	lsrs	r0, r0, #16
 80019ce:	4343      	muls	r3, r0
 80019d0:	4698      	mov	r8, r3
 80019d2:	0003      	movs	r3, r0
 80019d4:	437b      	muls	r3, r7
 80019d6:	4699      	mov	r9, r3
 80019d8:	0033      	movs	r3, r6
 80019da:	434b      	muls	r3, r1
 80019dc:	469c      	mov	ip, r3
 80019de:	4643      	mov	r3, r8
 80019e0:	000d      	movs	r5, r1
 80019e2:	0c1b      	lsrs	r3, r3, #16
 80019e4:	469a      	mov	sl, r3
 80019e6:	437d      	muls	r5, r7
 80019e8:	44cc      	add	ip, r9
 80019ea:	44d4      	add	ip, sl
 80019ec:	9500      	str	r5, [sp, #0]
 80019ee:	45e1      	cmp	r9, ip
 80019f0:	d904      	bls.n	80019fc <__aeabi_dmul+0x1b8>
 80019f2:	2380      	movs	r3, #128	; 0x80
 80019f4:	025b      	lsls	r3, r3, #9
 80019f6:	4699      	mov	r9, r3
 80019f8:	444d      	add	r5, r9
 80019fa:	9500      	str	r5, [sp, #0]
 80019fc:	4663      	mov	r3, ip
 80019fe:	0c1b      	lsrs	r3, r3, #16
 8001a00:	001d      	movs	r5, r3
 8001a02:	4663      	mov	r3, ip
 8001a04:	041b      	lsls	r3, r3, #16
 8001a06:	469c      	mov	ip, r3
 8001a08:	4643      	mov	r3, r8
 8001a0a:	041b      	lsls	r3, r3, #16
 8001a0c:	0c1b      	lsrs	r3, r3, #16
 8001a0e:	4698      	mov	r8, r3
 8001a10:	4663      	mov	r3, ip
 8001a12:	4443      	add	r3, r8
 8001a14:	9303      	str	r3, [sp, #12]
 8001a16:	0c23      	lsrs	r3, r4, #16
 8001a18:	4698      	mov	r8, r3
 8001a1a:	0033      	movs	r3, r6
 8001a1c:	0424      	lsls	r4, r4, #16
 8001a1e:	0c24      	lsrs	r4, r4, #16
 8001a20:	4363      	muls	r3, r4
 8001a22:	469c      	mov	ip, r3
 8001a24:	0023      	movs	r3, r4
 8001a26:	437b      	muls	r3, r7
 8001a28:	4699      	mov	r9, r3
 8001a2a:	4643      	mov	r3, r8
 8001a2c:	435e      	muls	r6, r3
 8001a2e:	435f      	muls	r7, r3
 8001a30:	444e      	add	r6, r9
 8001a32:	4663      	mov	r3, ip
 8001a34:	46b2      	mov	sl, r6
 8001a36:	0c1e      	lsrs	r6, r3, #16
 8001a38:	4456      	add	r6, sl
 8001a3a:	45b1      	cmp	r9, r6
 8001a3c:	d903      	bls.n	8001a46 <__aeabi_dmul+0x202>
 8001a3e:	2380      	movs	r3, #128	; 0x80
 8001a40:	025b      	lsls	r3, r3, #9
 8001a42:	4699      	mov	r9, r3
 8001a44:	444f      	add	r7, r9
 8001a46:	0c33      	lsrs	r3, r6, #16
 8001a48:	4699      	mov	r9, r3
 8001a4a:	003b      	movs	r3, r7
 8001a4c:	444b      	add	r3, r9
 8001a4e:	9305      	str	r3, [sp, #20]
 8001a50:	4663      	mov	r3, ip
 8001a52:	46ac      	mov	ip, r5
 8001a54:	041f      	lsls	r7, r3, #16
 8001a56:	0c3f      	lsrs	r7, r7, #16
 8001a58:	0436      	lsls	r6, r6, #16
 8001a5a:	19f6      	adds	r6, r6, r7
 8001a5c:	44b4      	add	ip, r6
 8001a5e:	4663      	mov	r3, ip
 8001a60:	9304      	str	r3, [sp, #16]
 8001a62:	465b      	mov	r3, fp
 8001a64:	0c1b      	lsrs	r3, r3, #16
 8001a66:	469c      	mov	ip, r3
 8001a68:	465b      	mov	r3, fp
 8001a6a:	041f      	lsls	r7, r3, #16
 8001a6c:	0c3f      	lsrs	r7, r7, #16
 8001a6e:	003b      	movs	r3, r7
 8001a70:	4343      	muls	r3, r0
 8001a72:	4699      	mov	r9, r3
 8001a74:	4663      	mov	r3, ip
 8001a76:	4343      	muls	r3, r0
 8001a78:	469a      	mov	sl, r3
 8001a7a:	464b      	mov	r3, r9
 8001a7c:	4660      	mov	r0, ip
 8001a7e:	0c1b      	lsrs	r3, r3, #16
 8001a80:	469b      	mov	fp, r3
 8001a82:	4348      	muls	r0, r1
 8001a84:	4379      	muls	r1, r7
 8001a86:	4451      	add	r1, sl
 8001a88:	4459      	add	r1, fp
 8001a8a:	458a      	cmp	sl, r1
 8001a8c:	d903      	bls.n	8001a96 <__aeabi_dmul+0x252>
 8001a8e:	2380      	movs	r3, #128	; 0x80
 8001a90:	025b      	lsls	r3, r3, #9
 8001a92:	469a      	mov	sl, r3
 8001a94:	4450      	add	r0, sl
 8001a96:	0c0b      	lsrs	r3, r1, #16
 8001a98:	469a      	mov	sl, r3
 8001a9a:	464b      	mov	r3, r9
 8001a9c:	041b      	lsls	r3, r3, #16
 8001a9e:	0c1b      	lsrs	r3, r3, #16
 8001aa0:	4699      	mov	r9, r3
 8001aa2:	003b      	movs	r3, r7
 8001aa4:	4363      	muls	r3, r4
 8001aa6:	0409      	lsls	r1, r1, #16
 8001aa8:	4645      	mov	r5, r8
 8001aaa:	4449      	add	r1, r9
 8001aac:	4699      	mov	r9, r3
 8001aae:	4663      	mov	r3, ip
 8001ab0:	435c      	muls	r4, r3
 8001ab2:	436b      	muls	r3, r5
 8001ab4:	469c      	mov	ip, r3
 8001ab6:	464b      	mov	r3, r9
 8001ab8:	0c1b      	lsrs	r3, r3, #16
 8001aba:	4698      	mov	r8, r3
 8001abc:	436f      	muls	r7, r5
 8001abe:	193f      	adds	r7, r7, r4
 8001ac0:	4447      	add	r7, r8
 8001ac2:	4450      	add	r0, sl
 8001ac4:	42bc      	cmp	r4, r7
 8001ac6:	d903      	bls.n	8001ad0 <__aeabi_dmul+0x28c>
 8001ac8:	2380      	movs	r3, #128	; 0x80
 8001aca:	025b      	lsls	r3, r3, #9
 8001acc:	4698      	mov	r8, r3
 8001ace:	44c4      	add	ip, r8
 8001ad0:	9b04      	ldr	r3, [sp, #16]
 8001ad2:	9d00      	ldr	r5, [sp, #0]
 8001ad4:	4698      	mov	r8, r3
 8001ad6:	4445      	add	r5, r8
 8001ad8:	42b5      	cmp	r5, r6
 8001ada:	41b6      	sbcs	r6, r6
 8001adc:	4273      	negs	r3, r6
 8001ade:	4698      	mov	r8, r3
 8001ae0:	464b      	mov	r3, r9
 8001ae2:	041e      	lsls	r6, r3, #16
 8001ae4:	9b05      	ldr	r3, [sp, #20]
 8001ae6:	043c      	lsls	r4, r7, #16
 8001ae8:	4699      	mov	r9, r3
 8001aea:	0c36      	lsrs	r6, r6, #16
 8001aec:	19a4      	adds	r4, r4, r6
 8001aee:	444c      	add	r4, r9
 8001af0:	46a1      	mov	r9, r4
 8001af2:	4683      	mov	fp, r0
 8001af4:	186e      	adds	r6, r5, r1
 8001af6:	44c1      	add	r9, r8
 8001af8:	428e      	cmp	r6, r1
 8001afa:	4189      	sbcs	r1, r1
 8001afc:	44cb      	add	fp, r9
 8001afe:	465d      	mov	r5, fp
 8001b00:	4249      	negs	r1, r1
 8001b02:	186d      	adds	r5, r5, r1
 8001b04:	429c      	cmp	r4, r3
 8001b06:	41a4      	sbcs	r4, r4
 8001b08:	45c1      	cmp	r9, r8
 8001b0a:	419b      	sbcs	r3, r3
 8001b0c:	4583      	cmp	fp, r0
 8001b0e:	4180      	sbcs	r0, r0
 8001b10:	428d      	cmp	r5, r1
 8001b12:	4189      	sbcs	r1, r1
 8001b14:	425b      	negs	r3, r3
 8001b16:	4264      	negs	r4, r4
 8001b18:	431c      	orrs	r4, r3
 8001b1a:	4240      	negs	r0, r0
 8001b1c:	9b03      	ldr	r3, [sp, #12]
 8001b1e:	4249      	negs	r1, r1
 8001b20:	4301      	orrs	r1, r0
 8001b22:	0270      	lsls	r0, r6, #9
 8001b24:	0c3f      	lsrs	r7, r7, #16
 8001b26:	4318      	orrs	r0, r3
 8001b28:	19e4      	adds	r4, r4, r7
 8001b2a:	1e47      	subs	r7, r0, #1
 8001b2c:	41b8      	sbcs	r0, r7
 8001b2e:	1864      	adds	r4, r4, r1
 8001b30:	4464      	add	r4, ip
 8001b32:	0df6      	lsrs	r6, r6, #23
 8001b34:	0261      	lsls	r1, r4, #9
 8001b36:	4330      	orrs	r0, r6
 8001b38:	0dec      	lsrs	r4, r5, #23
 8001b3a:	026e      	lsls	r6, r5, #9
 8001b3c:	430c      	orrs	r4, r1
 8001b3e:	4330      	orrs	r0, r6
 8001b40:	01c9      	lsls	r1, r1, #7
 8001b42:	d400      	bmi.n	8001b46 <__aeabi_dmul+0x302>
 8001b44:	e0f1      	b.n	8001d2a <__aeabi_dmul+0x4e6>
 8001b46:	2101      	movs	r1, #1
 8001b48:	0843      	lsrs	r3, r0, #1
 8001b4a:	4001      	ands	r1, r0
 8001b4c:	430b      	orrs	r3, r1
 8001b4e:	07e0      	lsls	r0, r4, #31
 8001b50:	4318      	orrs	r0, r3
 8001b52:	0864      	lsrs	r4, r4, #1
 8001b54:	4915      	ldr	r1, [pc, #84]	; (8001bac <__aeabi_dmul+0x368>)
 8001b56:	9b02      	ldr	r3, [sp, #8]
 8001b58:	468c      	mov	ip, r1
 8001b5a:	4463      	add	r3, ip
 8001b5c:	2b00      	cmp	r3, #0
 8001b5e:	dc00      	bgt.n	8001b62 <__aeabi_dmul+0x31e>
 8001b60:	e097      	b.n	8001c92 <__aeabi_dmul+0x44e>
 8001b62:	0741      	lsls	r1, r0, #29
 8001b64:	d009      	beq.n	8001b7a <__aeabi_dmul+0x336>
 8001b66:	210f      	movs	r1, #15
 8001b68:	4001      	ands	r1, r0
 8001b6a:	2904      	cmp	r1, #4
 8001b6c:	d005      	beq.n	8001b7a <__aeabi_dmul+0x336>
 8001b6e:	1d01      	adds	r1, r0, #4
 8001b70:	4281      	cmp	r1, r0
 8001b72:	4180      	sbcs	r0, r0
 8001b74:	4240      	negs	r0, r0
 8001b76:	1824      	adds	r4, r4, r0
 8001b78:	0008      	movs	r0, r1
 8001b7a:	01e1      	lsls	r1, r4, #7
 8001b7c:	d506      	bpl.n	8001b8c <__aeabi_dmul+0x348>
 8001b7e:	2180      	movs	r1, #128	; 0x80
 8001b80:	00c9      	lsls	r1, r1, #3
 8001b82:	468c      	mov	ip, r1
 8001b84:	4b0a      	ldr	r3, [pc, #40]	; (8001bb0 <__aeabi_dmul+0x36c>)
 8001b86:	401c      	ands	r4, r3
 8001b88:	9b02      	ldr	r3, [sp, #8]
 8001b8a:	4463      	add	r3, ip
 8001b8c:	4909      	ldr	r1, [pc, #36]	; (8001bb4 <__aeabi_dmul+0x370>)
 8001b8e:	428b      	cmp	r3, r1
 8001b90:	dd00      	ble.n	8001b94 <__aeabi_dmul+0x350>
 8001b92:	e710      	b.n	80019b6 <__aeabi_dmul+0x172>
 8001b94:	0761      	lsls	r1, r4, #29
 8001b96:	08c5      	lsrs	r5, r0, #3
 8001b98:	0264      	lsls	r4, r4, #9
 8001b9a:	055b      	lsls	r3, r3, #21
 8001b9c:	430d      	orrs	r5, r1
 8001b9e:	0b24      	lsrs	r4, r4, #12
 8001ba0:	0d5b      	lsrs	r3, r3, #21
 8001ba2:	e6c1      	b.n	8001928 <__aeabi_dmul+0xe4>
 8001ba4:	000007ff 	.word	0x000007ff
 8001ba8:	fffffc01 	.word	0xfffffc01
 8001bac:	000003ff 	.word	0x000003ff
 8001bb0:	feffffff 	.word	0xfeffffff
 8001bb4:	000007fe 	.word	0x000007fe
 8001bb8:	464b      	mov	r3, r9
 8001bba:	4323      	orrs	r3, r4
 8001bbc:	d059      	beq.n	8001c72 <__aeabi_dmul+0x42e>
 8001bbe:	2c00      	cmp	r4, #0
 8001bc0:	d100      	bne.n	8001bc4 <__aeabi_dmul+0x380>
 8001bc2:	e0a3      	b.n	8001d0c <__aeabi_dmul+0x4c8>
 8001bc4:	0020      	movs	r0, r4
 8001bc6:	f000 fd75 	bl	80026b4 <__clzsi2>
 8001bca:	0001      	movs	r1, r0
 8001bcc:	0003      	movs	r3, r0
 8001bce:	390b      	subs	r1, #11
 8001bd0:	221d      	movs	r2, #29
 8001bd2:	1a52      	subs	r2, r2, r1
 8001bd4:	4649      	mov	r1, r9
 8001bd6:	0018      	movs	r0, r3
 8001bd8:	40d1      	lsrs	r1, r2
 8001bda:	464a      	mov	r2, r9
 8001bdc:	3808      	subs	r0, #8
 8001bde:	4082      	lsls	r2, r0
 8001be0:	4084      	lsls	r4, r0
 8001be2:	0010      	movs	r0, r2
 8001be4:	430c      	orrs	r4, r1
 8001be6:	4a74      	ldr	r2, [pc, #464]	; (8001db8 <__aeabi_dmul+0x574>)
 8001be8:	1aeb      	subs	r3, r5, r3
 8001bea:	4694      	mov	ip, r2
 8001bec:	4642      	mov	r2, r8
 8001bee:	4463      	add	r3, ip
 8001bf0:	9301      	str	r3, [sp, #4]
 8001bf2:	9b01      	ldr	r3, [sp, #4]
 8001bf4:	407a      	eors	r2, r7
 8001bf6:	3301      	adds	r3, #1
 8001bf8:	2100      	movs	r1, #0
 8001bfa:	b2d2      	uxtb	r2, r2
 8001bfc:	9302      	str	r3, [sp, #8]
 8001bfe:	2e0a      	cmp	r6, #10
 8001c00:	dd00      	ble.n	8001c04 <__aeabi_dmul+0x3c0>
 8001c02:	e667      	b.n	80018d4 <__aeabi_dmul+0x90>
 8001c04:	e683      	b.n	800190e <__aeabi_dmul+0xca>
 8001c06:	465b      	mov	r3, fp
 8001c08:	4303      	orrs	r3, r0
 8001c0a:	469a      	mov	sl, r3
 8001c0c:	d02a      	beq.n	8001c64 <__aeabi_dmul+0x420>
 8001c0e:	465b      	mov	r3, fp
 8001c10:	2b00      	cmp	r3, #0
 8001c12:	d06d      	beq.n	8001cf0 <__aeabi_dmul+0x4ac>
 8001c14:	4658      	mov	r0, fp
 8001c16:	f000 fd4d 	bl	80026b4 <__clzsi2>
 8001c1a:	0001      	movs	r1, r0
 8001c1c:	0003      	movs	r3, r0
 8001c1e:	390b      	subs	r1, #11
 8001c20:	221d      	movs	r2, #29
 8001c22:	1a52      	subs	r2, r2, r1
 8001c24:	0021      	movs	r1, r4
 8001c26:	0018      	movs	r0, r3
 8001c28:	465d      	mov	r5, fp
 8001c2a:	40d1      	lsrs	r1, r2
 8001c2c:	3808      	subs	r0, #8
 8001c2e:	4085      	lsls	r5, r0
 8001c30:	000a      	movs	r2, r1
 8001c32:	4084      	lsls	r4, r0
 8001c34:	432a      	orrs	r2, r5
 8001c36:	4693      	mov	fp, r2
 8001c38:	46a2      	mov	sl, r4
 8001c3a:	4d5f      	ldr	r5, [pc, #380]	; (8001db8 <__aeabi_dmul+0x574>)
 8001c3c:	2600      	movs	r6, #0
 8001c3e:	1aed      	subs	r5, r5, r3
 8001c40:	2300      	movs	r3, #0
 8001c42:	9300      	str	r3, [sp, #0]
 8001c44:	e625      	b.n	8001892 <__aeabi_dmul+0x4e>
 8001c46:	465b      	mov	r3, fp
 8001c48:	4303      	orrs	r3, r0
 8001c4a:	469a      	mov	sl, r3
 8001c4c:	d105      	bne.n	8001c5a <__aeabi_dmul+0x416>
 8001c4e:	2300      	movs	r3, #0
 8001c50:	469b      	mov	fp, r3
 8001c52:	3302      	adds	r3, #2
 8001c54:	2608      	movs	r6, #8
 8001c56:	9300      	str	r3, [sp, #0]
 8001c58:	e61b      	b.n	8001892 <__aeabi_dmul+0x4e>
 8001c5a:	2303      	movs	r3, #3
 8001c5c:	4682      	mov	sl, r0
 8001c5e:	260c      	movs	r6, #12
 8001c60:	9300      	str	r3, [sp, #0]
 8001c62:	e616      	b.n	8001892 <__aeabi_dmul+0x4e>
 8001c64:	2300      	movs	r3, #0
 8001c66:	469b      	mov	fp, r3
 8001c68:	3301      	adds	r3, #1
 8001c6a:	2604      	movs	r6, #4
 8001c6c:	2500      	movs	r5, #0
 8001c6e:	9300      	str	r3, [sp, #0]
 8001c70:	e60f      	b.n	8001892 <__aeabi_dmul+0x4e>
 8001c72:	4642      	mov	r2, r8
 8001c74:	3301      	adds	r3, #1
 8001c76:	9501      	str	r5, [sp, #4]
 8001c78:	431e      	orrs	r6, r3
 8001c7a:	9b01      	ldr	r3, [sp, #4]
 8001c7c:	407a      	eors	r2, r7
 8001c7e:	3301      	adds	r3, #1
 8001c80:	2400      	movs	r4, #0
 8001c82:	2000      	movs	r0, #0
 8001c84:	2101      	movs	r1, #1
 8001c86:	b2d2      	uxtb	r2, r2
 8001c88:	9302      	str	r3, [sp, #8]
 8001c8a:	2e0a      	cmp	r6, #10
 8001c8c:	dd00      	ble.n	8001c90 <__aeabi_dmul+0x44c>
 8001c8e:	e621      	b.n	80018d4 <__aeabi_dmul+0x90>
 8001c90:	e63d      	b.n	800190e <__aeabi_dmul+0xca>
 8001c92:	2101      	movs	r1, #1
 8001c94:	1ac9      	subs	r1, r1, r3
 8001c96:	2938      	cmp	r1, #56	; 0x38
 8001c98:	dd00      	ble.n	8001c9c <__aeabi_dmul+0x458>
 8001c9a:	e642      	b.n	8001922 <__aeabi_dmul+0xde>
 8001c9c:	291f      	cmp	r1, #31
 8001c9e:	dd47      	ble.n	8001d30 <__aeabi_dmul+0x4ec>
 8001ca0:	261f      	movs	r6, #31
 8001ca2:	0025      	movs	r5, r4
 8001ca4:	4276      	negs	r6, r6
 8001ca6:	1af3      	subs	r3, r6, r3
 8001ca8:	40dd      	lsrs	r5, r3
 8001caa:	002b      	movs	r3, r5
 8001cac:	2920      	cmp	r1, #32
 8001cae:	d005      	beq.n	8001cbc <__aeabi_dmul+0x478>
 8001cb0:	4942      	ldr	r1, [pc, #264]	; (8001dbc <__aeabi_dmul+0x578>)
 8001cb2:	9d02      	ldr	r5, [sp, #8]
 8001cb4:	468c      	mov	ip, r1
 8001cb6:	4465      	add	r5, ip
 8001cb8:	40ac      	lsls	r4, r5
 8001cba:	4320      	orrs	r0, r4
 8001cbc:	1e41      	subs	r1, r0, #1
 8001cbe:	4188      	sbcs	r0, r1
 8001cc0:	4318      	orrs	r0, r3
 8001cc2:	2307      	movs	r3, #7
 8001cc4:	001d      	movs	r5, r3
 8001cc6:	2400      	movs	r4, #0
 8001cc8:	4005      	ands	r5, r0
 8001cca:	4203      	tst	r3, r0
 8001ccc:	d04a      	beq.n	8001d64 <__aeabi_dmul+0x520>
 8001cce:	230f      	movs	r3, #15
 8001cd0:	2400      	movs	r4, #0
 8001cd2:	4003      	ands	r3, r0
 8001cd4:	2b04      	cmp	r3, #4
 8001cd6:	d042      	beq.n	8001d5e <__aeabi_dmul+0x51a>
 8001cd8:	1d03      	adds	r3, r0, #4
 8001cda:	4283      	cmp	r3, r0
 8001cdc:	4180      	sbcs	r0, r0
 8001cde:	4240      	negs	r0, r0
 8001ce0:	1824      	adds	r4, r4, r0
 8001ce2:	0018      	movs	r0, r3
 8001ce4:	0223      	lsls	r3, r4, #8
 8001ce6:	d53a      	bpl.n	8001d5e <__aeabi_dmul+0x51a>
 8001ce8:	2301      	movs	r3, #1
 8001cea:	2400      	movs	r4, #0
 8001cec:	2500      	movs	r5, #0
 8001cee:	e61b      	b.n	8001928 <__aeabi_dmul+0xe4>
 8001cf0:	f000 fce0 	bl	80026b4 <__clzsi2>
 8001cf4:	0001      	movs	r1, r0
 8001cf6:	0003      	movs	r3, r0
 8001cf8:	3115      	adds	r1, #21
 8001cfa:	3320      	adds	r3, #32
 8001cfc:	291c      	cmp	r1, #28
 8001cfe:	dd8f      	ble.n	8001c20 <__aeabi_dmul+0x3dc>
 8001d00:	3808      	subs	r0, #8
 8001d02:	2200      	movs	r2, #0
 8001d04:	4084      	lsls	r4, r0
 8001d06:	4692      	mov	sl, r2
 8001d08:	46a3      	mov	fp, r4
 8001d0a:	e796      	b.n	8001c3a <__aeabi_dmul+0x3f6>
 8001d0c:	f000 fcd2 	bl	80026b4 <__clzsi2>
 8001d10:	0001      	movs	r1, r0
 8001d12:	0003      	movs	r3, r0
 8001d14:	3115      	adds	r1, #21
 8001d16:	3320      	adds	r3, #32
 8001d18:	291c      	cmp	r1, #28
 8001d1a:	dc00      	bgt.n	8001d1e <__aeabi_dmul+0x4da>
 8001d1c:	e758      	b.n	8001bd0 <__aeabi_dmul+0x38c>
 8001d1e:	0002      	movs	r2, r0
 8001d20:	464c      	mov	r4, r9
 8001d22:	3a08      	subs	r2, #8
 8001d24:	2000      	movs	r0, #0
 8001d26:	4094      	lsls	r4, r2
 8001d28:	e75d      	b.n	8001be6 <__aeabi_dmul+0x3a2>
 8001d2a:	9b01      	ldr	r3, [sp, #4]
 8001d2c:	9302      	str	r3, [sp, #8]
 8001d2e:	e711      	b.n	8001b54 <__aeabi_dmul+0x310>
 8001d30:	4b23      	ldr	r3, [pc, #140]	; (8001dc0 <__aeabi_dmul+0x57c>)
 8001d32:	0026      	movs	r6, r4
 8001d34:	469c      	mov	ip, r3
 8001d36:	0003      	movs	r3, r0
 8001d38:	9d02      	ldr	r5, [sp, #8]
 8001d3a:	40cb      	lsrs	r3, r1
 8001d3c:	4465      	add	r5, ip
 8001d3e:	40ae      	lsls	r6, r5
 8001d40:	431e      	orrs	r6, r3
 8001d42:	0003      	movs	r3, r0
 8001d44:	40ab      	lsls	r3, r5
 8001d46:	1e58      	subs	r0, r3, #1
 8001d48:	4183      	sbcs	r3, r0
 8001d4a:	0030      	movs	r0, r6
 8001d4c:	4318      	orrs	r0, r3
 8001d4e:	40cc      	lsrs	r4, r1
 8001d50:	0743      	lsls	r3, r0, #29
 8001d52:	d0c7      	beq.n	8001ce4 <__aeabi_dmul+0x4a0>
 8001d54:	230f      	movs	r3, #15
 8001d56:	4003      	ands	r3, r0
 8001d58:	2b04      	cmp	r3, #4
 8001d5a:	d1bd      	bne.n	8001cd8 <__aeabi_dmul+0x494>
 8001d5c:	e7c2      	b.n	8001ce4 <__aeabi_dmul+0x4a0>
 8001d5e:	0765      	lsls	r5, r4, #29
 8001d60:	0264      	lsls	r4, r4, #9
 8001d62:	0b24      	lsrs	r4, r4, #12
 8001d64:	08c0      	lsrs	r0, r0, #3
 8001d66:	2300      	movs	r3, #0
 8001d68:	4305      	orrs	r5, r0
 8001d6a:	e5dd      	b.n	8001928 <__aeabi_dmul+0xe4>
 8001d6c:	2500      	movs	r5, #0
 8001d6e:	2302      	movs	r3, #2
 8001d70:	2e0f      	cmp	r6, #15
 8001d72:	d10c      	bne.n	8001d8e <__aeabi_dmul+0x54a>
 8001d74:	2480      	movs	r4, #128	; 0x80
 8001d76:	465b      	mov	r3, fp
 8001d78:	0324      	lsls	r4, r4, #12
 8001d7a:	4223      	tst	r3, r4
 8001d7c:	d00e      	beq.n	8001d9c <__aeabi_dmul+0x558>
 8001d7e:	4221      	tst	r1, r4
 8001d80:	d10c      	bne.n	8001d9c <__aeabi_dmul+0x558>
 8001d82:	430c      	orrs	r4, r1
 8001d84:	0324      	lsls	r4, r4, #12
 8001d86:	003a      	movs	r2, r7
 8001d88:	4b0e      	ldr	r3, [pc, #56]	; (8001dc4 <__aeabi_dmul+0x580>)
 8001d8a:	0b24      	lsrs	r4, r4, #12
 8001d8c:	e5cc      	b.n	8001928 <__aeabi_dmul+0xe4>
 8001d8e:	2e0b      	cmp	r6, #11
 8001d90:	d000      	beq.n	8001d94 <__aeabi_dmul+0x550>
 8001d92:	e5a2      	b.n	80018da <__aeabi_dmul+0x96>
 8001d94:	468b      	mov	fp, r1
 8001d96:	46aa      	mov	sl, r5
 8001d98:	9300      	str	r3, [sp, #0]
 8001d9a:	e5f7      	b.n	800198c <__aeabi_dmul+0x148>
 8001d9c:	2480      	movs	r4, #128	; 0x80
 8001d9e:	465b      	mov	r3, fp
 8001da0:	0324      	lsls	r4, r4, #12
 8001da2:	431c      	orrs	r4, r3
 8001da4:	0324      	lsls	r4, r4, #12
 8001da6:	4642      	mov	r2, r8
 8001da8:	4655      	mov	r5, sl
 8001daa:	4b06      	ldr	r3, [pc, #24]	; (8001dc4 <__aeabi_dmul+0x580>)
 8001dac:	0b24      	lsrs	r4, r4, #12
 8001dae:	e5bb      	b.n	8001928 <__aeabi_dmul+0xe4>
 8001db0:	464d      	mov	r5, r9
 8001db2:	0021      	movs	r1, r4
 8001db4:	2303      	movs	r3, #3
 8001db6:	e7db      	b.n	8001d70 <__aeabi_dmul+0x52c>
 8001db8:	fffffc0d 	.word	0xfffffc0d
 8001dbc:	0000043e 	.word	0x0000043e
 8001dc0:	0000041e 	.word	0x0000041e
 8001dc4:	000007ff 	.word	0x000007ff

08001dc8 <__aeabi_dsub>:
 8001dc8:	b5f0      	push	{r4, r5, r6, r7, lr}
 8001dca:	4657      	mov	r7, sl
 8001dcc:	464e      	mov	r6, r9
 8001dce:	4645      	mov	r5, r8
 8001dd0:	46de      	mov	lr, fp
 8001dd2:	b5e0      	push	{r5, r6, r7, lr}
 8001dd4:	000d      	movs	r5, r1
 8001dd6:	0004      	movs	r4, r0
 8001dd8:	0019      	movs	r1, r3
 8001dda:	0010      	movs	r0, r2
 8001ddc:	032b      	lsls	r3, r5, #12
 8001dde:	0a5b      	lsrs	r3, r3, #9
 8001de0:	0f62      	lsrs	r2, r4, #29
 8001de2:	431a      	orrs	r2, r3
 8001de4:	00e3      	lsls	r3, r4, #3
 8001de6:	030c      	lsls	r4, r1, #12
 8001de8:	0a64      	lsrs	r4, r4, #9
 8001dea:	0f47      	lsrs	r7, r0, #29
 8001dec:	4327      	orrs	r7, r4
 8001dee:	4cd0      	ldr	r4, [pc, #832]	; (8002130 <__aeabi_dsub+0x368>)
 8001df0:	006e      	lsls	r6, r5, #1
 8001df2:	4691      	mov	r9, r2
 8001df4:	b083      	sub	sp, #12
 8001df6:	004a      	lsls	r2, r1, #1
 8001df8:	00c0      	lsls	r0, r0, #3
 8001dfa:	4698      	mov	r8, r3
 8001dfc:	46a2      	mov	sl, r4
 8001dfe:	0d76      	lsrs	r6, r6, #21
 8001e00:	0fed      	lsrs	r5, r5, #31
 8001e02:	0d52      	lsrs	r2, r2, #21
 8001e04:	0fc9      	lsrs	r1, r1, #31
 8001e06:	9001      	str	r0, [sp, #4]
 8001e08:	42a2      	cmp	r2, r4
 8001e0a:	d100      	bne.n	8001e0e <__aeabi_dsub+0x46>
 8001e0c:	e0b9      	b.n	8001f82 <__aeabi_dsub+0x1ba>
 8001e0e:	2401      	movs	r4, #1
 8001e10:	4061      	eors	r1, r4
 8001e12:	468b      	mov	fp, r1
 8001e14:	428d      	cmp	r5, r1
 8001e16:	d100      	bne.n	8001e1a <__aeabi_dsub+0x52>
 8001e18:	e08d      	b.n	8001f36 <__aeabi_dsub+0x16e>
 8001e1a:	1ab4      	subs	r4, r6, r2
 8001e1c:	46a4      	mov	ip, r4
 8001e1e:	2c00      	cmp	r4, #0
 8001e20:	dc00      	bgt.n	8001e24 <__aeabi_dsub+0x5c>
 8001e22:	e0b7      	b.n	8001f94 <__aeabi_dsub+0x1cc>
 8001e24:	2a00      	cmp	r2, #0
 8001e26:	d100      	bne.n	8001e2a <__aeabi_dsub+0x62>
 8001e28:	e0cb      	b.n	8001fc2 <__aeabi_dsub+0x1fa>
 8001e2a:	4ac1      	ldr	r2, [pc, #772]	; (8002130 <__aeabi_dsub+0x368>)
 8001e2c:	4296      	cmp	r6, r2
 8001e2e:	d100      	bne.n	8001e32 <__aeabi_dsub+0x6a>
 8001e30:	e186      	b.n	8002140 <__aeabi_dsub+0x378>
 8001e32:	2280      	movs	r2, #128	; 0x80
 8001e34:	0412      	lsls	r2, r2, #16
 8001e36:	4317      	orrs	r7, r2
 8001e38:	4662      	mov	r2, ip
 8001e3a:	2a38      	cmp	r2, #56	; 0x38
 8001e3c:	dd00      	ble.n	8001e40 <__aeabi_dsub+0x78>
 8001e3e:	e1a4      	b.n	800218a <__aeabi_dsub+0x3c2>
 8001e40:	2a1f      	cmp	r2, #31
 8001e42:	dd00      	ble.n	8001e46 <__aeabi_dsub+0x7e>
 8001e44:	e21d      	b.n	8002282 <__aeabi_dsub+0x4ba>
 8001e46:	4661      	mov	r1, ip
 8001e48:	2220      	movs	r2, #32
 8001e4a:	003c      	movs	r4, r7
 8001e4c:	1a52      	subs	r2, r2, r1
 8001e4e:	0001      	movs	r1, r0
 8001e50:	4090      	lsls	r0, r2
 8001e52:	4094      	lsls	r4, r2
 8001e54:	1e42      	subs	r2, r0, #1
 8001e56:	4190      	sbcs	r0, r2
 8001e58:	4662      	mov	r2, ip
 8001e5a:	46a0      	mov	r8, r4
 8001e5c:	4664      	mov	r4, ip
 8001e5e:	40d7      	lsrs	r7, r2
 8001e60:	464a      	mov	r2, r9
 8001e62:	40e1      	lsrs	r1, r4
 8001e64:	4644      	mov	r4, r8
 8001e66:	1bd2      	subs	r2, r2, r7
 8001e68:	4691      	mov	r9, r2
 8001e6a:	430c      	orrs	r4, r1
 8001e6c:	4304      	orrs	r4, r0
 8001e6e:	1b1c      	subs	r4, r3, r4
 8001e70:	42a3      	cmp	r3, r4
 8001e72:	4192      	sbcs	r2, r2
 8001e74:	464b      	mov	r3, r9
 8001e76:	4252      	negs	r2, r2
 8001e78:	1a9b      	subs	r3, r3, r2
 8001e7a:	469a      	mov	sl, r3
 8001e7c:	4653      	mov	r3, sl
 8001e7e:	021b      	lsls	r3, r3, #8
 8001e80:	d400      	bmi.n	8001e84 <__aeabi_dsub+0xbc>
 8001e82:	e12b      	b.n	80020dc <__aeabi_dsub+0x314>
 8001e84:	4653      	mov	r3, sl
 8001e86:	025a      	lsls	r2, r3, #9
 8001e88:	0a53      	lsrs	r3, r2, #9
 8001e8a:	469a      	mov	sl, r3
 8001e8c:	4653      	mov	r3, sl
 8001e8e:	2b00      	cmp	r3, #0
 8001e90:	d100      	bne.n	8001e94 <__aeabi_dsub+0xcc>
 8001e92:	e166      	b.n	8002162 <__aeabi_dsub+0x39a>
 8001e94:	4650      	mov	r0, sl
 8001e96:	f000 fc0d 	bl	80026b4 <__clzsi2>
 8001e9a:	0003      	movs	r3, r0
 8001e9c:	3b08      	subs	r3, #8
 8001e9e:	2220      	movs	r2, #32
 8001ea0:	0020      	movs	r0, r4
 8001ea2:	1ad2      	subs	r2, r2, r3
 8001ea4:	4651      	mov	r1, sl
 8001ea6:	40d0      	lsrs	r0, r2
 8001ea8:	4099      	lsls	r1, r3
 8001eaa:	0002      	movs	r2, r0
 8001eac:	409c      	lsls	r4, r3
 8001eae:	430a      	orrs	r2, r1
 8001eb0:	429e      	cmp	r6, r3
 8001eb2:	dd00      	ble.n	8001eb6 <__aeabi_dsub+0xee>
 8001eb4:	e164      	b.n	8002180 <__aeabi_dsub+0x3b8>
 8001eb6:	1b9b      	subs	r3, r3, r6
 8001eb8:	1c59      	adds	r1, r3, #1
 8001eba:	291f      	cmp	r1, #31
 8001ebc:	dd00      	ble.n	8001ec0 <__aeabi_dsub+0xf8>
 8001ebe:	e0fe      	b.n	80020be <__aeabi_dsub+0x2f6>
 8001ec0:	2320      	movs	r3, #32
 8001ec2:	0010      	movs	r0, r2
 8001ec4:	0026      	movs	r6, r4
 8001ec6:	1a5b      	subs	r3, r3, r1
 8001ec8:	409c      	lsls	r4, r3
 8001eca:	4098      	lsls	r0, r3
 8001ecc:	40ce      	lsrs	r6, r1
 8001ece:	40ca      	lsrs	r2, r1
 8001ed0:	1e63      	subs	r3, r4, #1
 8001ed2:	419c      	sbcs	r4, r3
 8001ed4:	4330      	orrs	r0, r6
 8001ed6:	4692      	mov	sl, r2
 8001ed8:	2600      	movs	r6, #0
 8001eda:	4304      	orrs	r4, r0
 8001edc:	0763      	lsls	r3, r4, #29
 8001ede:	d009      	beq.n	8001ef4 <__aeabi_dsub+0x12c>
 8001ee0:	230f      	movs	r3, #15
 8001ee2:	4023      	ands	r3, r4
 8001ee4:	2b04      	cmp	r3, #4
 8001ee6:	d005      	beq.n	8001ef4 <__aeabi_dsub+0x12c>
 8001ee8:	1d23      	adds	r3, r4, #4
 8001eea:	42a3      	cmp	r3, r4
 8001eec:	41a4      	sbcs	r4, r4
 8001eee:	4264      	negs	r4, r4
 8001ef0:	44a2      	add	sl, r4
 8001ef2:	001c      	movs	r4, r3
 8001ef4:	4653      	mov	r3, sl
 8001ef6:	021b      	lsls	r3, r3, #8
 8001ef8:	d400      	bmi.n	8001efc <__aeabi_dsub+0x134>
 8001efa:	e0f2      	b.n	80020e2 <__aeabi_dsub+0x31a>
 8001efc:	4b8c      	ldr	r3, [pc, #560]	; (8002130 <__aeabi_dsub+0x368>)
 8001efe:	3601      	adds	r6, #1
 8001f00:	429e      	cmp	r6, r3
 8001f02:	d100      	bne.n	8001f06 <__aeabi_dsub+0x13e>
 8001f04:	e10f      	b.n	8002126 <__aeabi_dsub+0x35e>
 8001f06:	4653      	mov	r3, sl
 8001f08:	498a      	ldr	r1, [pc, #552]	; (8002134 <__aeabi_dsub+0x36c>)
 8001f0a:	08e4      	lsrs	r4, r4, #3
 8001f0c:	400b      	ands	r3, r1
 8001f0e:	0019      	movs	r1, r3
 8001f10:	075b      	lsls	r3, r3, #29
 8001f12:	4323      	orrs	r3, r4
 8001f14:	0572      	lsls	r2, r6, #21
 8001f16:	024c      	lsls	r4, r1, #9
 8001f18:	0b24      	lsrs	r4, r4, #12
 8001f1a:	0d52      	lsrs	r2, r2, #21
 8001f1c:	0512      	lsls	r2, r2, #20
 8001f1e:	4322      	orrs	r2, r4
 8001f20:	07ed      	lsls	r5, r5, #31
 8001f22:	432a      	orrs	r2, r5
 8001f24:	0018      	movs	r0, r3
 8001f26:	0011      	movs	r1, r2
 8001f28:	b003      	add	sp, #12
 8001f2a:	bcf0      	pop	{r4, r5, r6, r7}
 8001f2c:	46bb      	mov	fp, r7
 8001f2e:	46b2      	mov	sl, r6
 8001f30:	46a9      	mov	r9, r5
 8001f32:	46a0      	mov	r8, r4
 8001f34:	bdf0      	pop	{r4, r5, r6, r7, pc}
 8001f36:	1ab4      	subs	r4, r6, r2
 8001f38:	46a4      	mov	ip, r4
 8001f3a:	2c00      	cmp	r4, #0
 8001f3c:	dd59      	ble.n	8001ff2 <__aeabi_dsub+0x22a>
 8001f3e:	2a00      	cmp	r2, #0
 8001f40:	d100      	bne.n	8001f44 <__aeabi_dsub+0x17c>
 8001f42:	e0b0      	b.n	80020a6 <__aeabi_dsub+0x2de>
 8001f44:	4556      	cmp	r6, sl
 8001f46:	d100      	bne.n	8001f4a <__aeabi_dsub+0x182>
 8001f48:	e0fa      	b.n	8002140 <__aeabi_dsub+0x378>
 8001f4a:	2280      	movs	r2, #128	; 0x80
 8001f4c:	0412      	lsls	r2, r2, #16
 8001f4e:	4317      	orrs	r7, r2
 8001f50:	4662      	mov	r2, ip
 8001f52:	2a38      	cmp	r2, #56	; 0x38
 8001f54:	dd00      	ble.n	8001f58 <__aeabi_dsub+0x190>
 8001f56:	e0d4      	b.n	8002102 <__aeabi_dsub+0x33a>
 8001f58:	2a1f      	cmp	r2, #31
 8001f5a:	dc00      	bgt.n	8001f5e <__aeabi_dsub+0x196>
 8001f5c:	e1c0      	b.n	80022e0 <__aeabi_dsub+0x518>
 8001f5e:	0039      	movs	r1, r7
 8001f60:	3a20      	subs	r2, #32
 8001f62:	40d1      	lsrs	r1, r2
 8001f64:	4662      	mov	r2, ip
 8001f66:	2a20      	cmp	r2, #32
 8001f68:	d006      	beq.n	8001f78 <__aeabi_dsub+0x1b0>
 8001f6a:	4664      	mov	r4, ip
 8001f6c:	2240      	movs	r2, #64	; 0x40
 8001f6e:	1b12      	subs	r2, r2, r4
 8001f70:	003c      	movs	r4, r7
 8001f72:	4094      	lsls	r4, r2
 8001f74:	4304      	orrs	r4, r0
 8001f76:	9401      	str	r4, [sp, #4]
 8001f78:	9c01      	ldr	r4, [sp, #4]
 8001f7a:	1e62      	subs	r2, r4, #1
 8001f7c:	4194      	sbcs	r4, r2
 8001f7e:	430c      	orrs	r4, r1
 8001f80:	e0c3      	b.n	800210a <__aeabi_dsub+0x342>
 8001f82:	003c      	movs	r4, r7
 8001f84:	4304      	orrs	r4, r0
 8001f86:	d02b      	beq.n	8001fe0 <__aeabi_dsub+0x218>
 8001f88:	468b      	mov	fp, r1
 8001f8a:	428d      	cmp	r5, r1
 8001f8c:	d02e      	beq.n	8001fec <__aeabi_dsub+0x224>
 8001f8e:	4c6a      	ldr	r4, [pc, #424]	; (8002138 <__aeabi_dsub+0x370>)
 8001f90:	46a4      	mov	ip, r4
 8001f92:	44b4      	add	ip, r6
 8001f94:	4664      	mov	r4, ip
 8001f96:	2c00      	cmp	r4, #0
 8001f98:	d05f      	beq.n	800205a <__aeabi_dsub+0x292>
 8001f9a:	1b94      	subs	r4, r2, r6
 8001f9c:	46a4      	mov	ip, r4
 8001f9e:	2e00      	cmp	r6, #0
 8001fa0:	d000      	beq.n	8001fa4 <__aeabi_dsub+0x1dc>
 8001fa2:	e120      	b.n	80021e6 <__aeabi_dsub+0x41e>
 8001fa4:	464c      	mov	r4, r9
 8001fa6:	431c      	orrs	r4, r3
 8001fa8:	d100      	bne.n	8001fac <__aeabi_dsub+0x1e4>
 8001faa:	e1c7      	b.n	800233c <__aeabi_dsub+0x574>
 8001fac:	4661      	mov	r1, ip
 8001fae:	1e4c      	subs	r4, r1, #1
 8001fb0:	2901      	cmp	r1, #1
 8001fb2:	d100      	bne.n	8001fb6 <__aeabi_dsub+0x1ee>
 8001fb4:	e223      	b.n	80023fe <__aeabi_dsub+0x636>
 8001fb6:	4d5e      	ldr	r5, [pc, #376]	; (8002130 <__aeabi_dsub+0x368>)
 8001fb8:	45ac      	cmp	ip, r5
 8001fba:	d100      	bne.n	8001fbe <__aeabi_dsub+0x1f6>
 8001fbc:	e1d8      	b.n	8002370 <__aeabi_dsub+0x5a8>
 8001fbe:	46a4      	mov	ip, r4
 8001fc0:	e11a      	b.n	80021f8 <__aeabi_dsub+0x430>
 8001fc2:	003a      	movs	r2, r7
 8001fc4:	4302      	orrs	r2, r0
 8001fc6:	d100      	bne.n	8001fca <__aeabi_dsub+0x202>
 8001fc8:	e0e4      	b.n	8002194 <__aeabi_dsub+0x3cc>
 8001fca:	0022      	movs	r2, r4
 8001fcc:	3a01      	subs	r2, #1
 8001fce:	2c01      	cmp	r4, #1
 8001fd0:	d100      	bne.n	8001fd4 <__aeabi_dsub+0x20c>
 8001fd2:	e1c3      	b.n	800235c <__aeabi_dsub+0x594>
 8001fd4:	4956      	ldr	r1, [pc, #344]	; (8002130 <__aeabi_dsub+0x368>)
 8001fd6:	428c      	cmp	r4, r1
 8001fd8:	d100      	bne.n	8001fdc <__aeabi_dsub+0x214>
 8001fda:	e0b1      	b.n	8002140 <__aeabi_dsub+0x378>
 8001fdc:	4694      	mov	ip, r2
 8001fde:	e72b      	b.n	8001e38 <__aeabi_dsub+0x70>
 8001fe0:	2401      	movs	r4, #1
 8001fe2:	4061      	eors	r1, r4
 8001fe4:	468b      	mov	fp, r1
 8001fe6:	428d      	cmp	r5, r1
 8001fe8:	d000      	beq.n	8001fec <__aeabi_dsub+0x224>
 8001fea:	e716      	b.n	8001e1a <__aeabi_dsub+0x52>
 8001fec:	4952      	ldr	r1, [pc, #328]	; (8002138 <__aeabi_dsub+0x370>)
 8001fee:	468c      	mov	ip, r1
 8001ff0:	44b4      	add	ip, r6
 8001ff2:	4664      	mov	r4, ip
 8001ff4:	2c00      	cmp	r4, #0
 8001ff6:	d100      	bne.n	8001ffa <__aeabi_dsub+0x232>
 8001ff8:	e0d3      	b.n	80021a2 <__aeabi_dsub+0x3da>
 8001ffa:	1b91      	subs	r1, r2, r6
 8001ffc:	468c      	mov	ip, r1
 8001ffe:	2e00      	cmp	r6, #0
 8002000:	d100      	bne.n	8002004 <__aeabi_dsub+0x23c>
 8002002:	e15e      	b.n	80022c2 <__aeabi_dsub+0x4fa>
 8002004:	494a      	ldr	r1, [pc, #296]	; (8002130 <__aeabi_dsub+0x368>)
 8002006:	428a      	cmp	r2, r1
 8002008:	d100      	bne.n	800200c <__aeabi_dsub+0x244>
 800200a:	e1be      	b.n	800238a <__aeabi_dsub+0x5c2>
 800200c:	2180      	movs	r1, #128	; 0x80
 800200e:	464c      	mov	r4, r9
 8002010:	0409      	lsls	r1, r1, #16
 8002012:	430c      	orrs	r4, r1
 8002014:	46a1      	mov	r9, r4
 8002016:	4661      	mov	r1, ip
 8002018:	2938      	cmp	r1, #56	; 0x38
 800201a:	dd00      	ble.n	800201e <__aeabi_dsub+0x256>
 800201c:	e1ba      	b.n	8002394 <__aeabi_dsub+0x5cc>
 800201e:	291f      	cmp	r1, #31
 8002020:	dd00      	ble.n	8002024 <__aeabi_dsub+0x25c>
 8002022:	e227      	b.n	8002474 <__aeabi_dsub+0x6ac>
 8002024:	2420      	movs	r4, #32
 8002026:	1a64      	subs	r4, r4, r1
 8002028:	4649      	mov	r1, r9
 800202a:	40a1      	lsls	r1, r4
 800202c:	001e      	movs	r6, r3
 800202e:	4688      	mov	r8, r1
 8002030:	4661      	mov	r1, ip
 8002032:	40a3      	lsls	r3, r4
 8002034:	40ce      	lsrs	r6, r1
 8002036:	4641      	mov	r1, r8
 8002038:	1e5c      	subs	r4, r3, #1
 800203a:	41a3      	sbcs	r3, r4
 800203c:	4331      	orrs	r1, r6
 800203e:	4319      	orrs	r1, r3
 8002040:	000c      	movs	r4, r1
 8002042:	4663      	mov	r3, ip
 8002044:	4649      	mov	r1, r9
 8002046:	40d9      	lsrs	r1, r3
 8002048:	187f      	adds	r7, r7, r1
 800204a:	1824      	adds	r4, r4, r0
 800204c:	4284      	cmp	r4, r0
 800204e:	419b      	sbcs	r3, r3
 8002050:	425b      	negs	r3, r3
 8002052:	469a      	mov	sl, r3
 8002054:	0016      	movs	r6, r2
 8002056:	44ba      	add	sl, r7
 8002058:	e05d      	b.n	8002116 <__aeabi_dsub+0x34e>
 800205a:	4c38      	ldr	r4, [pc, #224]	; (800213c <__aeabi_dsub+0x374>)
 800205c:	1c72      	adds	r2, r6, #1
 800205e:	4222      	tst	r2, r4
 8002060:	d000      	beq.n	8002064 <__aeabi_dsub+0x29c>
 8002062:	e0df      	b.n	8002224 <__aeabi_dsub+0x45c>
 8002064:	464a      	mov	r2, r9
 8002066:	431a      	orrs	r2, r3
 8002068:	2e00      	cmp	r6, #0
 800206a:	d000      	beq.n	800206e <__aeabi_dsub+0x2a6>
 800206c:	e15c      	b.n	8002328 <__aeabi_dsub+0x560>
 800206e:	2a00      	cmp	r2, #0
 8002070:	d100      	bne.n	8002074 <__aeabi_dsub+0x2ac>
 8002072:	e1cf      	b.n	8002414 <__aeabi_dsub+0x64c>
 8002074:	003a      	movs	r2, r7
 8002076:	4302      	orrs	r2, r0
 8002078:	d100      	bne.n	800207c <__aeabi_dsub+0x2b4>
 800207a:	e17f      	b.n	800237c <__aeabi_dsub+0x5b4>
 800207c:	1a1c      	subs	r4, r3, r0
 800207e:	464a      	mov	r2, r9
 8002080:	42a3      	cmp	r3, r4
 8002082:	4189      	sbcs	r1, r1
 8002084:	1bd2      	subs	r2, r2, r7
 8002086:	4249      	negs	r1, r1
 8002088:	1a52      	subs	r2, r2, r1
 800208a:	4692      	mov	sl, r2
 800208c:	0212      	lsls	r2, r2, #8
 800208e:	d400      	bmi.n	8002092 <__aeabi_dsub+0x2ca>
 8002090:	e20a      	b.n	80024a8 <__aeabi_dsub+0x6e0>
 8002092:	1ac4      	subs	r4, r0, r3
 8002094:	42a0      	cmp	r0, r4
 8002096:	4180      	sbcs	r0, r0
 8002098:	464b      	mov	r3, r9
 800209a:	4240      	negs	r0, r0
 800209c:	1aff      	subs	r7, r7, r3
 800209e:	1a3b      	subs	r3, r7, r0
 80020a0:	469a      	mov	sl, r3
 80020a2:	465d      	mov	r5, fp
 80020a4:	e71a      	b.n	8001edc <__aeabi_dsub+0x114>
 80020a6:	003a      	movs	r2, r7
 80020a8:	4302      	orrs	r2, r0
 80020aa:	d073      	beq.n	8002194 <__aeabi_dsub+0x3cc>
 80020ac:	0022      	movs	r2, r4
 80020ae:	3a01      	subs	r2, #1
 80020b0:	2c01      	cmp	r4, #1
 80020b2:	d100      	bne.n	80020b6 <__aeabi_dsub+0x2ee>
 80020b4:	e0cb      	b.n	800224e <__aeabi_dsub+0x486>
 80020b6:	4554      	cmp	r4, sl
 80020b8:	d042      	beq.n	8002140 <__aeabi_dsub+0x378>
 80020ba:	4694      	mov	ip, r2
 80020bc:	e748      	b.n	8001f50 <__aeabi_dsub+0x188>
 80020be:	0010      	movs	r0, r2
 80020c0:	3b1f      	subs	r3, #31
 80020c2:	40d8      	lsrs	r0, r3
 80020c4:	2920      	cmp	r1, #32
 80020c6:	d003      	beq.n	80020d0 <__aeabi_dsub+0x308>
 80020c8:	2340      	movs	r3, #64	; 0x40
 80020ca:	1a5b      	subs	r3, r3, r1
 80020cc:	409a      	lsls	r2, r3
 80020ce:	4314      	orrs	r4, r2
 80020d0:	1e63      	subs	r3, r4, #1
 80020d2:	419c      	sbcs	r4, r3
 80020d4:	2300      	movs	r3, #0
 80020d6:	2600      	movs	r6, #0
 80020d8:	469a      	mov	sl, r3
 80020da:	4304      	orrs	r4, r0
 80020dc:	0763      	lsls	r3, r4, #29
 80020de:	d000      	beq.n	80020e2 <__aeabi_dsub+0x31a>
 80020e0:	e6fe      	b.n	8001ee0 <__aeabi_dsub+0x118>
 80020e2:	4652      	mov	r2, sl
 80020e4:	08e3      	lsrs	r3, r4, #3
 80020e6:	0752      	lsls	r2, r2, #29
 80020e8:	4313      	orrs	r3, r2
 80020ea:	4652      	mov	r2, sl
 80020ec:	46b4      	mov	ip, r6
 80020ee:	08d2      	lsrs	r2, r2, #3
 80020f0:	490f      	ldr	r1, [pc, #60]	; (8002130 <__aeabi_dsub+0x368>)
 80020f2:	458c      	cmp	ip, r1
 80020f4:	d02a      	beq.n	800214c <__aeabi_dsub+0x384>
 80020f6:	0312      	lsls	r2, r2, #12
 80020f8:	0b14      	lsrs	r4, r2, #12
 80020fa:	4662      	mov	r2, ip
 80020fc:	0552      	lsls	r2, r2, #21
 80020fe:	0d52      	lsrs	r2, r2, #21
 8002100:	e70c      	b.n	8001f1c <__aeabi_dsub+0x154>
 8002102:	003c      	movs	r4, r7
 8002104:	4304      	orrs	r4, r0
 8002106:	1e62      	subs	r2, r4, #1
 8002108:	4194      	sbcs	r4, r2
 800210a:	18e4      	adds	r4, r4, r3
 800210c:	429c      	cmp	r4, r3
 800210e:	4192      	sbcs	r2, r2
 8002110:	4252      	negs	r2, r2
 8002112:	444a      	add	r2, r9
 8002114:	4692      	mov	sl, r2
 8002116:	4653      	mov	r3, sl
 8002118:	021b      	lsls	r3, r3, #8
 800211a:	d5df      	bpl.n	80020dc <__aeabi_dsub+0x314>
 800211c:	4b04      	ldr	r3, [pc, #16]	; (8002130 <__aeabi_dsub+0x368>)
 800211e:	3601      	adds	r6, #1
 8002120:	429e      	cmp	r6, r3
 8002122:	d000      	beq.n	8002126 <__aeabi_dsub+0x35e>
 8002124:	e0a0      	b.n	8002268 <__aeabi_dsub+0x4a0>
 8002126:	0032      	movs	r2, r6
 8002128:	2400      	movs	r4, #0
 800212a:	2300      	movs	r3, #0
 800212c:	e6f6      	b.n	8001f1c <__aeabi_dsub+0x154>
 800212e:	46c0      	nop			; (mov r8, r8)
 8002130:	000007ff 	.word	0x000007ff
 8002134:	ff7fffff 	.word	0xff7fffff
 8002138:	fffff801 	.word	0xfffff801
 800213c:	000007fe 	.word	0x000007fe
 8002140:	08db      	lsrs	r3, r3, #3
 8002142:	464a      	mov	r2, r9
 8002144:	0752      	lsls	r2, r2, #29
 8002146:	4313      	orrs	r3, r2
 8002148:	464a      	mov	r2, r9
 800214a:	08d2      	lsrs	r2, r2, #3
 800214c:	0019      	movs	r1, r3
 800214e:	4311      	orrs	r1, r2
 8002150:	d100      	bne.n	8002154 <__aeabi_dsub+0x38c>
 8002152:	e1b5      	b.n	80024c0 <__aeabi_dsub+0x6f8>
 8002154:	2480      	movs	r4, #128	; 0x80
 8002156:	0324      	lsls	r4, r4, #12
 8002158:	4314      	orrs	r4, r2
 800215a:	0324      	lsls	r4, r4, #12
 800215c:	4ad5      	ldr	r2, [pc, #852]	; (80024b4 <__aeabi_dsub+0x6ec>)
 800215e:	0b24      	lsrs	r4, r4, #12
 8002160:	e6dc      	b.n	8001f1c <__aeabi_dsub+0x154>
 8002162:	0020      	movs	r0, r4
 8002164:	f000 faa6 	bl	80026b4 <__clzsi2>
 8002168:	0003      	movs	r3, r0
 800216a:	3318      	adds	r3, #24
 800216c:	2b1f      	cmp	r3, #31
 800216e:	dc00      	bgt.n	8002172 <__aeabi_dsub+0x3aa>
 8002170:	e695      	b.n	8001e9e <__aeabi_dsub+0xd6>
 8002172:	0022      	movs	r2, r4
 8002174:	3808      	subs	r0, #8
 8002176:	4082      	lsls	r2, r0
 8002178:	2400      	movs	r4, #0
 800217a:	429e      	cmp	r6, r3
 800217c:	dc00      	bgt.n	8002180 <__aeabi_dsub+0x3b8>
 800217e:	e69a      	b.n	8001eb6 <__aeabi_dsub+0xee>
 8002180:	1af6      	subs	r6, r6, r3
 8002182:	4bcd      	ldr	r3, [pc, #820]	; (80024b8 <__aeabi_dsub+0x6f0>)
 8002184:	401a      	ands	r2, r3
 8002186:	4692      	mov	sl, r2
 8002188:	e6a8      	b.n	8001edc <__aeabi_dsub+0x114>
 800218a:	003c      	movs	r4, r7
 800218c:	4304      	orrs	r4, r0
 800218e:	1e62      	subs	r2, r4, #1
 8002190:	4194      	sbcs	r4, r2
 8002192:	e66c      	b.n	8001e6e <__aeabi_dsub+0xa6>
 8002194:	464a      	mov	r2, r9
 8002196:	08db      	lsrs	r3, r3, #3
 8002198:	0752      	lsls	r2, r2, #29
 800219a:	4313      	orrs	r3, r2
 800219c:	464a      	mov	r2, r9
 800219e:	08d2      	lsrs	r2, r2, #3
 80021a0:	e7a6      	b.n	80020f0 <__aeabi_dsub+0x328>
 80021a2:	4cc6      	ldr	r4, [pc, #792]	; (80024bc <__aeabi_dsub+0x6f4>)
 80021a4:	1c72      	adds	r2, r6, #1
 80021a6:	4222      	tst	r2, r4
 80021a8:	d000      	beq.n	80021ac <__aeabi_dsub+0x3e4>
 80021aa:	e0ac      	b.n	8002306 <__aeabi_dsub+0x53e>
 80021ac:	464a      	mov	r2, r9
 80021ae:	431a      	orrs	r2, r3
 80021b0:	2e00      	cmp	r6, #0
 80021b2:	d000      	beq.n	80021b6 <__aeabi_dsub+0x3ee>
 80021b4:	e105      	b.n	80023c2 <__aeabi_dsub+0x5fa>
 80021b6:	2a00      	cmp	r2, #0
 80021b8:	d100      	bne.n	80021bc <__aeabi_dsub+0x3f4>
 80021ba:	e156      	b.n	800246a <__aeabi_dsub+0x6a2>
 80021bc:	003a      	movs	r2, r7
 80021be:	4302      	orrs	r2, r0
 80021c0:	d100      	bne.n	80021c4 <__aeabi_dsub+0x3fc>
 80021c2:	e0db      	b.n	800237c <__aeabi_dsub+0x5b4>
 80021c4:	181c      	adds	r4, r3, r0
 80021c6:	429c      	cmp	r4, r3
 80021c8:	419b      	sbcs	r3, r3
 80021ca:	444f      	add	r7, r9
 80021cc:	46ba      	mov	sl, r7
 80021ce:	425b      	negs	r3, r3
 80021d0:	449a      	add	sl, r3
 80021d2:	4653      	mov	r3, sl
 80021d4:	021b      	lsls	r3, r3, #8
 80021d6:	d400      	bmi.n	80021da <__aeabi_dsub+0x412>
 80021d8:	e780      	b.n	80020dc <__aeabi_dsub+0x314>
 80021da:	4652      	mov	r2, sl
 80021dc:	4bb6      	ldr	r3, [pc, #728]	; (80024b8 <__aeabi_dsub+0x6f0>)
 80021de:	2601      	movs	r6, #1
 80021e0:	401a      	ands	r2, r3
 80021e2:	4692      	mov	sl, r2
 80021e4:	e77a      	b.n	80020dc <__aeabi_dsub+0x314>
 80021e6:	4cb3      	ldr	r4, [pc, #716]	; (80024b4 <__aeabi_dsub+0x6ec>)
 80021e8:	42a2      	cmp	r2, r4
 80021ea:	d100      	bne.n	80021ee <__aeabi_dsub+0x426>
 80021ec:	e0c0      	b.n	8002370 <__aeabi_dsub+0x5a8>
 80021ee:	2480      	movs	r4, #128	; 0x80
 80021f0:	464d      	mov	r5, r9
 80021f2:	0424      	lsls	r4, r4, #16
 80021f4:	4325      	orrs	r5, r4
 80021f6:	46a9      	mov	r9, r5
 80021f8:	4664      	mov	r4, ip
 80021fa:	2c38      	cmp	r4, #56	; 0x38
 80021fc:	dc53      	bgt.n	80022a6 <__aeabi_dsub+0x4de>
 80021fe:	4661      	mov	r1, ip
 8002200:	2c1f      	cmp	r4, #31
 8002202:	dd00      	ble.n	8002206 <__aeabi_dsub+0x43e>
 8002204:	e0cd      	b.n	80023a2 <__aeabi_dsub+0x5da>
 8002206:	2520      	movs	r5, #32
 8002208:	001e      	movs	r6, r3
 800220a:	1b2d      	subs	r5, r5, r4
 800220c:	464c      	mov	r4, r9
 800220e:	40ab      	lsls	r3, r5
 8002210:	40ac      	lsls	r4, r5
 8002212:	40ce      	lsrs	r6, r1
 8002214:	1e5d      	subs	r5, r3, #1
 8002216:	41ab      	sbcs	r3, r5
 8002218:	4334      	orrs	r4, r6
 800221a:	4323      	orrs	r3, r4
 800221c:	464c      	mov	r4, r9
 800221e:	40cc      	lsrs	r4, r1
 8002220:	1b3f      	subs	r7, r7, r4
 8002222:	e045      	b.n	80022b0 <__aeabi_dsub+0x4e8>
 8002224:	464a      	mov	r2, r9
 8002226:	1a1c      	subs	r4, r3, r0
 8002228:	1bd1      	subs	r1, r2, r7
 800222a:	42a3      	cmp	r3, r4
 800222c:	4192      	sbcs	r2, r2
 800222e:	4252      	negs	r2, r2
 8002230:	4692      	mov	sl, r2
 8002232:	000a      	movs	r2, r1
 8002234:	4651      	mov	r1, sl
 8002236:	1a52      	subs	r2, r2, r1
 8002238:	4692      	mov	sl, r2
 800223a:	0212      	lsls	r2, r2, #8
 800223c:	d500      	bpl.n	8002240 <__aeabi_dsub+0x478>
 800223e:	e083      	b.n	8002348 <__aeabi_dsub+0x580>
 8002240:	4653      	mov	r3, sl
 8002242:	4323      	orrs	r3, r4
 8002244:	d000      	beq.n	8002248 <__aeabi_dsub+0x480>
 8002246:	e621      	b.n	8001e8c <__aeabi_dsub+0xc4>
 8002248:	2200      	movs	r2, #0
 800224a:	2500      	movs	r5, #0
 800224c:	e753      	b.n	80020f6 <__aeabi_dsub+0x32e>
 800224e:	181c      	adds	r4, r3, r0
 8002250:	429c      	cmp	r4, r3
 8002252:	419b      	sbcs	r3, r3
 8002254:	444f      	add	r7, r9
 8002256:	46ba      	mov	sl, r7
 8002258:	425b      	negs	r3, r3
 800225a:	449a      	add	sl, r3
 800225c:	4653      	mov	r3, sl
 800225e:	2601      	movs	r6, #1
 8002260:	021b      	lsls	r3, r3, #8
 8002262:	d400      	bmi.n	8002266 <__aeabi_dsub+0x49e>
 8002264:	e73a      	b.n	80020dc <__aeabi_dsub+0x314>
 8002266:	2602      	movs	r6, #2
 8002268:	4652      	mov	r2, sl
 800226a:	4b93      	ldr	r3, [pc, #588]	; (80024b8 <__aeabi_dsub+0x6f0>)
 800226c:	2101      	movs	r1, #1
 800226e:	401a      	ands	r2, r3
 8002270:	0013      	movs	r3, r2
 8002272:	4021      	ands	r1, r4
 8002274:	0862      	lsrs	r2, r4, #1
 8002276:	430a      	orrs	r2, r1
 8002278:	07dc      	lsls	r4, r3, #31
 800227a:	085b      	lsrs	r3, r3, #1
 800227c:	469a      	mov	sl, r3
 800227e:	4314      	orrs	r4, r2
 8002280:	e62c      	b.n	8001edc <__aeabi_dsub+0x114>
 8002282:	0039      	movs	r1, r7
 8002284:	3a20      	subs	r2, #32
 8002286:	40d1      	lsrs	r1, r2
 8002288:	4662      	mov	r2, ip
 800228a:	2a20      	cmp	r2, #32
 800228c:	d006      	beq.n	800229c <__aeabi_dsub+0x4d4>
 800228e:	4664      	mov	r4, ip
 8002290:	2240      	movs	r2, #64	; 0x40
 8002292:	1b12      	subs	r2, r2, r4
 8002294:	003c      	movs	r4, r7
 8002296:	4094      	lsls	r4, r2
 8002298:	4304      	orrs	r4, r0
 800229a:	9401      	str	r4, [sp, #4]
 800229c:	9c01      	ldr	r4, [sp, #4]
 800229e:	1e62      	subs	r2, r4, #1
 80022a0:	4194      	sbcs	r4, r2
 80022a2:	430c      	orrs	r4, r1
 80022a4:	e5e3      	b.n	8001e6e <__aeabi_dsub+0xa6>
 80022a6:	4649      	mov	r1, r9
 80022a8:	4319      	orrs	r1, r3
 80022aa:	000b      	movs	r3, r1
 80022ac:	1e5c      	subs	r4, r3, #1
 80022ae:	41a3      	sbcs	r3, r4
 80022b0:	1ac4      	subs	r4, r0, r3
 80022b2:	42a0      	cmp	r0, r4
 80022b4:	419b      	sbcs	r3, r3
 80022b6:	425b      	negs	r3, r3
 80022b8:	1afb      	subs	r3, r7, r3
 80022ba:	469a      	mov	sl, r3
 80022bc:	465d      	mov	r5, fp
 80022be:	0016      	movs	r6, r2
 80022c0:	e5dc      	b.n	8001e7c <__aeabi_dsub+0xb4>
 80022c2:	4649      	mov	r1, r9
 80022c4:	4319      	orrs	r1, r3
 80022c6:	d100      	bne.n	80022ca <__aeabi_dsub+0x502>
 80022c8:	e0ae      	b.n	8002428 <__aeabi_dsub+0x660>
 80022ca:	4661      	mov	r1, ip
 80022cc:	4664      	mov	r4, ip
 80022ce:	3901      	subs	r1, #1
 80022d0:	2c01      	cmp	r4, #1
 80022d2:	d100      	bne.n	80022d6 <__aeabi_dsub+0x50e>
 80022d4:	e0e0      	b.n	8002498 <__aeabi_dsub+0x6d0>
 80022d6:	4c77      	ldr	r4, [pc, #476]	; (80024b4 <__aeabi_dsub+0x6ec>)
 80022d8:	45a4      	cmp	ip, r4
 80022da:	d056      	beq.n	800238a <__aeabi_dsub+0x5c2>
 80022dc:	468c      	mov	ip, r1
 80022de:	e69a      	b.n	8002016 <__aeabi_dsub+0x24e>
 80022e0:	4661      	mov	r1, ip
 80022e2:	2220      	movs	r2, #32
 80022e4:	003c      	movs	r4, r7
 80022e6:	1a52      	subs	r2, r2, r1
 80022e8:	4094      	lsls	r4, r2
 80022ea:	0001      	movs	r1, r0
 80022ec:	4090      	lsls	r0, r2
 80022ee:	46a0      	mov	r8, r4
 80022f0:	4664      	mov	r4, ip
 80022f2:	1e42      	subs	r2, r0, #1
 80022f4:	4190      	sbcs	r0, r2
 80022f6:	4662      	mov	r2, ip
 80022f8:	40e1      	lsrs	r1, r4
 80022fa:	4644      	mov	r4, r8
 80022fc:	40d7      	lsrs	r7, r2
 80022fe:	430c      	orrs	r4, r1
 8002300:	4304      	orrs	r4, r0
 8002302:	44b9      	add	r9, r7
 8002304:	e701      	b.n	800210a <__aeabi_dsub+0x342>
 8002306:	496b      	ldr	r1, [pc, #428]	; (80024b4 <__aeabi_dsub+0x6ec>)
 8002308:	428a      	cmp	r2, r1
 800230a:	d100      	bne.n	800230e <__aeabi_dsub+0x546>
 800230c:	e70c      	b.n	8002128 <__aeabi_dsub+0x360>
 800230e:	1818      	adds	r0, r3, r0
 8002310:	4298      	cmp	r0, r3
 8002312:	419b      	sbcs	r3, r3
 8002314:	444f      	add	r7, r9
 8002316:	425b      	negs	r3, r3
 8002318:	18fb      	adds	r3, r7, r3
 800231a:	07dc      	lsls	r4, r3, #31
 800231c:	0840      	lsrs	r0, r0, #1
 800231e:	085b      	lsrs	r3, r3, #1
 8002320:	469a      	mov	sl, r3
 8002322:	0016      	movs	r6, r2
 8002324:	4304      	orrs	r4, r0
 8002326:	e6d9      	b.n	80020dc <__aeabi_dsub+0x314>
 8002328:	2a00      	cmp	r2, #0
 800232a:	d000      	beq.n	800232e <__aeabi_dsub+0x566>
 800232c:	e081      	b.n	8002432 <__aeabi_dsub+0x66a>
 800232e:	003b      	movs	r3, r7
 8002330:	4303      	orrs	r3, r0
 8002332:	d11d      	bne.n	8002370 <__aeabi_dsub+0x5a8>
 8002334:	2280      	movs	r2, #128	; 0x80
 8002336:	2500      	movs	r5, #0
 8002338:	0312      	lsls	r2, r2, #12
 800233a:	e70b      	b.n	8002154 <__aeabi_dsub+0x38c>
 800233c:	08c0      	lsrs	r0, r0, #3
 800233e:	077b      	lsls	r3, r7, #29
 8002340:	465d      	mov	r5, fp
 8002342:	4303      	orrs	r3, r0
 8002344:	08fa      	lsrs	r2, r7, #3
 8002346:	e6d3      	b.n	80020f0 <__aeabi_dsub+0x328>
 8002348:	1ac4      	subs	r4, r0, r3
 800234a:	42a0      	cmp	r0, r4
 800234c:	4180      	sbcs	r0, r0
 800234e:	464b      	mov	r3, r9
 8002350:	4240      	negs	r0, r0
 8002352:	1aff      	subs	r7, r7, r3
 8002354:	1a3b      	subs	r3, r7, r0
 8002356:	469a      	mov	sl, r3
 8002358:	465d      	mov	r5, fp
 800235a:	e597      	b.n	8001e8c <__aeabi_dsub+0xc4>
 800235c:	1a1c      	subs	r4, r3, r0
 800235e:	464a      	mov	r2, r9
 8002360:	42a3      	cmp	r3, r4
 8002362:	419b      	sbcs	r3, r3
 8002364:	1bd7      	subs	r7, r2, r7
 8002366:	425b      	negs	r3, r3
 8002368:	1afb      	subs	r3, r7, r3
 800236a:	469a      	mov	sl, r3
 800236c:	2601      	movs	r6, #1
 800236e:	e585      	b.n	8001e7c <__aeabi_dsub+0xb4>
 8002370:	08c0      	lsrs	r0, r0, #3
 8002372:	077b      	lsls	r3, r7, #29
 8002374:	465d      	mov	r5, fp
 8002376:	4303      	orrs	r3, r0
 8002378:	08fa      	lsrs	r2, r7, #3
 800237a:	e6e7      	b.n	800214c <__aeabi_dsub+0x384>
 800237c:	464a      	mov	r2, r9
 800237e:	08db      	lsrs	r3, r3, #3
 8002380:	0752      	lsls	r2, r2, #29
 8002382:	4313      	orrs	r3, r2
 8002384:	464a      	mov	r2, r9
 8002386:	08d2      	lsrs	r2, r2, #3
 8002388:	e6b5      	b.n	80020f6 <__aeabi_dsub+0x32e>
 800238a:	08c0      	lsrs	r0, r0, #3
 800238c:	077b      	lsls	r3, r7, #29
 800238e:	4303      	orrs	r3, r0
 8002390:	08fa      	lsrs	r2, r7, #3
 8002392:	e6db      	b.n	800214c <__aeabi_dsub+0x384>
 8002394:	4649      	mov	r1, r9
 8002396:	4319      	orrs	r1, r3
 8002398:	000b      	movs	r3, r1
 800239a:	1e59      	subs	r1, r3, #1
 800239c:	418b      	sbcs	r3, r1
 800239e:	001c      	movs	r4, r3
 80023a0:	e653      	b.n	800204a <__aeabi_dsub+0x282>
 80023a2:	464d      	mov	r5, r9
 80023a4:	3c20      	subs	r4, #32
 80023a6:	40e5      	lsrs	r5, r4
 80023a8:	2920      	cmp	r1, #32
 80023aa:	d005      	beq.n	80023b8 <__aeabi_dsub+0x5f0>
 80023ac:	2440      	movs	r4, #64	; 0x40
 80023ae:	1a64      	subs	r4, r4, r1
 80023b0:	4649      	mov	r1, r9
 80023b2:	40a1      	lsls	r1, r4
 80023b4:	430b      	orrs	r3, r1
 80023b6:	4698      	mov	r8, r3
 80023b8:	4643      	mov	r3, r8
 80023ba:	1e5c      	subs	r4, r3, #1
 80023bc:	41a3      	sbcs	r3, r4
 80023be:	432b      	orrs	r3, r5
 80023c0:	e776      	b.n	80022b0 <__aeabi_dsub+0x4e8>
 80023c2:	2a00      	cmp	r2, #0
 80023c4:	d0e1      	beq.n	800238a <__aeabi_dsub+0x5c2>
 80023c6:	003a      	movs	r2, r7
 80023c8:	08db      	lsrs	r3, r3, #3
 80023ca:	4302      	orrs	r2, r0
 80023cc:	d100      	bne.n	80023d0 <__aeabi_dsub+0x608>
 80023ce:	e6b8      	b.n	8002142 <__aeabi_dsub+0x37a>
 80023d0:	464a      	mov	r2, r9
 80023d2:	0752      	lsls	r2, r2, #29
 80023d4:	2480      	movs	r4, #128	; 0x80
 80023d6:	4313      	orrs	r3, r2
 80023d8:	464a      	mov	r2, r9
 80023da:	0324      	lsls	r4, r4, #12
 80023dc:	08d2      	lsrs	r2, r2, #3
 80023de:	4222      	tst	r2, r4
 80023e0:	d007      	beq.n	80023f2 <__aeabi_dsub+0x62a>
 80023e2:	08fe      	lsrs	r6, r7, #3
 80023e4:	4226      	tst	r6, r4
 80023e6:	d104      	bne.n	80023f2 <__aeabi_dsub+0x62a>
 80023e8:	465d      	mov	r5, fp
 80023ea:	0032      	movs	r2, r6
 80023ec:	08c3      	lsrs	r3, r0, #3
 80023ee:	077f      	lsls	r7, r7, #29
 80023f0:	433b      	orrs	r3, r7
 80023f2:	0f59      	lsrs	r1, r3, #29
 80023f4:	00db      	lsls	r3, r3, #3
 80023f6:	0749      	lsls	r1, r1, #29
 80023f8:	08db      	lsrs	r3, r3, #3
 80023fa:	430b      	orrs	r3, r1
 80023fc:	e6a6      	b.n	800214c <__aeabi_dsub+0x384>
 80023fe:	1ac4      	subs	r4, r0, r3
 8002400:	42a0      	cmp	r0, r4
 8002402:	4180      	sbcs	r0, r0
 8002404:	464b      	mov	r3, r9
 8002406:	4240      	negs	r0, r0
 8002408:	1aff      	subs	r7, r7, r3
 800240a:	1a3b      	subs	r3, r7, r0
 800240c:	469a      	mov	sl, r3
 800240e:	465d      	mov	r5, fp
 8002410:	2601      	movs	r6, #1
 8002412:	e533      	b.n	8001e7c <__aeabi_dsub+0xb4>
 8002414:	003b      	movs	r3, r7
 8002416:	4303      	orrs	r3, r0
 8002418:	d100      	bne.n	800241c <__aeabi_dsub+0x654>
 800241a:	e715      	b.n	8002248 <__aeabi_dsub+0x480>
 800241c:	08c0      	lsrs	r0, r0, #3
 800241e:	077b      	lsls	r3, r7, #29
 8002420:	465d      	mov	r5, fp
 8002422:	4303      	orrs	r3, r0
 8002424:	08fa      	lsrs	r2, r7, #3
 8002426:	e666      	b.n	80020f6 <__aeabi_dsub+0x32e>
 8002428:	08c0      	lsrs	r0, r0, #3
 800242a:	077b      	lsls	r3, r7, #29
 800242c:	4303      	orrs	r3, r0
 800242e:	08fa      	lsrs	r2, r7, #3
 8002430:	e65e      	b.n	80020f0 <__aeabi_dsub+0x328>
 8002432:	003a      	movs	r2, r7
 8002434:	08db      	lsrs	r3, r3, #3
 8002436:	4302      	orrs	r2, r0
 8002438:	d100      	bne.n	800243c <__aeabi_dsub+0x674>
 800243a:	e682      	b.n	8002142 <__aeabi_dsub+0x37a>
 800243c:	464a      	mov	r2, r9
 800243e:	0752      	lsls	r2, r2, #29
 8002440:	2480      	movs	r4, #128	; 0x80
 8002442:	4313      	orrs	r3, r2
 8002444:	464a      	mov	r2, r9
 8002446:	0324      	lsls	r4, r4, #12
 8002448:	08d2      	lsrs	r2, r2, #3
 800244a:	4222      	tst	r2, r4
 800244c:	d007      	beq.n	800245e <__aeabi_dsub+0x696>
 800244e:	08fe      	lsrs	r6, r7, #3
 8002450:	4226      	tst	r6, r4
 8002452:	d104      	bne.n	800245e <__aeabi_dsub+0x696>
 8002454:	465d      	mov	r5, fp
 8002456:	0032      	movs	r2, r6
 8002458:	08c3      	lsrs	r3, r0, #3
 800245a:	077f      	lsls	r7, r7, #29
 800245c:	433b      	orrs	r3, r7
 800245e:	0f59      	lsrs	r1, r3, #29
 8002460:	00db      	lsls	r3, r3, #3
 8002462:	08db      	lsrs	r3, r3, #3
 8002464:	0749      	lsls	r1, r1, #29
 8002466:	430b      	orrs	r3, r1
 8002468:	e670      	b.n	800214c <__aeabi_dsub+0x384>
 800246a:	08c0      	lsrs	r0, r0, #3
 800246c:	077b      	lsls	r3, r7, #29
 800246e:	4303      	orrs	r3, r0
 8002470:	08fa      	lsrs	r2, r7, #3
 8002472:	e640      	b.n	80020f6 <__aeabi_dsub+0x32e>
 8002474:	464c      	mov	r4, r9
 8002476:	3920      	subs	r1, #32
 8002478:	40cc      	lsrs	r4, r1
 800247a:	4661      	mov	r1, ip
 800247c:	2920      	cmp	r1, #32
 800247e:	d006      	beq.n	800248e <__aeabi_dsub+0x6c6>
 8002480:	4666      	mov	r6, ip
 8002482:	2140      	movs	r1, #64	; 0x40
 8002484:	1b89      	subs	r1, r1, r6
 8002486:	464e      	mov	r6, r9
 8002488:	408e      	lsls	r6, r1
 800248a:	4333      	orrs	r3, r6
 800248c:	4698      	mov	r8, r3
 800248e:	4643      	mov	r3, r8
 8002490:	1e59      	subs	r1, r3, #1
 8002492:	418b      	sbcs	r3, r1
 8002494:	431c      	orrs	r4, r3
 8002496:	e5d8      	b.n	800204a <__aeabi_dsub+0x282>
 8002498:	181c      	adds	r4, r3, r0
 800249a:	4284      	cmp	r4, r0
 800249c:	4180      	sbcs	r0, r0
 800249e:	444f      	add	r7, r9
 80024a0:	46ba      	mov	sl, r7
 80024a2:	4240      	negs	r0, r0
 80024a4:	4482      	add	sl, r0
 80024a6:	e6d9      	b.n	800225c <__aeabi_dsub+0x494>
 80024a8:	4653      	mov	r3, sl
 80024aa:	4323      	orrs	r3, r4
 80024ac:	d100      	bne.n	80024b0 <__aeabi_dsub+0x6e8>
 80024ae:	e6cb      	b.n	8002248 <__aeabi_dsub+0x480>
 80024b0:	e614      	b.n	80020dc <__aeabi_dsub+0x314>
 80024b2:	46c0      	nop			; (mov r8, r8)
 80024b4:	000007ff 	.word	0x000007ff
 80024b8:	ff7fffff 	.word	0xff7fffff
 80024bc:	000007fe 	.word	0x000007fe
 80024c0:	2300      	movs	r3, #0
 80024c2:	4a01      	ldr	r2, [pc, #4]	; (80024c8 <__aeabi_dsub+0x700>)
 80024c4:	001c      	movs	r4, r3
 80024c6:	e529      	b.n	8001f1c <__aeabi_dsub+0x154>
 80024c8:	000007ff 	.word	0x000007ff

080024cc <__aeabi_ui2d>:
 80024cc:	b510      	push	{r4, lr}
 80024ce:	1e04      	subs	r4, r0, #0
 80024d0:	d010      	beq.n	80024f4 <__aeabi_ui2d+0x28>
 80024d2:	f000 f8ef 	bl	80026b4 <__clzsi2>
 80024d6:	4b0f      	ldr	r3, [pc, #60]	; (8002514 <__aeabi_ui2d+0x48>)
 80024d8:	1a1b      	subs	r3, r3, r0
 80024da:	280a      	cmp	r0, #10
 80024dc:	dc11      	bgt.n	8002502 <__aeabi_ui2d+0x36>
 80024de:	220b      	movs	r2, #11
 80024e0:	0021      	movs	r1, r4
 80024e2:	1a12      	subs	r2, r2, r0
 80024e4:	40d1      	lsrs	r1, r2
 80024e6:	3015      	adds	r0, #21
 80024e8:	030a      	lsls	r2, r1, #12
 80024ea:	055b      	lsls	r3, r3, #21
 80024ec:	4084      	lsls	r4, r0
 80024ee:	0b12      	lsrs	r2, r2, #12
 80024f0:	0d5b      	lsrs	r3, r3, #21
 80024f2:	e001      	b.n	80024f8 <__aeabi_ui2d+0x2c>
 80024f4:	2300      	movs	r3, #0
 80024f6:	2200      	movs	r2, #0
 80024f8:	051b      	lsls	r3, r3, #20
 80024fa:	4313      	orrs	r3, r2
 80024fc:	0020      	movs	r0, r4
 80024fe:	0019      	movs	r1, r3
 8002500:	bd10      	pop	{r4, pc}
 8002502:	0022      	movs	r2, r4
 8002504:	380b      	subs	r0, #11
 8002506:	4082      	lsls	r2, r0
 8002508:	055b      	lsls	r3, r3, #21
 800250a:	0312      	lsls	r2, r2, #12
 800250c:	2400      	movs	r4, #0
 800250e:	0b12      	lsrs	r2, r2, #12
 8002510:	0d5b      	lsrs	r3, r3, #21
 8002512:	e7f1      	b.n	80024f8 <__aeabi_ui2d+0x2c>
 8002514:	0000041e 	.word	0x0000041e

08002518 <__aeabi_f2d>:
 8002518:	b570      	push	{r4, r5, r6, lr}
 800251a:	0242      	lsls	r2, r0, #9
 800251c:	0043      	lsls	r3, r0, #1
 800251e:	0fc4      	lsrs	r4, r0, #31
 8002520:	20fe      	movs	r0, #254	; 0xfe
 8002522:	0e1b      	lsrs	r3, r3, #24
 8002524:	1c59      	adds	r1, r3, #1
 8002526:	0a55      	lsrs	r5, r2, #9
 8002528:	4208      	tst	r0, r1
 800252a:	d00c      	beq.n	8002546 <__aeabi_f2d+0x2e>
 800252c:	21e0      	movs	r1, #224	; 0xe0
 800252e:	0089      	lsls	r1, r1, #2
 8002530:	468c      	mov	ip, r1
 8002532:	076d      	lsls	r5, r5, #29
 8002534:	0b12      	lsrs	r2, r2, #12
 8002536:	4463      	add	r3, ip
 8002538:	051b      	lsls	r3, r3, #20
 800253a:	4313      	orrs	r3, r2
 800253c:	07e4      	lsls	r4, r4, #31
 800253e:	4323      	orrs	r3, r4
 8002540:	0028      	movs	r0, r5
 8002542:	0019      	movs	r1, r3
 8002544:	bd70      	pop	{r4, r5, r6, pc}
 8002546:	2b00      	cmp	r3, #0
 8002548:	d114      	bne.n	8002574 <__aeabi_f2d+0x5c>
 800254a:	2d00      	cmp	r5, #0
 800254c:	d01b      	beq.n	8002586 <__aeabi_f2d+0x6e>
 800254e:	0028      	movs	r0, r5
 8002550:	f000 f8b0 	bl	80026b4 <__clzsi2>
 8002554:	280a      	cmp	r0, #10
 8002556:	dc1c      	bgt.n	8002592 <__aeabi_f2d+0x7a>
 8002558:	230b      	movs	r3, #11
 800255a:	002a      	movs	r2, r5
 800255c:	1a1b      	subs	r3, r3, r0
 800255e:	40da      	lsrs	r2, r3
 8002560:	0003      	movs	r3, r0
 8002562:	3315      	adds	r3, #21
 8002564:	409d      	lsls	r5, r3
 8002566:	4b0e      	ldr	r3, [pc, #56]	; (80025a0 <__aeabi_f2d+0x88>)
 8002568:	0312      	lsls	r2, r2, #12
 800256a:	1a1b      	subs	r3, r3, r0
 800256c:	055b      	lsls	r3, r3, #21
 800256e:	0b12      	lsrs	r2, r2, #12
 8002570:	0d5b      	lsrs	r3, r3, #21
 8002572:	e7e1      	b.n	8002538 <__aeabi_f2d+0x20>
 8002574:	2d00      	cmp	r5, #0
 8002576:	d009      	beq.n	800258c <__aeabi_f2d+0x74>
 8002578:	0b13      	lsrs	r3, r2, #12
 800257a:	2280      	movs	r2, #128	; 0x80
 800257c:	0312      	lsls	r2, r2, #12
 800257e:	431a      	orrs	r2, r3
 8002580:	076d      	lsls	r5, r5, #29
 8002582:	4b08      	ldr	r3, [pc, #32]	; (80025a4 <__aeabi_f2d+0x8c>)
 8002584:	e7d8      	b.n	8002538 <__aeabi_f2d+0x20>
 8002586:	2300      	movs	r3, #0
 8002588:	2200      	movs	r2, #0
 800258a:	e7d5      	b.n	8002538 <__aeabi_f2d+0x20>
 800258c:	2200      	movs	r2, #0
 800258e:	4b05      	ldr	r3, [pc, #20]	; (80025a4 <__aeabi_f2d+0x8c>)
 8002590:	e7d2      	b.n	8002538 <__aeabi_f2d+0x20>
 8002592:	0003      	movs	r3, r0
 8002594:	002a      	movs	r2, r5
 8002596:	3b0b      	subs	r3, #11
 8002598:	409a      	lsls	r2, r3
 800259a:	2500      	movs	r5, #0
 800259c:	e7e3      	b.n	8002566 <__aeabi_f2d+0x4e>
 800259e:	46c0      	nop			; (mov r8, r8)
 80025a0:	00000389 	.word	0x00000389
 80025a4:	000007ff 	.word	0x000007ff

080025a8 <__aeabi_d2f>:
 80025a8:	0002      	movs	r2, r0
 80025aa:	b5f0      	push	{r4, r5, r6, r7, lr}
 80025ac:	004b      	lsls	r3, r1, #1
 80025ae:	030d      	lsls	r5, r1, #12
 80025b0:	0f40      	lsrs	r0, r0, #29
 80025b2:	0d5b      	lsrs	r3, r3, #21
 80025b4:	0fcc      	lsrs	r4, r1, #31
 80025b6:	0a6d      	lsrs	r5, r5, #9
 80025b8:	493a      	ldr	r1, [pc, #232]	; (80026a4 <__aeabi_d2f+0xfc>)
 80025ba:	4305      	orrs	r5, r0
 80025bc:	1c58      	adds	r0, r3, #1
 80025be:	00d7      	lsls	r7, r2, #3
 80025c0:	4208      	tst	r0, r1
 80025c2:	d00a      	beq.n	80025da <__aeabi_d2f+0x32>
 80025c4:	4938      	ldr	r1, [pc, #224]	; (80026a8 <__aeabi_d2f+0x100>)
 80025c6:	1859      	adds	r1, r3, r1
 80025c8:	29fe      	cmp	r1, #254	; 0xfe
 80025ca:	dd16      	ble.n	80025fa <__aeabi_d2f+0x52>
 80025cc:	20ff      	movs	r0, #255	; 0xff
 80025ce:	2200      	movs	r2, #0
 80025d0:	05c0      	lsls	r0, r0, #23
 80025d2:	4310      	orrs	r0, r2
 80025d4:	07e4      	lsls	r4, r4, #31
 80025d6:	4320      	orrs	r0, r4
 80025d8:	bdf0      	pop	{r4, r5, r6, r7, pc}
 80025da:	2b00      	cmp	r3, #0
 80025dc:	d106      	bne.n	80025ec <__aeabi_d2f+0x44>
 80025de:	433d      	orrs	r5, r7
 80025e0:	d026      	beq.n	8002630 <__aeabi_d2f+0x88>
 80025e2:	2205      	movs	r2, #5
 80025e4:	0192      	lsls	r2, r2, #6
 80025e6:	0a52      	lsrs	r2, r2, #9
 80025e8:	b2d8      	uxtb	r0, r3
 80025ea:	e7f1      	b.n	80025d0 <__aeabi_d2f+0x28>
 80025ec:	432f      	orrs	r7, r5
 80025ee:	d0ed      	beq.n	80025cc <__aeabi_d2f+0x24>
 80025f0:	2280      	movs	r2, #128	; 0x80
 80025f2:	03d2      	lsls	r2, r2, #15
 80025f4:	20ff      	movs	r0, #255	; 0xff
 80025f6:	432a      	orrs	r2, r5
 80025f8:	e7ea      	b.n	80025d0 <__aeabi_d2f+0x28>
 80025fa:	2900      	cmp	r1, #0
 80025fc:	dd1b      	ble.n	8002636 <__aeabi_d2f+0x8e>
 80025fe:	0192      	lsls	r2, r2, #6
 8002600:	1e50      	subs	r0, r2, #1
 8002602:	4182      	sbcs	r2, r0
 8002604:	00ed      	lsls	r5, r5, #3
 8002606:	0f7f      	lsrs	r7, r7, #29
 8002608:	432a      	orrs	r2, r5
 800260a:	433a      	orrs	r2, r7
 800260c:	0753      	lsls	r3, r2, #29
 800260e:	d047      	beq.n	80026a0 <__aeabi_d2f+0xf8>
 8002610:	230f      	movs	r3, #15
 8002612:	4013      	ands	r3, r2
 8002614:	2b04      	cmp	r3, #4
 8002616:	d000      	beq.n	800261a <__aeabi_d2f+0x72>
 8002618:	3204      	adds	r2, #4
 800261a:	2380      	movs	r3, #128	; 0x80
 800261c:	04db      	lsls	r3, r3, #19
 800261e:	4013      	ands	r3, r2
 8002620:	d03e      	beq.n	80026a0 <__aeabi_d2f+0xf8>
 8002622:	1c48      	adds	r0, r1, #1
 8002624:	29fe      	cmp	r1, #254	; 0xfe
 8002626:	d0d1      	beq.n	80025cc <__aeabi_d2f+0x24>
 8002628:	0192      	lsls	r2, r2, #6
 800262a:	0a52      	lsrs	r2, r2, #9
 800262c:	b2c0      	uxtb	r0, r0
 800262e:	e7cf      	b.n	80025d0 <__aeabi_d2f+0x28>
 8002630:	2000      	movs	r0, #0
 8002632:	2200      	movs	r2, #0
 8002634:	e7cc      	b.n	80025d0 <__aeabi_d2f+0x28>
 8002636:	000a      	movs	r2, r1
 8002638:	3217      	adds	r2, #23
 800263a:	db2f      	blt.n	800269c <__aeabi_d2f+0xf4>
 800263c:	2680      	movs	r6, #128	; 0x80
 800263e:	0436      	lsls	r6, r6, #16
 8002640:	432e      	orrs	r6, r5
 8002642:	251e      	movs	r5, #30
 8002644:	1a6d      	subs	r5, r5, r1
 8002646:	2d1f      	cmp	r5, #31
 8002648:	dd11      	ble.n	800266e <__aeabi_d2f+0xc6>
 800264a:	2202      	movs	r2, #2
 800264c:	4252      	negs	r2, r2
 800264e:	1a52      	subs	r2, r2, r1
 8002650:	0031      	movs	r1, r6
 8002652:	40d1      	lsrs	r1, r2
 8002654:	2d20      	cmp	r5, #32
 8002656:	d004      	beq.n	8002662 <__aeabi_d2f+0xba>
 8002658:	4a14      	ldr	r2, [pc, #80]	; (80026ac <__aeabi_d2f+0x104>)
 800265a:	4694      	mov	ip, r2
 800265c:	4463      	add	r3, ip
 800265e:	409e      	lsls	r6, r3
 8002660:	4337      	orrs	r7, r6
 8002662:	003a      	movs	r2, r7
 8002664:	1e53      	subs	r3, r2, #1
 8002666:	419a      	sbcs	r2, r3
 8002668:	430a      	orrs	r2, r1
 800266a:	2100      	movs	r1, #0
 800266c:	e7ce      	b.n	800260c <__aeabi_d2f+0x64>
 800266e:	4a10      	ldr	r2, [pc, #64]	; (80026b0 <__aeabi_d2f+0x108>)
 8002670:	0038      	movs	r0, r7
 8002672:	4694      	mov	ip, r2
 8002674:	4463      	add	r3, ip
 8002676:	4098      	lsls	r0, r3
 8002678:	003a      	movs	r2, r7
 800267a:	1e41      	subs	r1, r0, #1
 800267c:	4188      	sbcs	r0, r1
 800267e:	409e      	lsls	r6, r3
 8002680:	40ea      	lsrs	r2, r5
 8002682:	4330      	orrs	r0, r6
 8002684:	4302      	orrs	r2, r0
 8002686:	2100      	movs	r1, #0
 8002688:	0753      	lsls	r3, r2, #29
 800268a:	d1c1      	bne.n	8002610 <__aeabi_d2f+0x68>
 800268c:	2180      	movs	r1, #128	; 0x80
 800268e:	0013      	movs	r3, r2
 8002690:	04c9      	lsls	r1, r1, #19
 8002692:	2001      	movs	r0, #1
 8002694:	400b      	ands	r3, r1
 8002696:	420a      	tst	r2, r1
 8002698:	d1c6      	bne.n	8002628 <__aeabi_d2f+0x80>
 800269a:	e7a3      	b.n	80025e4 <__aeabi_d2f+0x3c>
 800269c:	2300      	movs	r3, #0
 800269e:	e7a0      	b.n	80025e2 <__aeabi_d2f+0x3a>
 80026a0:	000b      	movs	r3, r1
 80026a2:	e79f      	b.n	80025e4 <__aeabi_d2f+0x3c>
 80026a4:	000007fe 	.word	0x000007fe
 80026a8:	fffffc80 	.word	0xfffffc80
 80026ac:	fffffca2 	.word	0xfffffca2
 80026b0:	fffffc82 	.word	0xfffffc82

080026b4 <__clzsi2>:
 80026b4:	211c      	movs	r1, #28
 80026b6:	2301      	movs	r3, #1
 80026b8:	041b      	lsls	r3, r3, #16
 80026ba:	4298      	cmp	r0, r3
 80026bc:	d301      	bcc.n	80026c2 <__clzsi2+0xe>
 80026be:	0c00      	lsrs	r0, r0, #16
 80026c0:	3910      	subs	r1, #16
 80026c2:	0a1b      	lsrs	r3, r3, #8
 80026c4:	4298      	cmp	r0, r3
 80026c6:	d301      	bcc.n	80026cc <__clzsi2+0x18>
 80026c8:	0a00      	lsrs	r0, r0, #8
 80026ca:	3908      	subs	r1, #8
 80026cc:	091b      	lsrs	r3, r3, #4
 80026ce:	4298      	cmp	r0, r3
 80026d0:	d301      	bcc.n	80026d6 <__clzsi2+0x22>
 80026d2:	0900      	lsrs	r0, r0, #4
 80026d4:	3904      	subs	r1, #4
 80026d6:	a202      	add	r2, pc, #8	; (adr r2, 80026e0 <__clzsi2+0x2c>)
 80026d8:	5c10      	ldrb	r0, [r2, r0]
 80026da:	1840      	adds	r0, r0, r1
 80026dc:	4770      	bx	lr
 80026de:	46c0      	nop			; (mov r8, r8)
 80026e0:	02020304 	.word	0x02020304
 80026e4:	01010101 	.word	0x01010101
	...

080026f0 <drawPixel>:
extern uint8_t _rowstart;       ///< Some displays need this changed to offset
extern uint8_t _xstart;
extern uint8_t _ystart;

void drawPixel(int16_t x, int16_t y, uint16_t color)
{
 80026f0:	b590      	push	{r4, r7, lr}
 80026f2:	b083      	sub	sp, #12
 80026f4:	af00      	add	r7, sp, #0
 80026f6:	0004      	movs	r4, r0
 80026f8:	0008      	movs	r0, r1
 80026fa:	0011      	movs	r1, r2
 80026fc:	1dbb      	adds	r3, r7, #6
 80026fe:	1c22      	adds	r2, r4, #0
 8002700:	801a      	strh	r2, [r3, #0]
 8002702:	1d3b      	adds	r3, r7, #4
 8002704:	1c02      	adds	r2, r0, #0
 8002706:	801a      	strh	r2, [r3, #0]
 8002708:	1cbb      	adds	r3, r7, #2
 800270a:	1c0a      	adds	r2, r1, #0
 800270c:	801a      	strh	r2, [r3, #0]
	ST7735_DrawPixel(x, y, color);
 800270e:	1dbb      	adds	r3, r7, #6
 8002710:	8818      	ldrh	r0, [r3, #0]
 8002712:	1d3b      	adds	r3, r7, #4
 8002714:	8819      	ldrh	r1, [r3, #0]
 8002716:	1cbb      	adds	r3, r7, #2
 8002718:	881b      	ldrh	r3, [r3, #0]
 800271a:	001a      	movs	r2, r3
 800271c:	f001 faa0 	bl	8003c60 <ST7735_DrawPixel>
}
 8002720:	46c0      	nop			; (mov r8, r8)
 8002722:	46bd      	mov	sp, r7
 8002724:	b003      	add	sp, #12
 8002726:	bd90      	pop	{r4, r7, pc}

08002728 <fillRect>:

void fillRect(int16_t x, int16_t y, int16_t w, int16_t h, uint16_t color)
{
 8002728:	b5b0      	push	{r4, r5, r7, lr}
 800272a:	b084      	sub	sp, #16
 800272c:	af02      	add	r7, sp, #8
 800272e:	0005      	movs	r5, r0
 8002730:	000c      	movs	r4, r1
 8002732:	0010      	movs	r0, r2
 8002734:	0019      	movs	r1, r3
 8002736:	1dbb      	adds	r3, r7, #6
 8002738:	1c2a      	adds	r2, r5, #0
 800273a:	801a      	strh	r2, [r3, #0]
 800273c:	1d3b      	adds	r3, r7, #4
 800273e:	1c22      	adds	r2, r4, #0
 8002740:	801a      	strh	r2, [r3, #0]
 8002742:	1cbb      	adds	r3, r7, #2
 8002744:	1c02      	adds	r2, r0, #0
 8002746:	801a      	strh	r2, [r3, #0]
 8002748:	003b      	movs	r3, r7
 800274a:	1c0a      	adds	r2, r1, #0
 800274c:	801a      	strh	r2, [r3, #0]
	ST7735_FillRectangle(x, y, w, h, color);
 800274e:	1dbb      	adds	r3, r7, #6
 8002750:	8818      	ldrh	r0, [r3, #0]
 8002752:	1d3b      	adds	r3, r7, #4
 8002754:	8819      	ldrh	r1, [r3, #0]
 8002756:	1cbb      	adds	r3, r7, #2
 8002758:	881a      	ldrh	r2, [r3, #0]
 800275a:	003b      	movs	r3, r7
 800275c:	881c      	ldrh	r4, [r3, #0]
 800275e:	2318      	movs	r3, #24
 8002760:	18fb      	adds	r3, r7, r3
 8002762:	881b      	ldrh	r3, [r3, #0]
 8002764:	9300      	str	r3, [sp, #0]
 8002766:	0023      	movs	r3, r4
 8002768:	f001 fbf6 	bl	8003f58 <ST7735_FillRectangle>
}
 800276c:	46c0      	nop			; (mov r8, r8)
 800276e:	46bd      	mov	sp, r7
 8002770:	b002      	add	sp, #8
 8002772:	bdb0      	pop	{r4, r5, r7, pc}

08002774 <writePixel>:

#define min(a, b) (((a) < (b)) ? (a) : (b))


void writePixel(int16_t x, int16_t y, uint16_t color)
{
 8002774:	b590      	push	{r4, r7, lr}
 8002776:	b083      	sub	sp, #12
 8002778:	af00      	add	r7, sp, #0
 800277a:	0004      	movs	r4, r0
 800277c:	0008      	movs	r0, r1
 800277e:	0011      	movs	r1, r2
 8002780:	1dbb      	adds	r3, r7, #6
 8002782:	1c22      	adds	r2, r4, #0
 8002784:	801a      	strh	r2, [r3, #0]
 8002786:	1d3b      	adds	r3, r7, #4
 8002788:	1c02      	adds	r2, r0, #0
 800278a:	801a      	strh	r2, [r3, #0]
 800278c:	1cbb      	adds	r3, r7, #2
 800278e:	1c0a      	adds	r2, r1, #0
 8002790:	801a      	strh	r2, [r3, #0]
    drawPixel(x, y, color);
 8002792:	1cbb      	adds	r3, r7, #2
 8002794:	881a      	ldrh	r2, [r3, #0]
 8002796:	1d3b      	adds	r3, r7, #4
 8002798:	2100      	movs	r1, #0
 800279a:	5e59      	ldrsh	r1, [r3, r1]
 800279c:	1dbb      	adds	r3, r7, #6
 800279e:	2000      	movs	r0, #0
 80027a0:	5e1b      	ldrsh	r3, [r3, r0]
 80027a2:	0018      	movs	r0, r3
 80027a4:	f7ff ffa4 	bl	80026f0 <drawPixel>
}
 80027a8:	46c0      	nop			; (mov r8, r8)
 80027aa:	46bd      	mov	sp, r7
 80027ac:	b003      	add	sp, #12
 80027ae:	bd90      	pop	{r4, r7, pc}

080027b0 <writeLine>:

void writeLine(int16_t x0, int16_t y0, int16_t x1, int16_t y1, uint16_t color)
{
 80027b0:	b5b0      	push	{r4, r5, r7, lr}
 80027b2:	b088      	sub	sp, #32
 80027b4:	af00      	add	r7, sp, #0
 80027b6:	0005      	movs	r5, r0
 80027b8:	000c      	movs	r4, r1
 80027ba:	0010      	movs	r0, r2
 80027bc:	0019      	movs	r1, r3
 80027be:	1dbb      	adds	r3, r7, #6
 80027c0:	1c2a      	adds	r2, r5, #0
 80027c2:	801a      	strh	r2, [r3, #0]
 80027c4:	1d3b      	adds	r3, r7, #4
 80027c6:	1c22      	adds	r2, r4, #0
 80027c8:	801a      	strh	r2, [r3, #0]
 80027ca:	1cbb      	adds	r3, r7, #2
 80027cc:	1c02      	adds	r2, r0, #0
 80027ce:	801a      	strh	r2, [r3, #0]
 80027d0:	003b      	movs	r3, r7
 80027d2:	1c0a      	adds	r2, r1, #0
 80027d4:	801a      	strh	r2, [r3, #0]
    int16_t steep = abs(y1 - y0) > abs(x1 - x0);
 80027d6:	003b      	movs	r3, r7
 80027d8:	2200      	movs	r2, #0
 80027da:	5e9a      	ldrsh	r2, [r3, r2]
 80027dc:	1d3b      	adds	r3, r7, #4
 80027de:	2100      	movs	r1, #0
 80027e0:	5e5b      	ldrsh	r3, [r3, r1]
 80027e2:	1ad3      	subs	r3, r2, r3
 80027e4:	17d9      	asrs	r1, r3, #31
 80027e6:	185a      	adds	r2, r3, r1
 80027e8:	404a      	eors	r2, r1
 80027ea:	1cbb      	adds	r3, r7, #2
 80027ec:	2100      	movs	r1, #0
 80027ee:	5e59      	ldrsh	r1, [r3, r1]
 80027f0:	1dbb      	adds	r3, r7, #6
 80027f2:	2000      	movs	r0, #0
 80027f4:	5e1b      	ldrsh	r3, [r3, r0]
 80027f6:	1acb      	subs	r3, r1, r3
 80027f8:	17d9      	asrs	r1, r3, #31
 80027fa:	185b      	adds	r3, r3, r1
 80027fc:	404b      	eors	r3, r1
 80027fe:	2101      	movs	r1, #1
 8002800:	429a      	cmp	r2, r3
 8002802:	dc01      	bgt.n	8002808 <writeLine+0x58>
 8002804:	2300      	movs	r3, #0
 8002806:	1c19      	adds	r1, r3, #0
 8002808:	b2ca      	uxtb	r2, r1
 800280a:	211a      	movs	r1, #26
 800280c:	187b      	adds	r3, r7, r1
 800280e:	801a      	strh	r2, [r3, #0]
    if (steep) {
 8002810:	187b      	adds	r3, r7, r1
 8002812:	2200      	movs	r2, #0
 8002814:	5e9b      	ldrsh	r3, [r3, r2]
 8002816:	2b00      	cmp	r3, #0
 8002818:	d019      	beq.n	800284e <writeLine+0x9e>
        _swap_int16_t(x0, y0);
 800281a:	2118      	movs	r1, #24
 800281c:	187b      	adds	r3, r7, r1
 800281e:	1dba      	adds	r2, r7, #6
 8002820:	8812      	ldrh	r2, [r2, #0]
 8002822:	801a      	strh	r2, [r3, #0]
 8002824:	1dbb      	adds	r3, r7, #6
 8002826:	1d3a      	adds	r2, r7, #4
 8002828:	8812      	ldrh	r2, [r2, #0]
 800282a:	801a      	strh	r2, [r3, #0]
 800282c:	1d3b      	adds	r3, r7, #4
 800282e:	187a      	adds	r2, r7, r1
 8002830:	8812      	ldrh	r2, [r2, #0]
 8002832:	801a      	strh	r2, [r3, #0]
        _swap_int16_t(x1, y1);
 8002834:	2116      	movs	r1, #22
 8002836:	187b      	adds	r3, r7, r1
 8002838:	1cba      	adds	r2, r7, #2
 800283a:	8812      	ldrh	r2, [r2, #0]
 800283c:	801a      	strh	r2, [r3, #0]
 800283e:	1cbb      	adds	r3, r7, #2
 8002840:	003a      	movs	r2, r7
 8002842:	8812      	ldrh	r2, [r2, #0]
 8002844:	801a      	strh	r2, [r3, #0]
 8002846:	003b      	movs	r3, r7
 8002848:	187a      	adds	r2, r7, r1
 800284a:	8812      	ldrh	r2, [r2, #0]
 800284c:	801a      	strh	r2, [r3, #0]
    }

    if (x0 > x1) {
 800284e:	1dba      	adds	r2, r7, #6
 8002850:	1cbb      	adds	r3, r7, #2
 8002852:	2100      	movs	r1, #0
 8002854:	5e52      	ldrsh	r2, [r2, r1]
 8002856:	2100      	movs	r1, #0
 8002858:	5e5b      	ldrsh	r3, [r3, r1]
 800285a:	429a      	cmp	r2, r3
 800285c:	dd19      	ble.n	8002892 <writeLine+0xe2>
        _swap_int16_t(x0, x1);
 800285e:	2114      	movs	r1, #20
 8002860:	187b      	adds	r3, r7, r1
 8002862:	1dba      	adds	r2, r7, #6
 8002864:	8812      	ldrh	r2, [r2, #0]
 8002866:	801a      	strh	r2, [r3, #0]
 8002868:	1dbb      	adds	r3, r7, #6
 800286a:	1cba      	adds	r2, r7, #2
 800286c:	8812      	ldrh	r2, [r2, #0]
 800286e:	801a      	strh	r2, [r3, #0]
 8002870:	1cbb      	adds	r3, r7, #2
 8002872:	187a      	adds	r2, r7, r1
 8002874:	8812      	ldrh	r2, [r2, #0]
 8002876:	801a      	strh	r2, [r3, #0]
        _swap_int16_t(y0, y1);
 8002878:	2112      	movs	r1, #18
 800287a:	187b      	adds	r3, r7, r1
 800287c:	1d3a      	adds	r2, r7, #4
 800287e:	8812      	ldrh	r2, [r2, #0]
 8002880:	801a      	strh	r2, [r3, #0]
 8002882:	1d3b      	adds	r3, r7, #4
 8002884:	003a      	movs	r2, r7
 8002886:	8812      	ldrh	r2, [r2, #0]
 8002888:	801a      	strh	r2, [r3, #0]
 800288a:	003b      	movs	r3, r7
 800288c:	187a      	adds	r2, r7, r1
 800288e:	8812      	ldrh	r2, [r2, #0]
 8002890:	801a      	strh	r2, [r3, #0]
    }

    int16_t dx, dy;
    dx = x1 - x0;
 8002892:	1cbb      	adds	r3, r7, #2
 8002894:	881a      	ldrh	r2, [r3, #0]
 8002896:	1dbb      	adds	r3, r7, #6
 8002898:	881b      	ldrh	r3, [r3, #0]
 800289a:	1ad3      	subs	r3, r2, r3
 800289c:	b29a      	uxth	r2, r3
 800289e:	2010      	movs	r0, #16
 80028a0:	183b      	adds	r3, r7, r0
 80028a2:	801a      	strh	r2, [r3, #0]
    dy = abs(y1 - y0);
 80028a4:	003b      	movs	r3, r7
 80028a6:	2200      	movs	r2, #0
 80028a8:	5e9a      	ldrsh	r2, [r3, r2]
 80028aa:	1d3b      	adds	r3, r7, #4
 80028ac:	2100      	movs	r1, #0
 80028ae:	5e5b      	ldrsh	r3, [r3, r1]
 80028b0:	1ad3      	subs	r3, r2, r3
 80028b2:	17d9      	asrs	r1, r3, #31
 80028b4:	185a      	adds	r2, r3, r1
 80028b6:	404a      	eors	r2, r1
 80028b8:	230e      	movs	r3, #14
 80028ba:	18fb      	adds	r3, r7, r3
 80028bc:	801a      	strh	r2, [r3, #0]

    int16_t err = dx / 2;
 80028be:	231e      	movs	r3, #30
 80028c0:	18fa      	adds	r2, r7, r3
 80028c2:	183b      	adds	r3, r7, r0
 80028c4:	2100      	movs	r1, #0
 80028c6:	5e5b      	ldrsh	r3, [r3, r1]
 80028c8:	2b00      	cmp	r3, #0
 80028ca:	da00      	bge.n	80028ce <writeLine+0x11e>
 80028cc:	3301      	adds	r3, #1
 80028ce:	105b      	asrs	r3, r3, #1
 80028d0:	8013      	strh	r3, [r2, #0]
    int16_t ystep;

    if (y0 < y1) {
 80028d2:	1d3a      	adds	r2, r7, #4
 80028d4:	003b      	movs	r3, r7
 80028d6:	2100      	movs	r1, #0
 80028d8:	5e52      	ldrsh	r2, [r2, r1]
 80028da:	2100      	movs	r1, #0
 80028dc:	5e5b      	ldrsh	r3, [r3, r1]
 80028de:	429a      	cmp	r2, r3
 80028e0:	da04      	bge.n	80028ec <writeLine+0x13c>
        ystep = 1;
 80028e2:	231c      	movs	r3, #28
 80028e4:	18fb      	adds	r3, r7, r3
 80028e6:	2201      	movs	r2, #1
 80028e8:	801a      	strh	r2, [r3, #0]
 80028ea:	e04d      	b.n	8002988 <writeLine+0x1d8>
    } else {
        ystep = -1;
 80028ec:	231c      	movs	r3, #28
 80028ee:	18fb      	adds	r3, r7, r3
 80028f0:	2201      	movs	r2, #1
 80028f2:	4252      	negs	r2, r2
 80028f4:	801a      	strh	r2, [r3, #0]
    }

    for (; x0<=x1; x0++) {
 80028f6:	e047      	b.n	8002988 <writeLine+0x1d8>
        if (steep) {
 80028f8:	231a      	movs	r3, #26
 80028fa:	18fb      	adds	r3, r7, r3
 80028fc:	2200      	movs	r2, #0
 80028fe:	5e9b      	ldrsh	r3, [r3, r2]
 8002900:	2b00      	cmp	r3, #0
 8002902:	d00c      	beq.n	800291e <writeLine+0x16e>
            writePixel(y0, x0, color);
 8002904:	2330      	movs	r3, #48	; 0x30
 8002906:	18fb      	adds	r3, r7, r3
 8002908:	881a      	ldrh	r2, [r3, #0]
 800290a:	1dbb      	adds	r3, r7, #6
 800290c:	2100      	movs	r1, #0
 800290e:	5e59      	ldrsh	r1, [r3, r1]
 8002910:	1d3b      	adds	r3, r7, #4
 8002912:	2000      	movs	r0, #0
 8002914:	5e1b      	ldrsh	r3, [r3, r0]
 8002916:	0018      	movs	r0, r3
 8002918:	f7ff ff2c 	bl	8002774 <writePixel>
 800291c:	e00b      	b.n	8002936 <writeLine+0x186>
        } else {
            writePixel(x0, y0, color);
 800291e:	2330      	movs	r3, #48	; 0x30
 8002920:	18fb      	adds	r3, r7, r3
 8002922:	881a      	ldrh	r2, [r3, #0]
 8002924:	1d3b      	adds	r3, r7, #4
 8002926:	2100      	movs	r1, #0
 8002928:	5e59      	ldrsh	r1, [r3, r1]
 800292a:	1dbb      	adds	r3, r7, #6
 800292c:	2000      	movs	r0, #0
 800292e:	5e1b      	ldrsh	r3, [r3, r0]
 8002930:	0018      	movs	r0, r3
 8002932:	f7ff ff1f 	bl	8002774 <writePixel>
        }
        err -= dy;
 8002936:	211e      	movs	r1, #30
 8002938:	187b      	adds	r3, r7, r1
 800293a:	881a      	ldrh	r2, [r3, #0]
 800293c:	230e      	movs	r3, #14
 800293e:	18fb      	adds	r3, r7, r3
 8002940:	881b      	ldrh	r3, [r3, #0]
 8002942:	1ad3      	subs	r3, r2, r3
 8002944:	b29a      	uxth	r2, r3
 8002946:	187b      	adds	r3, r7, r1
 8002948:	801a      	strh	r2, [r3, #0]
        if (err < 0) {
 800294a:	187b      	adds	r3, r7, r1
 800294c:	2200      	movs	r2, #0
 800294e:	5e9b      	ldrsh	r3, [r3, r2]
 8002950:	2b00      	cmp	r3, #0
 8002952:	da11      	bge.n	8002978 <writeLine+0x1c8>
            y0 += ystep;
 8002954:	1d3b      	adds	r3, r7, #4
 8002956:	881a      	ldrh	r2, [r3, #0]
 8002958:	231c      	movs	r3, #28
 800295a:	18fb      	adds	r3, r7, r3
 800295c:	881b      	ldrh	r3, [r3, #0]
 800295e:	18d3      	adds	r3, r2, r3
 8002960:	b29a      	uxth	r2, r3
 8002962:	1d3b      	adds	r3, r7, #4
 8002964:	801a      	strh	r2, [r3, #0]
            err += dx;
 8002966:	187b      	adds	r3, r7, r1
 8002968:	881a      	ldrh	r2, [r3, #0]
 800296a:	2310      	movs	r3, #16
 800296c:	18fb      	adds	r3, r7, r3
 800296e:	881b      	ldrh	r3, [r3, #0]
 8002970:	18d3      	adds	r3, r2, r3
 8002972:	b29a      	uxth	r2, r3
 8002974:	187b      	adds	r3, r7, r1
 8002976:	801a      	strh	r2, [r3, #0]
    for (; x0<=x1; x0++) {
 8002978:	1dbb      	adds	r3, r7, #6
 800297a:	2200      	movs	r2, #0
 800297c:	5e9b      	ldrsh	r3, [r3, r2]
 800297e:	b29b      	uxth	r3, r3
 8002980:	3301      	adds	r3, #1
 8002982:	b29a      	uxth	r2, r3
 8002984:	1dbb      	adds	r3, r7, #6
 8002986:	801a      	strh	r2, [r3, #0]
 8002988:	1dba      	adds	r2, r7, #6
 800298a:	1cbb      	adds	r3, r7, #2
 800298c:	2100      	movs	r1, #0
 800298e:	5e52      	ldrsh	r2, [r2, r1]
 8002990:	2100      	movs	r1, #0
 8002992:	5e5b      	ldrsh	r3, [r3, r1]
 8002994:	429a      	cmp	r2, r3
 8002996:	ddaf      	ble.n	80028f8 <writeLine+0x148>
        }
    }
}
 8002998:	46c0      	nop			; (mov r8, r8)
 800299a:	46c0      	nop			; (mov r8, r8)
 800299c:	46bd      	mov	sp, r7
 800299e:	b008      	add	sp, #32
 80029a0:	bdb0      	pop	{r4, r5, r7, pc}

080029a2 <drawFastVLine>:

void  drawFastVLine(int16_t x, int16_t y, int16_t h, uint16_t color)
{
 80029a2:	b5b0      	push	{r4, r5, r7, lr}
 80029a4:	b084      	sub	sp, #16
 80029a6:	af02      	add	r7, sp, #8
 80029a8:	0005      	movs	r5, r0
 80029aa:	000c      	movs	r4, r1
 80029ac:	0010      	movs	r0, r2
 80029ae:	0019      	movs	r1, r3
 80029b0:	1dbb      	adds	r3, r7, #6
 80029b2:	1c2a      	adds	r2, r5, #0
 80029b4:	801a      	strh	r2, [r3, #0]
 80029b6:	1d3b      	adds	r3, r7, #4
 80029b8:	1c22      	adds	r2, r4, #0
 80029ba:	801a      	strh	r2, [r3, #0]
 80029bc:	1cbb      	adds	r3, r7, #2
 80029be:	1c02      	adds	r2, r0, #0
 80029c0:	801a      	strh	r2, [r3, #0]
 80029c2:	003b      	movs	r3, r7
 80029c4:	1c0a      	adds	r2, r1, #0
 80029c6:	801a      	strh	r2, [r3, #0]
	writeLine(x, y, x, y + h - 1, color);
 80029c8:	1d3b      	adds	r3, r7, #4
 80029ca:	881a      	ldrh	r2, [r3, #0]
 80029cc:	1cbb      	adds	r3, r7, #2
 80029ce:	881b      	ldrh	r3, [r3, #0]
 80029d0:	18d3      	adds	r3, r2, r3
 80029d2:	b29b      	uxth	r3, r3
 80029d4:	3b01      	subs	r3, #1
 80029d6:	b29b      	uxth	r3, r3
 80029d8:	b21c      	sxth	r4, r3
 80029da:	1dbb      	adds	r3, r7, #6
 80029dc:	2200      	movs	r2, #0
 80029de:	5e9a      	ldrsh	r2, [r3, r2]
 80029e0:	1d3b      	adds	r3, r7, #4
 80029e2:	2100      	movs	r1, #0
 80029e4:	5e59      	ldrsh	r1, [r3, r1]
 80029e6:	1dbb      	adds	r3, r7, #6
 80029e8:	2000      	movs	r0, #0
 80029ea:	5e18      	ldrsh	r0, [r3, r0]
 80029ec:	003b      	movs	r3, r7
 80029ee:	881b      	ldrh	r3, [r3, #0]
 80029f0:	9300      	str	r3, [sp, #0]
 80029f2:	0023      	movs	r3, r4
 80029f4:	f7ff fedc 	bl	80027b0 <writeLine>
}
 80029f8:	46c0      	nop			; (mov r8, r8)
 80029fa:	46bd      	mov	sp, r7
 80029fc:	b002      	add	sp, #8
 80029fe:	bdb0      	pop	{r4, r5, r7, pc}

08002a00 <drawFastHLine>:
void  drawFastHLine(int16_t x, int16_t y, int16_t w, uint16_t color)
{
 8002a00:	b5b0      	push	{r4, r5, r7, lr}
 8002a02:	b084      	sub	sp, #16
 8002a04:	af02      	add	r7, sp, #8
 8002a06:	0005      	movs	r5, r0
 8002a08:	000c      	movs	r4, r1
 8002a0a:	0010      	movs	r0, r2
 8002a0c:	0019      	movs	r1, r3
 8002a0e:	1dbb      	adds	r3, r7, #6
 8002a10:	1c2a      	adds	r2, r5, #0
 8002a12:	801a      	strh	r2, [r3, #0]
 8002a14:	1d3b      	adds	r3, r7, #4
 8002a16:	1c22      	adds	r2, r4, #0
 8002a18:	801a      	strh	r2, [r3, #0]
 8002a1a:	1cbb      	adds	r3, r7, #2
 8002a1c:	1c02      	adds	r2, r0, #0
 8002a1e:	801a      	strh	r2, [r3, #0]
 8002a20:	003b      	movs	r3, r7
 8002a22:	1c0a      	adds	r2, r1, #0
 8002a24:	801a      	strh	r2, [r3, #0]
	writeLine(x, y, x + w - 1, y, color);
 8002a26:	1dbb      	adds	r3, r7, #6
 8002a28:	881a      	ldrh	r2, [r3, #0]
 8002a2a:	1cbb      	adds	r3, r7, #2
 8002a2c:	881b      	ldrh	r3, [r3, #0]
 8002a2e:	18d3      	adds	r3, r2, r3
 8002a30:	b29b      	uxth	r3, r3
 8002a32:	3b01      	subs	r3, #1
 8002a34:	b29b      	uxth	r3, r3
 8002a36:	b21a      	sxth	r2, r3
 8002a38:	1d3b      	adds	r3, r7, #4
 8002a3a:	2400      	movs	r4, #0
 8002a3c:	5f1c      	ldrsh	r4, [r3, r4]
 8002a3e:	1d3b      	adds	r3, r7, #4
 8002a40:	2100      	movs	r1, #0
 8002a42:	5e59      	ldrsh	r1, [r3, r1]
 8002a44:	1dbb      	adds	r3, r7, #6
 8002a46:	2000      	movs	r0, #0
 8002a48:	5e18      	ldrsh	r0, [r3, r0]
 8002a4a:	003b      	movs	r3, r7
 8002a4c:	881b      	ldrh	r3, [r3, #0]
 8002a4e:	9300      	str	r3, [sp, #0]
 8002a50:	0023      	movs	r3, r4
 8002a52:	f7ff fead 	bl	80027b0 <writeLine>
}
 8002a56:	46c0      	nop			; (mov r8, r8)
 8002a58:	46bd      	mov	sp, r7
 8002a5a:	b002      	add	sp, #8
 8002a5c:	bdb0      	pop	{r4, r5, r7, pc}

08002a5e <drawCircleHelper>:
        writePixel(x0 - y, y0 - x, color);
    }
}

void drawCircleHelper( int16_t x0, int16_t y0, int16_t r, uint8_t cornername, uint16_t color)
{
 8002a5e:	b5f0      	push	{r4, r5, r6, r7, lr}
 8002a60:	b087      	sub	sp, #28
 8002a62:	af00      	add	r7, sp, #0
 8002a64:	0005      	movs	r5, r0
 8002a66:	000c      	movs	r4, r1
 8002a68:	0010      	movs	r0, r2
 8002a6a:	0019      	movs	r1, r3
 8002a6c:	1dbb      	adds	r3, r7, #6
 8002a6e:	1c2a      	adds	r2, r5, #0
 8002a70:	801a      	strh	r2, [r3, #0]
 8002a72:	1d3b      	adds	r3, r7, #4
 8002a74:	1c22      	adds	r2, r4, #0
 8002a76:	801a      	strh	r2, [r3, #0]
 8002a78:	1cbb      	adds	r3, r7, #2
 8002a7a:	1c02      	adds	r2, r0, #0
 8002a7c:	801a      	strh	r2, [r3, #0]
 8002a7e:	1c7b      	adds	r3, r7, #1
 8002a80:	1c0a      	adds	r2, r1, #0
 8002a82:	701a      	strb	r2, [r3, #0]
    int16_t f     = 1 - r;
 8002a84:	1cbb      	adds	r3, r7, #2
 8002a86:	881b      	ldrh	r3, [r3, #0]
 8002a88:	2201      	movs	r2, #1
 8002a8a:	1ad3      	subs	r3, r2, r3
 8002a8c:	b29a      	uxth	r2, r3
 8002a8e:	2316      	movs	r3, #22
 8002a90:	18fb      	adds	r3, r7, r3
 8002a92:	801a      	strh	r2, [r3, #0]
    int16_t ddF_x = 1;
 8002a94:	2314      	movs	r3, #20
 8002a96:	18fb      	adds	r3, r7, r3
 8002a98:	2201      	movs	r2, #1
 8002a9a:	801a      	strh	r2, [r3, #0]
    int16_t ddF_y = -2 * r;
 8002a9c:	1cbb      	adds	r3, r7, #2
 8002a9e:	881b      	ldrh	r3, [r3, #0]
 8002aa0:	1c1a      	adds	r2, r3, #0
 8002aa2:	03d2      	lsls	r2, r2, #15
 8002aa4:	1ad3      	subs	r3, r2, r3
 8002aa6:	18db      	adds	r3, r3, r3
 8002aa8:	b29a      	uxth	r2, r3
 8002aaa:	2312      	movs	r3, #18
 8002aac:	18fb      	adds	r3, r7, r3
 8002aae:	801a      	strh	r2, [r3, #0]
    int16_t x     = 0;
 8002ab0:	2310      	movs	r3, #16
 8002ab2:	18fb      	adds	r3, r7, r3
 8002ab4:	2200      	movs	r2, #0
 8002ab6:	801a      	strh	r2, [r3, #0]
    int16_t y     = r;
 8002ab8:	230e      	movs	r3, #14
 8002aba:	18fb      	adds	r3, r7, r3
 8002abc:	1cba      	adds	r2, r7, #2
 8002abe:	8812      	ldrh	r2, [r2, #0]
 8002ac0:	801a      	strh	r2, [r3, #0]

    while (x<y) {
 8002ac2:	e0fe      	b.n	8002cc2 <drawCircleHelper+0x264>
        if (f >= 0) {
 8002ac4:	2116      	movs	r1, #22
 8002ac6:	187b      	adds	r3, r7, r1
 8002ac8:	2200      	movs	r2, #0
 8002aca:	5e9b      	ldrsh	r3, [r3, r2]
 8002acc:	2b00      	cmp	r3, #0
 8002ace:	db17      	blt.n	8002b00 <drawCircleHelper+0xa2>
            y--;
 8002ad0:	200e      	movs	r0, #14
 8002ad2:	183b      	adds	r3, r7, r0
 8002ad4:	2200      	movs	r2, #0
 8002ad6:	5e9b      	ldrsh	r3, [r3, r2]
 8002ad8:	b29b      	uxth	r3, r3
 8002ada:	3b01      	subs	r3, #1
 8002adc:	b29a      	uxth	r2, r3
 8002ade:	183b      	adds	r3, r7, r0
 8002ae0:	801a      	strh	r2, [r3, #0]
            ddF_y += 2;
 8002ae2:	2012      	movs	r0, #18
 8002ae4:	183b      	adds	r3, r7, r0
 8002ae6:	881b      	ldrh	r3, [r3, #0]
 8002ae8:	3302      	adds	r3, #2
 8002aea:	b29a      	uxth	r2, r3
 8002aec:	183b      	adds	r3, r7, r0
 8002aee:	801a      	strh	r2, [r3, #0]
            f     += ddF_y;
 8002af0:	187b      	adds	r3, r7, r1
 8002af2:	881a      	ldrh	r2, [r3, #0]
 8002af4:	183b      	adds	r3, r7, r0
 8002af6:	881b      	ldrh	r3, [r3, #0]
 8002af8:	18d3      	adds	r3, r2, r3
 8002afa:	b29a      	uxth	r2, r3
 8002afc:	187b      	adds	r3, r7, r1
 8002afe:	801a      	strh	r2, [r3, #0]
        }
        x++;
 8002b00:	2110      	movs	r1, #16
 8002b02:	187b      	adds	r3, r7, r1
 8002b04:	2200      	movs	r2, #0
 8002b06:	5e9b      	ldrsh	r3, [r3, r2]
 8002b08:	b29b      	uxth	r3, r3
 8002b0a:	3301      	adds	r3, #1
 8002b0c:	b29a      	uxth	r2, r3
 8002b0e:	187b      	adds	r3, r7, r1
 8002b10:	801a      	strh	r2, [r3, #0]
        ddF_x += 2;
 8002b12:	2014      	movs	r0, #20
 8002b14:	183b      	adds	r3, r7, r0
 8002b16:	881b      	ldrh	r3, [r3, #0]
 8002b18:	3302      	adds	r3, #2
 8002b1a:	b29a      	uxth	r2, r3
 8002b1c:	183b      	adds	r3, r7, r0
 8002b1e:	801a      	strh	r2, [r3, #0]
        f     += ddF_x;
 8002b20:	2416      	movs	r4, #22
 8002b22:	193b      	adds	r3, r7, r4
 8002b24:	881a      	ldrh	r2, [r3, #0]
 8002b26:	183b      	adds	r3, r7, r0
 8002b28:	881b      	ldrh	r3, [r3, #0]
 8002b2a:	18d3      	adds	r3, r2, r3
 8002b2c:	b29a      	uxth	r2, r3
 8002b2e:	193b      	adds	r3, r7, r4
 8002b30:	801a      	strh	r2, [r3, #0]
        if (cornername & 0x4) {
 8002b32:	1c7b      	adds	r3, r7, #1
 8002b34:	781b      	ldrb	r3, [r3, #0]
 8002b36:	2204      	movs	r2, #4
 8002b38:	4013      	ands	r3, r2
 8002b3a:	d02c      	beq.n	8002b96 <drawCircleHelper+0x138>
            writePixel(x0 + x, y0 + y, color);
 8002b3c:	1dbb      	adds	r3, r7, #6
 8002b3e:	881a      	ldrh	r2, [r3, #0]
 8002b40:	000c      	movs	r4, r1
 8002b42:	187b      	adds	r3, r7, r1
 8002b44:	881b      	ldrh	r3, [r3, #0]
 8002b46:	18d3      	adds	r3, r2, r3
 8002b48:	b29b      	uxth	r3, r3
 8002b4a:	b218      	sxth	r0, r3
 8002b4c:	1d3b      	adds	r3, r7, #4
 8002b4e:	881a      	ldrh	r2, [r3, #0]
 8002b50:	250e      	movs	r5, #14
 8002b52:	197b      	adds	r3, r7, r5
 8002b54:	881b      	ldrh	r3, [r3, #0]
 8002b56:	18d3      	adds	r3, r2, r3
 8002b58:	b29b      	uxth	r3, r3
 8002b5a:	b219      	sxth	r1, r3
 8002b5c:	2628      	movs	r6, #40	; 0x28
 8002b5e:	2308      	movs	r3, #8
 8002b60:	18f2      	adds	r2, r6, r3
 8002b62:	19d3      	adds	r3, r2, r7
 8002b64:	881b      	ldrh	r3, [r3, #0]
 8002b66:	001a      	movs	r2, r3
 8002b68:	f7ff fe04 	bl	8002774 <writePixel>
            writePixel(x0 + y, y0 + x, color);
 8002b6c:	1dbb      	adds	r3, r7, #6
 8002b6e:	881a      	ldrh	r2, [r3, #0]
 8002b70:	197b      	adds	r3, r7, r5
 8002b72:	881b      	ldrh	r3, [r3, #0]
 8002b74:	18d3      	adds	r3, r2, r3
 8002b76:	b29b      	uxth	r3, r3
 8002b78:	b218      	sxth	r0, r3
 8002b7a:	1d3b      	adds	r3, r7, #4
 8002b7c:	881a      	ldrh	r2, [r3, #0]
 8002b7e:	193b      	adds	r3, r7, r4
 8002b80:	881b      	ldrh	r3, [r3, #0]
 8002b82:	18d3      	adds	r3, r2, r3
 8002b84:	b29b      	uxth	r3, r3
 8002b86:	b219      	sxth	r1, r3
 8002b88:	2308      	movs	r3, #8
 8002b8a:	18f3      	adds	r3, r6, r3
 8002b8c:	19db      	adds	r3, r3, r7
 8002b8e:	881b      	ldrh	r3, [r3, #0]
 8002b90:	001a      	movs	r2, r3
 8002b92:	f7ff fdef 	bl	8002774 <writePixel>
        }
        if (cornername & 0x2) {
 8002b96:	1c7b      	adds	r3, r7, #1
 8002b98:	781b      	ldrb	r3, [r3, #0]
 8002b9a:	2202      	movs	r2, #2
 8002b9c:	4013      	ands	r3, r2
 8002b9e:	d02c      	beq.n	8002bfa <drawCircleHelper+0x19c>
            writePixel(x0 + x, y0 - y, color);
 8002ba0:	1dbb      	adds	r3, r7, #6
 8002ba2:	881a      	ldrh	r2, [r3, #0]
 8002ba4:	2410      	movs	r4, #16
 8002ba6:	193b      	adds	r3, r7, r4
 8002ba8:	881b      	ldrh	r3, [r3, #0]
 8002baa:	18d3      	adds	r3, r2, r3
 8002bac:	b29b      	uxth	r3, r3
 8002bae:	b218      	sxth	r0, r3
 8002bb0:	1d3b      	adds	r3, r7, #4
 8002bb2:	881a      	ldrh	r2, [r3, #0]
 8002bb4:	250e      	movs	r5, #14
 8002bb6:	197b      	adds	r3, r7, r5
 8002bb8:	881b      	ldrh	r3, [r3, #0]
 8002bba:	1ad3      	subs	r3, r2, r3
 8002bbc:	b29b      	uxth	r3, r3
 8002bbe:	b219      	sxth	r1, r3
 8002bc0:	2628      	movs	r6, #40	; 0x28
 8002bc2:	2308      	movs	r3, #8
 8002bc4:	18f2      	adds	r2, r6, r3
 8002bc6:	19d3      	adds	r3, r2, r7
 8002bc8:	881b      	ldrh	r3, [r3, #0]
 8002bca:	001a      	movs	r2, r3
 8002bcc:	f7ff fdd2 	bl	8002774 <writePixel>
            writePixel(x0 + y, y0 - x, color);
 8002bd0:	1dbb      	adds	r3, r7, #6
 8002bd2:	881a      	ldrh	r2, [r3, #0]
 8002bd4:	197b      	adds	r3, r7, r5
 8002bd6:	881b      	ldrh	r3, [r3, #0]
 8002bd8:	18d3      	adds	r3, r2, r3
 8002bda:	b29b      	uxth	r3, r3
 8002bdc:	b218      	sxth	r0, r3
 8002bde:	1d3b      	adds	r3, r7, #4
 8002be0:	881a      	ldrh	r2, [r3, #0]
 8002be2:	193b      	adds	r3, r7, r4
 8002be4:	881b      	ldrh	r3, [r3, #0]
 8002be6:	1ad3      	subs	r3, r2, r3
 8002be8:	b29b      	uxth	r3, r3
 8002bea:	b219      	sxth	r1, r3
 8002bec:	2308      	movs	r3, #8
 8002bee:	18f3      	adds	r3, r6, r3
 8002bf0:	19db      	adds	r3, r3, r7
 8002bf2:	881b      	ldrh	r3, [r3, #0]
 8002bf4:	001a      	movs	r2, r3
 8002bf6:	f7ff fdbd 	bl	8002774 <writePixel>
        }
        if (cornername & 0x8) {
 8002bfa:	1c7b      	adds	r3, r7, #1
 8002bfc:	781b      	ldrb	r3, [r3, #0]
 8002bfe:	2208      	movs	r2, #8
 8002c00:	4013      	ands	r3, r2
 8002c02:	d02c      	beq.n	8002c5e <drawCircleHelper+0x200>
            writePixel(x0 - y, y0 + x, color);
 8002c04:	1dbb      	adds	r3, r7, #6
 8002c06:	881a      	ldrh	r2, [r3, #0]
 8002c08:	240e      	movs	r4, #14
 8002c0a:	193b      	adds	r3, r7, r4
 8002c0c:	881b      	ldrh	r3, [r3, #0]
 8002c0e:	1ad3      	subs	r3, r2, r3
 8002c10:	b29b      	uxth	r3, r3
 8002c12:	b218      	sxth	r0, r3
 8002c14:	1d3b      	adds	r3, r7, #4
 8002c16:	881a      	ldrh	r2, [r3, #0]
 8002c18:	2510      	movs	r5, #16
 8002c1a:	197b      	adds	r3, r7, r5
 8002c1c:	881b      	ldrh	r3, [r3, #0]
 8002c1e:	18d3      	adds	r3, r2, r3
 8002c20:	b29b      	uxth	r3, r3
 8002c22:	b219      	sxth	r1, r3
 8002c24:	2628      	movs	r6, #40	; 0x28
 8002c26:	2308      	movs	r3, #8
 8002c28:	18f2      	adds	r2, r6, r3
 8002c2a:	19d3      	adds	r3, r2, r7
 8002c2c:	881b      	ldrh	r3, [r3, #0]
 8002c2e:	001a      	movs	r2, r3
 8002c30:	f7ff fda0 	bl	8002774 <writePixel>
            writePixel(x0 - x, y0 + y, color);
 8002c34:	1dbb      	adds	r3, r7, #6
 8002c36:	881a      	ldrh	r2, [r3, #0]
 8002c38:	197b      	adds	r3, r7, r5
 8002c3a:	881b      	ldrh	r3, [r3, #0]
 8002c3c:	1ad3      	subs	r3, r2, r3
 8002c3e:	b29b      	uxth	r3, r3
 8002c40:	b218      	sxth	r0, r3
 8002c42:	1d3b      	adds	r3, r7, #4
 8002c44:	881a      	ldrh	r2, [r3, #0]
 8002c46:	193b      	adds	r3, r7, r4
 8002c48:	881b      	ldrh	r3, [r3, #0]
 8002c4a:	18d3      	adds	r3, r2, r3
 8002c4c:	b29b      	uxth	r3, r3
 8002c4e:	b219      	sxth	r1, r3
 8002c50:	2308      	movs	r3, #8
 8002c52:	18f3      	adds	r3, r6, r3
 8002c54:	19db      	adds	r3, r3, r7
 8002c56:	881b      	ldrh	r3, [r3, #0]
 8002c58:	001a      	movs	r2, r3
 8002c5a:	f7ff fd8b 	bl	8002774 <writePixel>
        }
        if (cornername & 0x1) {
 8002c5e:	1c7b      	adds	r3, r7, #1
 8002c60:	781b      	ldrb	r3, [r3, #0]
 8002c62:	2201      	movs	r2, #1
 8002c64:	4013      	ands	r3, r2
 8002c66:	d02c      	beq.n	8002cc2 <drawCircleHelper+0x264>
            writePixel(x0 - y, y0 - x, color);
 8002c68:	1dbb      	adds	r3, r7, #6
 8002c6a:	881a      	ldrh	r2, [r3, #0]
 8002c6c:	240e      	movs	r4, #14
 8002c6e:	193b      	adds	r3, r7, r4
 8002c70:	881b      	ldrh	r3, [r3, #0]
 8002c72:	1ad3      	subs	r3, r2, r3
 8002c74:	b29b      	uxth	r3, r3
 8002c76:	b218      	sxth	r0, r3
 8002c78:	1d3b      	adds	r3, r7, #4
 8002c7a:	881a      	ldrh	r2, [r3, #0]
 8002c7c:	2510      	movs	r5, #16
 8002c7e:	197b      	adds	r3, r7, r5
 8002c80:	881b      	ldrh	r3, [r3, #0]
 8002c82:	1ad3      	subs	r3, r2, r3
 8002c84:	b29b      	uxth	r3, r3
 8002c86:	b219      	sxth	r1, r3
 8002c88:	2628      	movs	r6, #40	; 0x28
 8002c8a:	2308      	movs	r3, #8
 8002c8c:	18f2      	adds	r2, r6, r3
 8002c8e:	19d3      	adds	r3, r2, r7
 8002c90:	881b      	ldrh	r3, [r3, #0]
 8002c92:	001a      	movs	r2, r3
 8002c94:	f7ff fd6e 	bl	8002774 <writePixel>
            writePixel(x0 - x, y0 - y, color);
 8002c98:	1dbb      	adds	r3, r7, #6
 8002c9a:	881a      	ldrh	r2, [r3, #0]
 8002c9c:	197b      	adds	r3, r7, r5
 8002c9e:	881b      	ldrh	r3, [r3, #0]
 8002ca0:	1ad3      	subs	r3, r2, r3
 8002ca2:	b29b      	uxth	r3, r3
 8002ca4:	b218      	sxth	r0, r3
 8002ca6:	1d3b      	adds	r3, r7, #4
 8002ca8:	881a      	ldrh	r2, [r3, #0]
 8002caa:	193b      	adds	r3, r7, r4
 8002cac:	881b      	ldrh	r3, [r3, #0]
 8002cae:	1ad3      	subs	r3, r2, r3
 8002cb0:	b29b      	uxth	r3, r3
 8002cb2:	b219      	sxth	r1, r3
 8002cb4:	2308      	movs	r3, #8
 8002cb6:	18f3      	adds	r3, r6, r3
 8002cb8:	19db      	adds	r3, r3, r7
 8002cba:	881b      	ldrh	r3, [r3, #0]
 8002cbc:	001a      	movs	r2, r3
 8002cbe:	f7ff fd59 	bl	8002774 <writePixel>
    while (x<y) {
 8002cc2:	2310      	movs	r3, #16
 8002cc4:	18fa      	adds	r2, r7, r3
 8002cc6:	230e      	movs	r3, #14
 8002cc8:	18fb      	adds	r3, r7, r3
 8002cca:	2100      	movs	r1, #0
 8002ccc:	5e52      	ldrsh	r2, [r2, r1]
 8002cce:	2100      	movs	r1, #0
 8002cd0:	5e5b      	ldrsh	r3, [r3, r1]
 8002cd2:	429a      	cmp	r2, r3
 8002cd4:	da00      	bge.n	8002cd8 <drawCircleHelper+0x27a>
 8002cd6:	e6f5      	b.n	8002ac4 <drawCircleHelper+0x66>
        }
    }
}
 8002cd8:	46c0      	nop			; (mov r8, r8)
 8002cda:	46c0      	nop			; (mov r8, r8)
 8002cdc:	46bd      	mov	sp, r7
 8002cde:	b007      	add	sp, #28
 8002ce0:	bdf0      	pop	{r4, r5, r6, r7, pc}

08002ce2 <fillCircleHelper>:

void fillCircleHelper(int16_t x0, int16_t y0, int16_t r, uint8_t corners, int16_t delta, uint16_t color)
{
 8002ce2:	b5b0      	push	{r4, r5, r7, lr}
 8002ce4:	b086      	sub	sp, #24
 8002ce6:	af00      	add	r7, sp, #0
 8002ce8:	0005      	movs	r5, r0
 8002cea:	000c      	movs	r4, r1
 8002cec:	0010      	movs	r0, r2
 8002cee:	0019      	movs	r1, r3
 8002cf0:	1dbb      	adds	r3, r7, #6
 8002cf2:	1c2a      	adds	r2, r5, #0
 8002cf4:	801a      	strh	r2, [r3, #0]
 8002cf6:	1d3b      	adds	r3, r7, #4
 8002cf8:	1c22      	adds	r2, r4, #0
 8002cfa:	801a      	strh	r2, [r3, #0]
 8002cfc:	1cbb      	adds	r3, r7, #2
 8002cfe:	1c02      	adds	r2, r0, #0
 8002d00:	801a      	strh	r2, [r3, #0]
 8002d02:	1c7b      	adds	r3, r7, #1
 8002d04:	1c0a      	adds	r2, r1, #0
 8002d06:	701a      	strb	r2, [r3, #0]

    int16_t f     = 1 - r;
 8002d08:	1cbb      	adds	r3, r7, #2
 8002d0a:	881b      	ldrh	r3, [r3, #0]
 8002d0c:	2201      	movs	r2, #1
 8002d0e:	1ad3      	subs	r3, r2, r3
 8002d10:	b29a      	uxth	r2, r3
 8002d12:	2316      	movs	r3, #22
 8002d14:	18fb      	adds	r3, r7, r3
 8002d16:	801a      	strh	r2, [r3, #0]
    int16_t ddF_x = 1;
 8002d18:	2314      	movs	r3, #20
 8002d1a:	18fb      	adds	r3, r7, r3
 8002d1c:	2201      	movs	r2, #1
 8002d1e:	801a      	strh	r2, [r3, #0]
    int16_t ddF_y = -2 * r;
 8002d20:	1cbb      	adds	r3, r7, #2
 8002d22:	881b      	ldrh	r3, [r3, #0]
 8002d24:	1c1a      	adds	r2, r3, #0
 8002d26:	03d2      	lsls	r2, r2, #15
 8002d28:	1ad3      	subs	r3, r2, r3
 8002d2a:	18db      	adds	r3, r3, r3
 8002d2c:	b29a      	uxth	r2, r3
 8002d2e:	2312      	movs	r3, #18
 8002d30:	18fb      	adds	r3, r7, r3
 8002d32:	801a      	strh	r2, [r3, #0]
    int16_t x     = 0;
 8002d34:	2110      	movs	r1, #16
 8002d36:	187b      	adds	r3, r7, r1
 8002d38:	2200      	movs	r2, #0
 8002d3a:	801a      	strh	r2, [r3, #0]
    int16_t y     = r;
 8002d3c:	200e      	movs	r0, #14
 8002d3e:	183b      	adds	r3, r7, r0
 8002d40:	1cba      	adds	r2, r7, #2
 8002d42:	8812      	ldrh	r2, [r2, #0]
 8002d44:	801a      	strh	r2, [r3, #0]
    int16_t px    = x;
 8002d46:	230c      	movs	r3, #12
 8002d48:	18fb      	adds	r3, r7, r3
 8002d4a:	187a      	adds	r2, r7, r1
 8002d4c:	8812      	ldrh	r2, [r2, #0]
 8002d4e:	801a      	strh	r2, [r3, #0]
    int16_t py    = y;
 8002d50:	230a      	movs	r3, #10
 8002d52:	18fb      	adds	r3, r7, r3
 8002d54:	183a      	adds	r2, r7, r0
 8002d56:	8812      	ldrh	r2, [r2, #0]
 8002d58:	801a      	strh	r2, [r3, #0]

    delta++; // Avoid some +1's in the loop
 8002d5a:	2128      	movs	r1, #40	; 0x28
 8002d5c:	187b      	adds	r3, r7, r1
 8002d5e:	2200      	movs	r2, #0
 8002d60:	5e9b      	ldrsh	r3, [r3, r2]
 8002d62:	b29b      	uxth	r3, r3
 8002d64:	3301      	adds	r3, #1
 8002d66:	b29a      	uxth	r2, r3
 8002d68:	187b      	adds	r3, r7, r1
 8002d6a:	801a      	strh	r2, [r3, #0]

    while(x < y) {
 8002d6c:	e0e2      	b.n	8002f34 <fillCircleHelper+0x252>
        if (f >= 0) {
 8002d6e:	2116      	movs	r1, #22
 8002d70:	187b      	adds	r3, r7, r1
 8002d72:	2200      	movs	r2, #0
 8002d74:	5e9b      	ldrsh	r3, [r3, r2]
 8002d76:	2b00      	cmp	r3, #0
 8002d78:	db17      	blt.n	8002daa <fillCircleHelper+0xc8>
            y--;
 8002d7a:	200e      	movs	r0, #14
 8002d7c:	183b      	adds	r3, r7, r0
 8002d7e:	2200      	movs	r2, #0
 8002d80:	5e9b      	ldrsh	r3, [r3, r2]
 8002d82:	b29b      	uxth	r3, r3
 8002d84:	3b01      	subs	r3, #1
 8002d86:	b29a      	uxth	r2, r3
 8002d88:	183b      	adds	r3, r7, r0
 8002d8a:	801a      	strh	r2, [r3, #0]
            ddF_y += 2;
 8002d8c:	2012      	movs	r0, #18
 8002d8e:	183b      	adds	r3, r7, r0
 8002d90:	881b      	ldrh	r3, [r3, #0]
 8002d92:	3302      	adds	r3, #2
 8002d94:	b29a      	uxth	r2, r3
 8002d96:	183b      	adds	r3, r7, r0
 8002d98:	801a      	strh	r2, [r3, #0]
            f     += ddF_y;
 8002d9a:	187b      	adds	r3, r7, r1
 8002d9c:	881a      	ldrh	r2, [r3, #0]
 8002d9e:	183b      	adds	r3, r7, r0
 8002da0:	881b      	ldrh	r3, [r3, #0]
 8002da2:	18d3      	adds	r3, r2, r3
 8002da4:	b29a      	uxth	r2, r3
 8002da6:	187b      	adds	r3, r7, r1
 8002da8:	801a      	strh	r2, [r3, #0]
        }
        x++;
 8002daa:	2110      	movs	r1, #16
 8002dac:	187b      	adds	r3, r7, r1
 8002dae:	2200      	movs	r2, #0
 8002db0:	5e9b      	ldrsh	r3, [r3, r2]
 8002db2:	b29b      	uxth	r3, r3
 8002db4:	3301      	adds	r3, #1
 8002db6:	b29a      	uxth	r2, r3
 8002db8:	187b      	adds	r3, r7, r1
 8002dba:	801a      	strh	r2, [r3, #0]
        ddF_x += 2;
 8002dbc:	2014      	movs	r0, #20
 8002dbe:	183b      	adds	r3, r7, r0
 8002dc0:	881b      	ldrh	r3, [r3, #0]
 8002dc2:	3302      	adds	r3, #2
 8002dc4:	b29a      	uxth	r2, r3
 8002dc6:	183b      	adds	r3, r7, r0
 8002dc8:	801a      	strh	r2, [r3, #0]
        f     += ddF_x;
 8002dca:	2416      	movs	r4, #22
 8002dcc:	193b      	adds	r3, r7, r4
 8002dce:	881a      	ldrh	r2, [r3, #0]
 8002dd0:	183b      	adds	r3, r7, r0
 8002dd2:	881b      	ldrh	r3, [r3, #0]
 8002dd4:	18d3      	adds	r3, r2, r3
 8002dd6:	b29a      	uxth	r2, r3
 8002dd8:	193b      	adds	r3, r7, r4
 8002dda:	801a      	strh	r2, [r3, #0]
        // These checks avoid double-drawing certain lines, important
        // for the SSD1306 library which has an INVERT drawing mode.
        if(x < (y + 1)) {
 8002ddc:	240e      	movs	r4, #14
 8002dde:	193a      	adds	r2, r7, r4
 8002de0:	187b      	adds	r3, r7, r1
 8002de2:	2000      	movs	r0, #0
 8002de4:	5e12      	ldrsh	r2, [r2, r0]
 8002de6:	2000      	movs	r0, #0
 8002de8:	5e1b      	ldrsh	r3, [r3, r0]
 8002dea:	429a      	cmp	r2, r3
 8002dec:	db45      	blt.n	8002e7a <fillCircleHelper+0x198>
            if(corners & 1) drawFastVLine(x0+x, y0-y, 2*y+delta, color);
 8002dee:	1c7b      	adds	r3, r7, #1
 8002df0:	781b      	ldrb	r3, [r3, #0]
 8002df2:	2201      	movs	r2, #1
 8002df4:	4013      	ands	r3, r2
 8002df6:	d01c      	beq.n	8002e32 <fillCircleHelper+0x150>
 8002df8:	1dbb      	adds	r3, r7, #6
 8002dfa:	881a      	ldrh	r2, [r3, #0]
 8002dfc:	187b      	adds	r3, r7, r1
 8002dfe:	881b      	ldrh	r3, [r3, #0]
 8002e00:	18d3      	adds	r3, r2, r3
 8002e02:	b29b      	uxth	r3, r3
 8002e04:	b218      	sxth	r0, r3
 8002e06:	1d3b      	adds	r3, r7, #4
 8002e08:	881a      	ldrh	r2, [r3, #0]
 8002e0a:	193b      	adds	r3, r7, r4
 8002e0c:	881b      	ldrh	r3, [r3, #0]
 8002e0e:	1ad3      	subs	r3, r2, r3
 8002e10:	b29b      	uxth	r3, r3
 8002e12:	b219      	sxth	r1, r3
 8002e14:	193b      	adds	r3, r7, r4
 8002e16:	881b      	ldrh	r3, [r3, #0]
 8002e18:	18db      	adds	r3, r3, r3
 8002e1a:	b29a      	uxth	r2, r3
 8002e1c:	2328      	movs	r3, #40	; 0x28
 8002e1e:	18fb      	adds	r3, r7, r3
 8002e20:	881b      	ldrh	r3, [r3, #0]
 8002e22:	18d3      	adds	r3, r2, r3
 8002e24:	b29b      	uxth	r3, r3
 8002e26:	b21a      	sxth	r2, r3
 8002e28:	232c      	movs	r3, #44	; 0x2c
 8002e2a:	18fb      	adds	r3, r7, r3
 8002e2c:	881b      	ldrh	r3, [r3, #0]
 8002e2e:	f7ff fdb8 	bl	80029a2 <drawFastVLine>
            if(corners & 2) drawFastVLine(x0-x, y0-y, 2*y+delta, color);
 8002e32:	1c7b      	adds	r3, r7, #1
 8002e34:	781b      	ldrb	r3, [r3, #0]
 8002e36:	2202      	movs	r2, #2
 8002e38:	4013      	ands	r3, r2
 8002e3a:	d01e      	beq.n	8002e7a <fillCircleHelper+0x198>
 8002e3c:	1dbb      	adds	r3, r7, #6
 8002e3e:	881a      	ldrh	r2, [r3, #0]
 8002e40:	2310      	movs	r3, #16
 8002e42:	18fb      	adds	r3, r7, r3
 8002e44:	881b      	ldrh	r3, [r3, #0]
 8002e46:	1ad3      	subs	r3, r2, r3
 8002e48:	b29b      	uxth	r3, r3
 8002e4a:	b218      	sxth	r0, r3
 8002e4c:	1d3b      	adds	r3, r7, #4
 8002e4e:	881a      	ldrh	r2, [r3, #0]
 8002e50:	240e      	movs	r4, #14
 8002e52:	193b      	adds	r3, r7, r4
 8002e54:	881b      	ldrh	r3, [r3, #0]
 8002e56:	1ad3      	subs	r3, r2, r3
 8002e58:	b29b      	uxth	r3, r3
 8002e5a:	b219      	sxth	r1, r3
 8002e5c:	193b      	adds	r3, r7, r4
 8002e5e:	881b      	ldrh	r3, [r3, #0]
 8002e60:	18db      	adds	r3, r3, r3
 8002e62:	b29a      	uxth	r2, r3
 8002e64:	2328      	movs	r3, #40	; 0x28
 8002e66:	18fb      	adds	r3, r7, r3
 8002e68:	881b      	ldrh	r3, [r3, #0]
 8002e6a:	18d3      	adds	r3, r2, r3
 8002e6c:	b29b      	uxth	r3, r3
 8002e6e:	b21a      	sxth	r2, r3
 8002e70:	232c      	movs	r3, #44	; 0x2c
 8002e72:	18fb      	adds	r3, r7, r3
 8002e74:	881b      	ldrh	r3, [r3, #0]
 8002e76:	f7ff fd94 	bl	80029a2 <drawFastVLine>
        }
        if(y != py) {
 8002e7a:	230e      	movs	r3, #14
 8002e7c:	18fa      	adds	r2, r7, r3
 8002e7e:	210a      	movs	r1, #10
 8002e80:	187b      	adds	r3, r7, r1
 8002e82:	2000      	movs	r0, #0
 8002e84:	5e12      	ldrsh	r2, [r2, r0]
 8002e86:	2000      	movs	r0, #0
 8002e88:	5e1b      	ldrsh	r3, [r3, r0]
 8002e8a:	429a      	cmp	r2, r3
 8002e8c:	d04c      	beq.n	8002f28 <fillCircleHelper+0x246>
            if(corners & 1) drawFastVLine(x0+py, y0-px, 2*px+delta, color);
 8002e8e:	1c7b      	adds	r3, r7, #1
 8002e90:	781b      	ldrb	r3, [r3, #0]
 8002e92:	2201      	movs	r2, #1
 8002e94:	4013      	ands	r3, r2
 8002e96:	d01d      	beq.n	8002ed4 <fillCircleHelper+0x1f2>
 8002e98:	1dbb      	adds	r3, r7, #6
 8002e9a:	881a      	ldrh	r2, [r3, #0]
 8002e9c:	187b      	adds	r3, r7, r1
 8002e9e:	881b      	ldrh	r3, [r3, #0]
 8002ea0:	18d3      	adds	r3, r2, r3
 8002ea2:	b29b      	uxth	r3, r3
 8002ea4:	b218      	sxth	r0, r3
 8002ea6:	1d3b      	adds	r3, r7, #4
 8002ea8:	881a      	ldrh	r2, [r3, #0]
 8002eaa:	240c      	movs	r4, #12
 8002eac:	193b      	adds	r3, r7, r4
 8002eae:	881b      	ldrh	r3, [r3, #0]
 8002eb0:	1ad3      	subs	r3, r2, r3
 8002eb2:	b29b      	uxth	r3, r3
 8002eb4:	b219      	sxth	r1, r3
 8002eb6:	193b      	adds	r3, r7, r4
 8002eb8:	881b      	ldrh	r3, [r3, #0]
 8002eba:	18db      	adds	r3, r3, r3
 8002ebc:	b29a      	uxth	r2, r3
 8002ebe:	2328      	movs	r3, #40	; 0x28
 8002ec0:	18fb      	adds	r3, r7, r3
 8002ec2:	881b      	ldrh	r3, [r3, #0]
 8002ec4:	18d3      	adds	r3, r2, r3
 8002ec6:	b29b      	uxth	r3, r3
 8002ec8:	b21a      	sxth	r2, r3
 8002eca:	232c      	movs	r3, #44	; 0x2c
 8002ecc:	18fb      	adds	r3, r7, r3
 8002ece:	881b      	ldrh	r3, [r3, #0]
 8002ed0:	f7ff fd67 	bl	80029a2 <drawFastVLine>
            if(corners & 2) drawFastVLine(x0-py, y0-px, 2*px+delta, color);
 8002ed4:	1c7b      	adds	r3, r7, #1
 8002ed6:	781b      	ldrb	r3, [r3, #0]
 8002ed8:	2202      	movs	r2, #2
 8002eda:	4013      	ands	r3, r2
 8002edc:	d01e      	beq.n	8002f1c <fillCircleHelper+0x23a>
 8002ede:	1dbb      	adds	r3, r7, #6
 8002ee0:	881a      	ldrh	r2, [r3, #0]
 8002ee2:	230a      	movs	r3, #10
 8002ee4:	18fb      	adds	r3, r7, r3
 8002ee6:	881b      	ldrh	r3, [r3, #0]
 8002ee8:	1ad3      	subs	r3, r2, r3
 8002eea:	b29b      	uxth	r3, r3
 8002eec:	b218      	sxth	r0, r3
 8002eee:	1d3b      	adds	r3, r7, #4
 8002ef0:	881a      	ldrh	r2, [r3, #0]
 8002ef2:	240c      	movs	r4, #12
 8002ef4:	193b      	adds	r3, r7, r4
 8002ef6:	881b      	ldrh	r3, [r3, #0]
 8002ef8:	1ad3      	subs	r3, r2, r3
 8002efa:	b29b      	uxth	r3, r3
 8002efc:	b219      	sxth	r1, r3
 8002efe:	193b      	adds	r3, r7, r4
 8002f00:	881b      	ldrh	r3, [r3, #0]
 8002f02:	18db      	adds	r3, r3, r3
 8002f04:	b29a      	uxth	r2, r3
 8002f06:	2328      	movs	r3, #40	; 0x28
 8002f08:	18fb      	adds	r3, r7, r3
 8002f0a:	881b      	ldrh	r3, [r3, #0]
 8002f0c:	18d3      	adds	r3, r2, r3
 8002f0e:	b29b      	uxth	r3, r3
 8002f10:	b21a      	sxth	r2, r3
 8002f12:	232c      	movs	r3, #44	; 0x2c
 8002f14:	18fb      	adds	r3, r7, r3
 8002f16:	881b      	ldrh	r3, [r3, #0]
 8002f18:	f7ff fd43 	bl	80029a2 <drawFastVLine>
            py = y;
 8002f1c:	230a      	movs	r3, #10
 8002f1e:	18fb      	adds	r3, r7, r3
 8002f20:	220e      	movs	r2, #14
 8002f22:	18ba      	adds	r2, r7, r2
 8002f24:	8812      	ldrh	r2, [r2, #0]
 8002f26:	801a      	strh	r2, [r3, #0]
        }
        px = x;
 8002f28:	230c      	movs	r3, #12
 8002f2a:	18fb      	adds	r3, r7, r3
 8002f2c:	2210      	movs	r2, #16
 8002f2e:	18ba      	adds	r2, r7, r2
 8002f30:	8812      	ldrh	r2, [r2, #0]
 8002f32:	801a      	strh	r2, [r3, #0]
    while(x < y) {
 8002f34:	2310      	movs	r3, #16
 8002f36:	18fa      	adds	r2, r7, r3
 8002f38:	230e      	movs	r3, #14
 8002f3a:	18fb      	adds	r3, r7, r3
 8002f3c:	2100      	movs	r1, #0
 8002f3e:	5e52      	ldrsh	r2, [r2, r1]
 8002f40:	2100      	movs	r1, #0
 8002f42:	5e5b      	ldrsh	r3, [r3, r1]
 8002f44:	429a      	cmp	r2, r3
 8002f46:	da00      	bge.n	8002f4a <fillCircleHelper+0x268>
 8002f48:	e711      	b.n	8002d6e <fillCircleHelper+0x8c>
    }
}
 8002f4a:	46c0      	nop			; (mov r8, r8)
 8002f4c:	46c0      	nop			; (mov r8, r8)
 8002f4e:	46bd      	mov	sp, r7
 8002f50:	b006      	add	sp, #24
 8002f52:	bdb0      	pop	{r4, r5, r7, pc}

08002f54 <drawRect>:
}



void drawRect(int16_t x, int16_t y, int16_t w, int16_t h, uint16_t color)
{
 8002f54:	b5b0      	push	{r4, r5, r7, lr}
 8002f56:	b082      	sub	sp, #8
 8002f58:	af00      	add	r7, sp, #0
 8002f5a:	0005      	movs	r5, r0
 8002f5c:	000c      	movs	r4, r1
 8002f5e:	0010      	movs	r0, r2
 8002f60:	0019      	movs	r1, r3
 8002f62:	1dbb      	adds	r3, r7, #6
 8002f64:	1c2a      	adds	r2, r5, #0
 8002f66:	801a      	strh	r2, [r3, #0]
 8002f68:	1d3b      	adds	r3, r7, #4
 8002f6a:	1c22      	adds	r2, r4, #0
 8002f6c:	801a      	strh	r2, [r3, #0]
 8002f6e:	1cbb      	adds	r3, r7, #2
 8002f70:	1c02      	adds	r2, r0, #0
 8002f72:	801a      	strh	r2, [r3, #0]
 8002f74:	003b      	movs	r3, r7
 8002f76:	1c0a      	adds	r2, r1, #0
 8002f78:	801a      	strh	r2, [r3, #0]
    drawFastHLine(x, y, w, color);
 8002f7a:	2518      	movs	r5, #24
 8002f7c:	197b      	adds	r3, r7, r5
 8002f7e:	881c      	ldrh	r4, [r3, #0]
 8002f80:	1cbb      	adds	r3, r7, #2
 8002f82:	2200      	movs	r2, #0
 8002f84:	5e9a      	ldrsh	r2, [r3, r2]
 8002f86:	1d3b      	adds	r3, r7, #4
 8002f88:	2100      	movs	r1, #0
 8002f8a:	5e59      	ldrsh	r1, [r3, r1]
 8002f8c:	1dbb      	adds	r3, r7, #6
 8002f8e:	2000      	movs	r0, #0
 8002f90:	5e18      	ldrsh	r0, [r3, r0]
 8002f92:	0023      	movs	r3, r4
 8002f94:	f7ff fd34 	bl	8002a00 <drawFastHLine>
    drawFastHLine(x, y+h-1, w, color);
 8002f98:	1d3b      	adds	r3, r7, #4
 8002f9a:	881a      	ldrh	r2, [r3, #0]
 8002f9c:	003b      	movs	r3, r7
 8002f9e:	881b      	ldrh	r3, [r3, #0]
 8002fa0:	18d3      	adds	r3, r2, r3
 8002fa2:	b29b      	uxth	r3, r3
 8002fa4:	3b01      	subs	r3, #1
 8002fa6:	b29b      	uxth	r3, r3
 8002fa8:	b219      	sxth	r1, r3
 8002faa:	197b      	adds	r3, r7, r5
 8002fac:	881c      	ldrh	r4, [r3, #0]
 8002fae:	1cbb      	adds	r3, r7, #2
 8002fb0:	2200      	movs	r2, #0
 8002fb2:	5e9a      	ldrsh	r2, [r3, r2]
 8002fb4:	1dbb      	adds	r3, r7, #6
 8002fb6:	2000      	movs	r0, #0
 8002fb8:	5e18      	ldrsh	r0, [r3, r0]
 8002fba:	0023      	movs	r3, r4
 8002fbc:	f7ff fd20 	bl	8002a00 <drawFastHLine>
    drawFastVLine(x, y, h, color);
 8002fc0:	197b      	adds	r3, r7, r5
 8002fc2:	881c      	ldrh	r4, [r3, #0]
 8002fc4:	003b      	movs	r3, r7
 8002fc6:	2200      	movs	r2, #0
 8002fc8:	5e9a      	ldrsh	r2, [r3, r2]
 8002fca:	1d3b      	adds	r3, r7, #4
 8002fcc:	2100      	movs	r1, #0
 8002fce:	5e59      	ldrsh	r1, [r3, r1]
 8002fd0:	1dbb      	adds	r3, r7, #6
 8002fd2:	2000      	movs	r0, #0
 8002fd4:	5e18      	ldrsh	r0, [r3, r0]
 8002fd6:	0023      	movs	r3, r4
 8002fd8:	f7ff fce3 	bl	80029a2 <drawFastVLine>
    drawFastVLine(x+w-1, y, h, color);
 8002fdc:	1dbb      	adds	r3, r7, #6
 8002fde:	881a      	ldrh	r2, [r3, #0]
 8002fe0:	1cbb      	adds	r3, r7, #2
 8002fe2:	881b      	ldrh	r3, [r3, #0]
 8002fe4:	18d3      	adds	r3, r2, r3
 8002fe6:	b29b      	uxth	r3, r3
 8002fe8:	3b01      	subs	r3, #1
 8002fea:	b29b      	uxth	r3, r3
 8002fec:	b218      	sxth	r0, r3
 8002fee:	197b      	adds	r3, r7, r5
 8002ff0:	881c      	ldrh	r4, [r3, #0]
 8002ff2:	003b      	movs	r3, r7
 8002ff4:	2200      	movs	r2, #0
 8002ff6:	5e9a      	ldrsh	r2, [r3, r2]
 8002ff8:	1d3b      	adds	r3, r7, #4
 8002ffa:	2100      	movs	r1, #0
 8002ffc:	5e59      	ldrsh	r1, [r3, r1]
 8002ffe:	0023      	movs	r3, r4
 8003000:	f7ff fccf 	bl	80029a2 <drawFastVLine>
}
 8003004:	46c0      	nop			; (mov r8, r8)
 8003006:	46bd      	mov	sp, r7
 8003008:	b002      	add	sp, #8
 800300a:	bdb0      	pop	{r4, r5, r7, pc}

0800300c <drawRoundRect>:

void drawRoundRect(int16_t x, int16_t y, int16_t w, int16_t h, int16_t r, uint16_t color)
{
 800300c:	b5f0      	push	{r4, r5, r6, r7, lr}
 800300e:	b087      	sub	sp, #28
 8003010:	af02      	add	r7, sp, #8
 8003012:	0005      	movs	r5, r0
 8003014:	000c      	movs	r4, r1
 8003016:	0010      	movs	r0, r2
 8003018:	0019      	movs	r1, r3
 800301a:	1dbb      	adds	r3, r7, #6
 800301c:	1c2a      	adds	r2, r5, #0
 800301e:	801a      	strh	r2, [r3, #0]
 8003020:	1d3b      	adds	r3, r7, #4
 8003022:	1c22      	adds	r2, r4, #0
 8003024:	801a      	strh	r2, [r3, #0]
 8003026:	1cbb      	adds	r3, r7, #2
 8003028:	1c02      	adds	r2, r0, #0
 800302a:	801a      	strh	r2, [r3, #0]
 800302c:	003b      	movs	r3, r7
 800302e:	1c0a      	adds	r2, r1, #0
 8003030:	801a      	strh	r2, [r3, #0]
    int16_t max_radius = ((w < h) ? w : h) / 2; // 1/2 minor axis
 8003032:	003b      	movs	r3, r7
 8003034:	1cba      	adds	r2, r7, #2
 8003036:	8810      	ldrh	r0, [r2, #0]
 8003038:	881b      	ldrh	r3, [r3, #0]
 800303a:	b219      	sxth	r1, r3
 800303c:	b202      	sxth	r2, r0
 800303e:	4291      	cmp	r1, r2
 8003040:	dd00      	ble.n	8003044 <drawRoundRect+0x38>
 8003042:	1c03      	adds	r3, r0, #0
 8003044:	b21b      	sxth	r3, r3
 8003046:	220e      	movs	r2, #14
 8003048:	18ba      	adds	r2, r7, r2
 800304a:	2b00      	cmp	r3, #0
 800304c:	da00      	bge.n	8003050 <drawRoundRect+0x44>
 800304e:	3301      	adds	r3, #1
 8003050:	105b      	asrs	r3, r3, #1
 8003052:	8013      	strh	r3, [r2, #0]
    if(r > max_radius) r = max_radius;
 8003054:	2020      	movs	r0, #32
 8003056:	2508      	movs	r5, #8
 8003058:	1943      	adds	r3, r0, r5
 800305a:	19db      	adds	r3, r3, r7
 800305c:	240e      	movs	r4, #14
 800305e:	1939      	adds	r1, r7, r4
 8003060:	2200      	movs	r2, #0
 8003062:	5e9a      	ldrsh	r2, [r3, r2]
 8003064:	2300      	movs	r3, #0
 8003066:	5ecb      	ldrsh	r3, [r1, r3]
 8003068:	429a      	cmp	r2, r3
 800306a:	dd04      	ble.n	8003076 <drawRoundRect+0x6a>
 800306c:	1943      	adds	r3, r0, r5
 800306e:	19db      	adds	r3, r3, r7
 8003070:	193a      	adds	r2, r7, r4
 8003072:	8812      	ldrh	r2, [r2, #0]
 8003074:	801a      	strh	r2, [r3, #0]
    // smarter version
    drawFastHLine(x+r  , y    , w-2*r, color); // Top
 8003076:	1dbb      	adds	r3, r7, #6
 8003078:	881a      	ldrh	r2, [r3, #0]
 800307a:	2520      	movs	r5, #32
 800307c:	2408      	movs	r4, #8
 800307e:	192b      	adds	r3, r5, r4
 8003080:	19db      	adds	r3, r3, r7
 8003082:	881b      	ldrh	r3, [r3, #0]
 8003084:	18d3      	adds	r3, r2, r3
 8003086:	b29b      	uxth	r3, r3
 8003088:	b218      	sxth	r0, r3
 800308a:	1cbb      	adds	r3, r7, #2
 800308c:	881a      	ldrh	r2, [r3, #0]
 800308e:	192b      	adds	r3, r5, r4
 8003090:	19db      	adds	r3, r3, r7
 8003092:	881b      	ldrh	r3, [r3, #0]
 8003094:	18db      	adds	r3, r3, r3
 8003096:	b29b      	uxth	r3, r3
 8003098:	1ad3      	subs	r3, r2, r3
 800309a:	b29b      	uxth	r3, r3
 800309c:	b21a      	sxth	r2, r3
 800309e:	2624      	movs	r6, #36	; 0x24
 80030a0:	1933      	adds	r3, r6, r4
 80030a2:	19db      	adds	r3, r3, r7
 80030a4:	881c      	ldrh	r4, [r3, #0]
 80030a6:	1d3b      	adds	r3, r7, #4
 80030a8:	2100      	movs	r1, #0
 80030aa:	5e59      	ldrsh	r1, [r3, r1]
 80030ac:	0023      	movs	r3, r4
 80030ae:	f7ff fca7 	bl	8002a00 <drawFastHLine>
    drawFastHLine(x+r  , y+h-1, w-2*r, color); // Bottom
 80030b2:	1dbb      	adds	r3, r7, #6
 80030b4:	881a      	ldrh	r2, [r3, #0]
 80030b6:	2408      	movs	r4, #8
 80030b8:	192b      	adds	r3, r5, r4
 80030ba:	19db      	adds	r3, r3, r7
 80030bc:	881b      	ldrh	r3, [r3, #0]
 80030be:	18d3      	adds	r3, r2, r3
 80030c0:	b29b      	uxth	r3, r3
 80030c2:	b218      	sxth	r0, r3
 80030c4:	1d3b      	adds	r3, r7, #4
 80030c6:	881a      	ldrh	r2, [r3, #0]
 80030c8:	003b      	movs	r3, r7
 80030ca:	881b      	ldrh	r3, [r3, #0]
 80030cc:	18d3      	adds	r3, r2, r3
 80030ce:	b29b      	uxth	r3, r3
 80030d0:	3b01      	subs	r3, #1
 80030d2:	b29b      	uxth	r3, r3
 80030d4:	b219      	sxth	r1, r3
 80030d6:	1cbb      	adds	r3, r7, #2
 80030d8:	881a      	ldrh	r2, [r3, #0]
 80030da:	192b      	adds	r3, r5, r4
 80030dc:	19db      	adds	r3, r3, r7
 80030de:	881b      	ldrh	r3, [r3, #0]
 80030e0:	18db      	adds	r3, r3, r3
 80030e2:	b29b      	uxth	r3, r3
 80030e4:	1ad3      	subs	r3, r2, r3
 80030e6:	b29b      	uxth	r3, r3
 80030e8:	b21a      	sxth	r2, r3
 80030ea:	1933      	adds	r3, r6, r4
 80030ec:	19db      	adds	r3, r3, r7
 80030ee:	881b      	ldrh	r3, [r3, #0]
 80030f0:	f7ff fc86 	bl	8002a00 <drawFastHLine>
    drawFastVLine(x    , y+r  , h-2*r, color); // Left
 80030f4:	1d3b      	adds	r3, r7, #4
 80030f6:	881a      	ldrh	r2, [r3, #0]
 80030f8:	192b      	adds	r3, r5, r4
 80030fa:	19db      	adds	r3, r3, r7
 80030fc:	881b      	ldrh	r3, [r3, #0]
 80030fe:	18d3      	adds	r3, r2, r3
 8003100:	b29b      	uxth	r3, r3
 8003102:	b219      	sxth	r1, r3
 8003104:	003b      	movs	r3, r7
 8003106:	881a      	ldrh	r2, [r3, #0]
 8003108:	192b      	adds	r3, r5, r4
 800310a:	19db      	adds	r3, r3, r7
 800310c:	881b      	ldrh	r3, [r3, #0]
 800310e:	18db      	adds	r3, r3, r3
 8003110:	b29b      	uxth	r3, r3
 8003112:	1ad3      	subs	r3, r2, r3
 8003114:	b29b      	uxth	r3, r3
 8003116:	b21a      	sxth	r2, r3
 8003118:	1933      	adds	r3, r6, r4
 800311a:	19db      	adds	r3, r3, r7
 800311c:	881c      	ldrh	r4, [r3, #0]
 800311e:	1dbb      	adds	r3, r7, #6
 8003120:	2000      	movs	r0, #0
 8003122:	5e18      	ldrsh	r0, [r3, r0]
 8003124:	0023      	movs	r3, r4
 8003126:	f7ff fc3c 	bl	80029a2 <drawFastVLine>
    drawFastVLine(x+w-1, y+r  , h-2*r, color); // Right
 800312a:	1dbb      	adds	r3, r7, #6
 800312c:	881a      	ldrh	r2, [r3, #0]
 800312e:	1cbb      	adds	r3, r7, #2
 8003130:	881b      	ldrh	r3, [r3, #0]
 8003132:	18d3      	adds	r3, r2, r3
 8003134:	b29b      	uxth	r3, r3
 8003136:	3b01      	subs	r3, #1
 8003138:	b29b      	uxth	r3, r3
 800313a:	b218      	sxth	r0, r3
 800313c:	1d3b      	adds	r3, r7, #4
 800313e:	881a      	ldrh	r2, [r3, #0]
 8003140:	2408      	movs	r4, #8
 8003142:	192b      	adds	r3, r5, r4
 8003144:	19db      	adds	r3, r3, r7
 8003146:	881b      	ldrh	r3, [r3, #0]
 8003148:	18d3      	adds	r3, r2, r3
 800314a:	b29b      	uxth	r3, r3
 800314c:	b219      	sxth	r1, r3
 800314e:	003b      	movs	r3, r7
 8003150:	881a      	ldrh	r2, [r3, #0]
 8003152:	192b      	adds	r3, r5, r4
 8003154:	19db      	adds	r3, r3, r7
 8003156:	881b      	ldrh	r3, [r3, #0]
 8003158:	18db      	adds	r3, r3, r3
 800315a:	b29b      	uxth	r3, r3
 800315c:	1ad3      	subs	r3, r2, r3
 800315e:	b29b      	uxth	r3, r3
 8003160:	b21a      	sxth	r2, r3
 8003162:	1933      	adds	r3, r6, r4
 8003164:	19db      	adds	r3, r3, r7
 8003166:	881b      	ldrh	r3, [r3, #0]
 8003168:	f7ff fc1b 	bl	80029a2 <drawFastVLine>
    // draw four corners
    drawCircleHelper(x+r    , y+r    , r, 1, color);
 800316c:	1dbb      	adds	r3, r7, #6
 800316e:	881a      	ldrh	r2, [r3, #0]
 8003170:	192b      	adds	r3, r5, r4
 8003172:	19db      	adds	r3, r3, r7
 8003174:	881b      	ldrh	r3, [r3, #0]
 8003176:	18d3      	adds	r3, r2, r3
 8003178:	b29b      	uxth	r3, r3
 800317a:	b218      	sxth	r0, r3
 800317c:	1d3b      	adds	r3, r7, #4
 800317e:	881a      	ldrh	r2, [r3, #0]
 8003180:	1929      	adds	r1, r5, r4
 8003182:	19cb      	adds	r3, r1, r7
 8003184:	881b      	ldrh	r3, [r3, #0]
 8003186:	18d3      	adds	r3, r2, r3
 8003188:	b29b      	uxth	r3, r3
 800318a:	b219      	sxth	r1, r3
 800318c:	002c      	movs	r4, r5
 800318e:	2308      	movs	r3, #8
 8003190:	18ea      	adds	r2, r5, r3
 8003192:	19d3      	adds	r3, r2, r7
 8003194:	2200      	movs	r2, #0
 8003196:	5e9a      	ldrsh	r2, [r3, r2]
 8003198:	0035      	movs	r5, r6
 800319a:	2608      	movs	r6, #8
 800319c:	19ab      	adds	r3, r5, r6
 800319e:	19db      	adds	r3, r3, r7
 80031a0:	881b      	ldrh	r3, [r3, #0]
 80031a2:	9300      	str	r3, [sp, #0]
 80031a4:	2301      	movs	r3, #1
 80031a6:	f7ff fc5a 	bl	8002a5e <drawCircleHelper>
    drawCircleHelper(x+w-r-1, y+r    , r, 2, color);
 80031aa:	1dbb      	adds	r3, r7, #6
 80031ac:	881a      	ldrh	r2, [r3, #0]
 80031ae:	1cbb      	adds	r3, r7, #2
 80031b0:	881b      	ldrh	r3, [r3, #0]
 80031b2:	18d3      	adds	r3, r2, r3
 80031b4:	b29a      	uxth	r2, r3
 80031b6:	0031      	movs	r1, r6
 80031b8:	1863      	adds	r3, r4, r1
 80031ba:	19db      	adds	r3, r3, r7
 80031bc:	881b      	ldrh	r3, [r3, #0]
 80031be:	1ad3      	subs	r3, r2, r3
 80031c0:	b29b      	uxth	r3, r3
 80031c2:	3b01      	subs	r3, #1
 80031c4:	b29b      	uxth	r3, r3
 80031c6:	b218      	sxth	r0, r3
 80031c8:	1d3b      	adds	r3, r7, #4
 80031ca:	881a      	ldrh	r2, [r3, #0]
 80031cc:	000e      	movs	r6, r1
 80031ce:	19a3      	adds	r3, r4, r6
 80031d0:	19db      	adds	r3, r3, r7
 80031d2:	881b      	ldrh	r3, [r3, #0]
 80031d4:	18d3      	adds	r3, r2, r3
 80031d6:	b29b      	uxth	r3, r3
 80031d8:	b219      	sxth	r1, r3
 80031da:	19a3      	adds	r3, r4, r6
 80031dc:	19db      	adds	r3, r3, r7
 80031de:	2200      	movs	r2, #0
 80031e0:	5e9a      	ldrsh	r2, [r3, r2]
 80031e2:	19ab      	adds	r3, r5, r6
 80031e4:	19db      	adds	r3, r3, r7
 80031e6:	881b      	ldrh	r3, [r3, #0]
 80031e8:	9300      	str	r3, [sp, #0]
 80031ea:	2302      	movs	r3, #2
 80031ec:	f7ff fc37 	bl	8002a5e <drawCircleHelper>
    drawCircleHelper(x+w-r-1, y+h-r-1, r, 4, color);
 80031f0:	1dbb      	adds	r3, r7, #6
 80031f2:	881a      	ldrh	r2, [r3, #0]
 80031f4:	1cbb      	adds	r3, r7, #2
 80031f6:	881b      	ldrh	r3, [r3, #0]
 80031f8:	18d3      	adds	r3, r2, r3
 80031fa:	b29a      	uxth	r2, r3
 80031fc:	0021      	movs	r1, r4
 80031fe:	198b      	adds	r3, r1, r6
 8003200:	19db      	adds	r3, r3, r7
 8003202:	881b      	ldrh	r3, [r3, #0]
 8003204:	1ad3      	subs	r3, r2, r3
 8003206:	b29b      	uxth	r3, r3
 8003208:	3b01      	subs	r3, #1
 800320a:	b29b      	uxth	r3, r3
 800320c:	b218      	sxth	r0, r3
 800320e:	1d3b      	adds	r3, r7, #4
 8003210:	881a      	ldrh	r2, [r3, #0]
 8003212:	003b      	movs	r3, r7
 8003214:	881b      	ldrh	r3, [r3, #0]
 8003216:	18d3      	adds	r3, r2, r3
 8003218:	b29a      	uxth	r2, r3
 800321a:	000c      	movs	r4, r1
 800321c:	19a3      	adds	r3, r4, r6
 800321e:	19db      	adds	r3, r3, r7
 8003220:	881b      	ldrh	r3, [r3, #0]
 8003222:	1ad3      	subs	r3, r2, r3
 8003224:	b29b      	uxth	r3, r3
 8003226:	3b01      	subs	r3, #1
 8003228:	b29b      	uxth	r3, r3
 800322a:	b219      	sxth	r1, r3
 800322c:	19a3      	adds	r3, r4, r6
 800322e:	19db      	adds	r3, r3, r7
 8003230:	2200      	movs	r2, #0
 8003232:	5e9a      	ldrsh	r2, [r3, r2]
 8003234:	19ab      	adds	r3, r5, r6
 8003236:	19db      	adds	r3, r3, r7
 8003238:	881b      	ldrh	r3, [r3, #0]
 800323a:	9300      	str	r3, [sp, #0]
 800323c:	2304      	movs	r3, #4
 800323e:	f7ff fc0e 	bl	8002a5e <drawCircleHelper>
    drawCircleHelper(x+r    , y+h-r-1, r, 8, color);
 8003242:	1dbb      	adds	r3, r7, #6
 8003244:	881a      	ldrh	r2, [r3, #0]
 8003246:	0021      	movs	r1, r4
 8003248:	198b      	adds	r3, r1, r6
 800324a:	19db      	adds	r3, r3, r7
 800324c:	881b      	ldrh	r3, [r3, #0]
 800324e:	18d3      	adds	r3, r2, r3
 8003250:	b29b      	uxth	r3, r3
 8003252:	b218      	sxth	r0, r3
 8003254:	1d3b      	adds	r3, r7, #4
 8003256:	881a      	ldrh	r2, [r3, #0]
 8003258:	003b      	movs	r3, r7
 800325a:	881b      	ldrh	r3, [r3, #0]
 800325c:	18d3      	adds	r3, r2, r3
 800325e:	b29a      	uxth	r2, r3
 8003260:	000c      	movs	r4, r1
 8003262:	198b      	adds	r3, r1, r6
 8003264:	19db      	adds	r3, r3, r7
 8003266:	881b      	ldrh	r3, [r3, #0]
 8003268:	1ad3      	subs	r3, r2, r3
 800326a:	b29b      	uxth	r3, r3
 800326c:	3b01      	subs	r3, #1
 800326e:	b29b      	uxth	r3, r3
 8003270:	b219      	sxth	r1, r3
 8003272:	19a3      	adds	r3, r4, r6
 8003274:	19db      	adds	r3, r3, r7
 8003276:	2200      	movs	r2, #0
 8003278:	5e9a      	ldrsh	r2, [r3, r2]
 800327a:	19ab      	adds	r3, r5, r6
 800327c:	19db      	adds	r3, r3, r7
 800327e:	881b      	ldrh	r3, [r3, #0]
 8003280:	9300      	str	r3, [sp, #0]
 8003282:	2308      	movs	r3, #8
 8003284:	f7ff fbeb 	bl	8002a5e <drawCircleHelper>
}
 8003288:	46c0      	nop			; (mov r8, r8)
 800328a:	46bd      	mov	sp, r7
 800328c:	b005      	add	sp, #20
 800328e:	bdf0      	pop	{r4, r5, r6, r7, pc}

08003290 <fillRoundRect>:


void fillRoundRect(int16_t x, int16_t y, int16_t w, int16_t h, int16_t r, uint16_t color)
{
 8003290:	b5f0      	push	{r4, r5, r6, r7, lr}
 8003292:	b087      	sub	sp, #28
 8003294:	af02      	add	r7, sp, #8
 8003296:	0005      	movs	r5, r0
 8003298:	000c      	movs	r4, r1
 800329a:	0010      	movs	r0, r2
 800329c:	0019      	movs	r1, r3
 800329e:	1dbb      	adds	r3, r7, #6
 80032a0:	1c2a      	adds	r2, r5, #0
 80032a2:	801a      	strh	r2, [r3, #0]
 80032a4:	1d3b      	adds	r3, r7, #4
 80032a6:	1c22      	adds	r2, r4, #0
 80032a8:	801a      	strh	r2, [r3, #0]
 80032aa:	1cbb      	adds	r3, r7, #2
 80032ac:	1c02      	adds	r2, r0, #0
 80032ae:	801a      	strh	r2, [r3, #0]
 80032b0:	003b      	movs	r3, r7
 80032b2:	1c0a      	adds	r2, r1, #0
 80032b4:	801a      	strh	r2, [r3, #0]
    int16_t max_radius = ((w < h) ? w : h) / 2; // 1/2 minor axis
 80032b6:	003b      	movs	r3, r7
 80032b8:	1cba      	adds	r2, r7, #2
 80032ba:	8810      	ldrh	r0, [r2, #0]
 80032bc:	881b      	ldrh	r3, [r3, #0]
 80032be:	b219      	sxth	r1, r3
 80032c0:	b202      	sxth	r2, r0
 80032c2:	4291      	cmp	r1, r2
 80032c4:	dd00      	ble.n	80032c8 <fillRoundRect+0x38>
 80032c6:	1c03      	adds	r3, r0, #0
 80032c8:	b21b      	sxth	r3, r3
 80032ca:	220e      	movs	r2, #14
 80032cc:	18ba      	adds	r2, r7, r2
 80032ce:	2b00      	cmp	r3, #0
 80032d0:	da00      	bge.n	80032d4 <fillRoundRect+0x44>
 80032d2:	3301      	adds	r3, #1
 80032d4:	105b      	asrs	r3, r3, #1
 80032d6:	8013      	strh	r3, [r2, #0]
    if(r > max_radius) r = max_radius;
 80032d8:	2020      	movs	r0, #32
 80032da:	2508      	movs	r5, #8
 80032dc:	1943      	adds	r3, r0, r5
 80032de:	19db      	adds	r3, r3, r7
 80032e0:	240e      	movs	r4, #14
 80032e2:	1939      	adds	r1, r7, r4
 80032e4:	2200      	movs	r2, #0
 80032e6:	5e9a      	ldrsh	r2, [r3, r2]
 80032e8:	2300      	movs	r3, #0
 80032ea:	5ecb      	ldrsh	r3, [r1, r3]
 80032ec:	429a      	cmp	r2, r3
 80032ee:	dd04      	ble.n	80032fa <fillRoundRect+0x6a>
 80032f0:	1943      	adds	r3, r0, r5
 80032f2:	19db      	adds	r3, r3, r7
 80032f4:	193a      	adds	r2, r7, r4
 80032f6:	8812      	ldrh	r2, [r2, #0]
 80032f8:	801a      	strh	r2, [r3, #0]
    // smarter version
    fillRect(x+r, y, w-2*r, h, color);
 80032fa:	1dbb      	adds	r3, r7, #6
 80032fc:	881a      	ldrh	r2, [r3, #0]
 80032fe:	2520      	movs	r5, #32
 8003300:	2408      	movs	r4, #8
 8003302:	192b      	adds	r3, r5, r4
 8003304:	19db      	adds	r3, r3, r7
 8003306:	881b      	ldrh	r3, [r3, #0]
 8003308:	18d3      	adds	r3, r2, r3
 800330a:	b29b      	uxth	r3, r3
 800330c:	b218      	sxth	r0, r3
 800330e:	1cbb      	adds	r3, r7, #2
 8003310:	881a      	ldrh	r2, [r3, #0]
 8003312:	1929      	adds	r1, r5, r4
 8003314:	19cb      	adds	r3, r1, r7
 8003316:	881b      	ldrh	r3, [r3, #0]
 8003318:	18db      	adds	r3, r3, r3
 800331a:	b29b      	uxth	r3, r3
 800331c:	1ad3      	subs	r3, r2, r3
 800331e:	b29b      	uxth	r3, r3
 8003320:	b21a      	sxth	r2, r3
 8003322:	003b      	movs	r3, r7
 8003324:	2400      	movs	r4, #0
 8003326:	5f1c      	ldrsh	r4, [r3, r4]
 8003328:	1d3b      	adds	r3, r7, #4
 800332a:	2100      	movs	r1, #0
 800332c:	5e59      	ldrsh	r1, [r3, r1]
 800332e:	2624      	movs	r6, #36	; 0x24
 8003330:	2308      	movs	r3, #8
 8003332:	18f3      	adds	r3, r6, r3
 8003334:	19db      	adds	r3, r3, r7
 8003336:	881b      	ldrh	r3, [r3, #0]
 8003338:	9300      	str	r3, [sp, #0]
 800333a:	0023      	movs	r3, r4
 800333c:	f7ff f9f4 	bl	8002728 <fillRect>
    // draw four corners
    fillCircleHelper(x+w-r-1, y+r, r, 1, h-2*r-1, color);
 8003340:	1dbb      	adds	r3, r7, #6
 8003342:	881a      	ldrh	r2, [r3, #0]
 8003344:	1cbb      	adds	r3, r7, #2
 8003346:	881b      	ldrh	r3, [r3, #0]
 8003348:	18d3      	adds	r3, r2, r3
 800334a:	b29a      	uxth	r2, r3
 800334c:	2408      	movs	r4, #8
 800334e:	192b      	adds	r3, r5, r4
 8003350:	19db      	adds	r3, r3, r7
 8003352:	881b      	ldrh	r3, [r3, #0]
 8003354:	1ad3      	subs	r3, r2, r3
 8003356:	b29b      	uxth	r3, r3
 8003358:	3b01      	subs	r3, #1
 800335a:	b29b      	uxth	r3, r3
 800335c:	b218      	sxth	r0, r3
 800335e:	1d3b      	adds	r3, r7, #4
 8003360:	881a      	ldrh	r2, [r3, #0]
 8003362:	192b      	adds	r3, r5, r4
 8003364:	19db      	adds	r3, r3, r7
 8003366:	881b      	ldrh	r3, [r3, #0]
 8003368:	18d3      	adds	r3, r2, r3
 800336a:	b29b      	uxth	r3, r3
 800336c:	b219      	sxth	r1, r3
 800336e:	003b      	movs	r3, r7
 8003370:	881a      	ldrh	r2, [r3, #0]
 8003372:	192b      	adds	r3, r5, r4
 8003374:	19db      	adds	r3, r3, r7
 8003376:	881b      	ldrh	r3, [r3, #0]
 8003378:	18db      	adds	r3, r3, r3
 800337a:	b29b      	uxth	r3, r3
 800337c:	1ad3      	subs	r3, r2, r3
 800337e:	b29b      	uxth	r3, r3
 8003380:	3b01      	subs	r3, #1
 8003382:	b29b      	uxth	r3, r3
 8003384:	b21a      	sxth	r2, r3
 8003386:	192b      	adds	r3, r5, r4
 8003388:	19db      	adds	r3, r3, r7
 800338a:	2400      	movs	r4, #0
 800338c:	5f1c      	ldrsh	r4, [r3, r4]
 800338e:	2308      	movs	r3, #8
 8003390:	18f3      	adds	r3, r6, r3
 8003392:	19db      	adds	r3, r3, r7
 8003394:	881b      	ldrh	r3, [r3, #0]
 8003396:	9301      	str	r3, [sp, #4]
 8003398:	9200      	str	r2, [sp, #0]
 800339a:	2301      	movs	r3, #1
 800339c:	0022      	movs	r2, r4
 800339e:	f7ff fca0 	bl	8002ce2 <fillCircleHelper>
    fillCircleHelper(x+r    , y+r, r, 2, h-2*r-1, color);
 80033a2:	1dbb      	adds	r3, r7, #6
 80033a4:	881a      	ldrh	r2, [r3, #0]
 80033a6:	002c      	movs	r4, r5
 80033a8:	2508      	movs	r5, #8
 80033aa:	1963      	adds	r3, r4, r5
 80033ac:	19db      	adds	r3, r3, r7
 80033ae:	881b      	ldrh	r3, [r3, #0]
 80033b0:	18d3      	adds	r3, r2, r3
 80033b2:	b29b      	uxth	r3, r3
 80033b4:	b218      	sxth	r0, r3
 80033b6:	1d3b      	adds	r3, r7, #4
 80033b8:	881a      	ldrh	r2, [r3, #0]
 80033ba:	1963      	adds	r3, r4, r5
 80033bc:	19db      	adds	r3, r3, r7
 80033be:	881b      	ldrh	r3, [r3, #0]
 80033c0:	18d3      	adds	r3, r2, r3
 80033c2:	b29b      	uxth	r3, r3
 80033c4:	b219      	sxth	r1, r3
 80033c6:	003b      	movs	r3, r7
 80033c8:	881a      	ldrh	r2, [r3, #0]
 80033ca:	1963      	adds	r3, r4, r5
 80033cc:	19db      	adds	r3, r3, r7
 80033ce:	881b      	ldrh	r3, [r3, #0]
 80033d0:	18db      	adds	r3, r3, r3
 80033d2:	b29b      	uxth	r3, r3
 80033d4:	1ad3      	subs	r3, r2, r3
 80033d6:	b29b      	uxth	r3, r3
 80033d8:	3b01      	subs	r3, #1
 80033da:	b29b      	uxth	r3, r3
 80033dc:	b21a      	sxth	r2, r3
 80033de:	1963      	adds	r3, r4, r5
 80033e0:	19db      	adds	r3, r3, r7
 80033e2:	2400      	movs	r4, #0
 80033e4:	5f1c      	ldrsh	r4, [r3, r4]
 80033e6:	1973      	adds	r3, r6, r5
 80033e8:	19db      	adds	r3, r3, r7
 80033ea:	881b      	ldrh	r3, [r3, #0]
 80033ec:	9301      	str	r3, [sp, #4]
 80033ee:	9200      	str	r2, [sp, #0]
 80033f0:	2302      	movs	r3, #2
 80033f2:	0022      	movs	r2, r4
 80033f4:	f7ff fc75 	bl	8002ce2 <fillCircleHelper>
}
 80033f8:	46c0      	nop			; (mov r8, r8)
 80033fa:	46bd      	mov	sp, r7
 80033fc:	b005      	add	sp, #20
 80033fe:	bdf0      	pop	{r4, r5, r6, r7, pc}

08003400 <fillTriangle>:
    drawLine(x2, y2, x0, y0, color);
}


void fillTriangle(int16_t x0, int16_t y0, int16_t x1, int16_t y1, int16_t x2, int16_t y2, uint16_t color)
{
 8003400:	b5b0      	push	{r4, r5, r7, lr}
 8003402:	b08e      	sub	sp, #56	; 0x38
 8003404:	af00      	add	r7, sp, #0
 8003406:	0005      	movs	r5, r0
 8003408:	000c      	movs	r4, r1
 800340a:	0010      	movs	r0, r2
 800340c:	0019      	movs	r1, r3
 800340e:	1dbb      	adds	r3, r7, #6
 8003410:	1c2a      	adds	r2, r5, #0
 8003412:	801a      	strh	r2, [r3, #0]
 8003414:	1d3b      	adds	r3, r7, #4
 8003416:	1c22      	adds	r2, r4, #0
 8003418:	801a      	strh	r2, [r3, #0]
 800341a:	1cbb      	adds	r3, r7, #2
 800341c:	1c02      	adds	r2, r0, #0
 800341e:	801a      	strh	r2, [r3, #0]
 8003420:	003b      	movs	r3, r7
 8003422:	1c0a      	adds	r2, r1, #0
 8003424:	801a      	strh	r2, [r3, #0]

    int16_t a, b, y, last;

    // Sort coordinates by Y order (y2 >= y1 >= y0)
    if (y0 > y1) {
 8003426:	1d3a      	adds	r2, r7, #4
 8003428:	003b      	movs	r3, r7
 800342a:	2100      	movs	r1, #0
 800342c:	5e52      	ldrsh	r2, [r2, r1]
 800342e:	2100      	movs	r1, #0
 8003430:	5e5b      	ldrsh	r3, [r3, r1]
 8003432:	429a      	cmp	r2, r3
 8003434:	dd19      	ble.n	800346a <fillTriangle+0x6a>
        _swap_int16_t(y0, y1); _swap_int16_t(x0, x1);
 8003436:	2126      	movs	r1, #38	; 0x26
 8003438:	187b      	adds	r3, r7, r1
 800343a:	1d3a      	adds	r2, r7, #4
 800343c:	8812      	ldrh	r2, [r2, #0]
 800343e:	801a      	strh	r2, [r3, #0]
 8003440:	1d3b      	adds	r3, r7, #4
 8003442:	003a      	movs	r2, r7
 8003444:	8812      	ldrh	r2, [r2, #0]
 8003446:	801a      	strh	r2, [r3, #0]
 8003448:	003b      	movs	r3, r7
 800344a:	187a      	adds	r2, r7, r1
 800344c:	8812      	ldrh	r2, [r2, #0]
 800344e:	801a      	strh	r2, [r3, #0]
 8003450:	2124      	movs	r1, #36	; 0x24
 8003452:	187b      	adds	r3, r7, r1
 8003454:	1dba      	adds	r2, r7, #6
 8003456:	8812      	ldrh	r2, [r2, #0]
 8003458:	801a      	strh	r2, [r3, #0]
 800345a:	1dbb      	adds	r3, r7, #6
 800345c:	1cba      	adds	r2, r7, #2
 800345e:	8812      	ldrh	r2, [r2, #0]
 8003460:	801a      	strh	r2, [r3, #0]
 8003462:	1cbb      	adds	r3, r7, #2
 8003464:	187a      	adds	r2, r7, r1
 8003466:	8812      	ldrh	r2, [r2, #0]
 8003468:	801a      	strh	r2, [r3, #0]
    }
    if (y1 > y2) {
 800346a:	003a      	movs	r2, r7
 800346c:	214c      	movs	r1, #76	; 0x4c
 800346e:	187b      	adds	r3, r7, r1
 8003470:	2000      	movs	r0, #0
 8003472:	5e12      	ldrsh	r2, [r2, r0]
 8003474:	2000      	movs	r0, #0
 8003476:	5e1b      	ldrsh	r3, [r3, r0]
 8003478:	429a      	cmp	r2, r3
 800347a:	dd1a      	ble.n	80034b2 <fillTriangle+0xb2>
        _swap_int16_t(y2, y1); _swap_int16_t(x2, x1);
 800347c:	2022      	movs	r0, #34	; 0x22
 800347e:	183b      	adds	r3, r7, r0
 8003480:	187a      	adds	r2, r7, r1
 8003482:	8812      	ldrh	r2, [r2, #0]
 8003484:	801a      	strh	r2, [r3, #0]
 8003486:	187b      	adds	r3, r7, r1
 8003488:	003a      	movs	r2, r7
 800348a:	8812      	ldrh	r2, [r2, #0]
 800348c:	801a      	strh	r2, [r3, #0]
 800348e:	003b      	movs	r3, r7
 8003490:	183a      	adds	r2, r7, r0
 8003492:	8812      	ldrh	r2, [r2, #0]
 8003494:	801a      	strh	r2, [r3, #0]
 8003496:	2120      	movs	r1, #32
 8003498:	187a      	adds	r2, r7, r1
 800349a:	2048      	movs	r0, #72	; 0x48
 800349c:	183b      	adds	r3, r7, r0
 800349e:	881b      	ldrh	r3, [r3, #0]
 80034a0:	8013      	strh	r3, [r2, #0]
 80034a2:	183b      	adds	r3, r7, r0
 80034a4:	1cba      	adds	r2, r7, #2
 80034a6:	8812      	ldrh	r2, [r2, #0]
 80034a8:	801a      	strh	r2, [r3, #0]
 80034aa:	1cbb      	adds	r3, r7, #2
 80034ac:	187a      	adds	r2, r7, r1
 80034ae:	8812      	ldrh	r2, [r2, #0]
 80034b0:	801a      	strh	r2, [r3, #0]
    }
    if (y0 > y1) {
 80034b2:	1d3a      	adds	r2, r7, #4
 80034b4:	003b      	movs	r3, r7
 80034b6:	2100      	movs	r1, #0
 80034b8:	5e52      	ldrsh	r2, [r2, r1]
 80034ba:	2100      	movs	r1, #0
 80034bc:	5e5b      	ldrsh	r3, [r3, r1]
 80034be:	429a      	cmp	r2, r3
 80034c0:	dd19      	ble.n	80034f6 <fillTriangle+0xf6>
        _swap_int16_t(y0, y1); _swap_int16_t(x0, x1);
 80034c2:	211e      	movs	r1, #30
 80034c4:	187b      	adds	r3, r7, r1
 80034c6:	1d3a      	adds	r2, r7, #4
 80034c8:	8812      	ldrh	r2, [r2, #0]
 80034ca:	801a      	strh	r2, [r3, #0]
 80034cc:	1d3b      	adds	r3, r7, #4
 80034ce:	003a      	movs	r2, r7
 80034d0:	8812      	ldrh	r2, [r2, #0]
 80034d2:	801a      	strh	r2, [r3, #0]
 80034d4:	003b      	movs	r3, r7
 80034d6:	187a      	adds	r2, r7, r1
 80034d8:	8812      	ldrh	r2, [r2, #0]
 80034da:	801a      	strh	r2, [r3, #0]
 80034dc:	211c      	movs	r1, #28
 80034de:	187b      	adds	r3, r7, r1
 80034e0:	1dba      	adds	r2, r7, #6
 80034e2:	8812      	ldrh	r2, [r2, #0]
 80034e4:	801a      	strh	r2, [r3, #0]
 80034e6:	1dbb      	adds	r3, r7, #6
 80034e8:	1cba      	adds	r2, r7, #2
 80034ea:	8812      	ldrh	r2, [r2, #0]
 80034ec:	801a      	strh	r2, [r3, #0]
 80034ee:	1cbb      	adds	r3, r7, #2
 80034f0:	187a      	adds	r2, r7, r1
 80034f2:	8812      	ldrh	r2, [r2, #0]
 80034f4:	801a      	strh	r2, [r3, #0]
    }

    if(y0 == y2) { // Handle awkward all-on-same-line case as its own thing
 80034f6:	1d3a      	adds	r2, r7, #4
 80034f8:	234c      	movs	r3, #76	; 0x4c
 80034fa:	18fb      	adds	r3, r7, r3
 80034fc:	2100      	movs	r1, #0
 80034fe:	5e52      	ldrsh	r2, [r2, r1]
 8003500:	2100      	movs	r1, #0
 8003502:	5e5b      	ldrsh	r3, [r3, r1]
 8003504:	429a      	cmp	r2, r3
 8003506:	d158      	bne.n	80035ba <fillTriangle+0x1ba>
        a = b = x0;
 8003508:	2034      	movs	r0, #52	; 0x34
 800350a:	183b      	adds	r3, r7, r0
 800350c:	1dba      	adds	r2, r7, #6
 800350e:	8812      	ldrh	r2, [r2, #0]
 8003510:	801a      	strh	r2, [r3, #0]
 8003512:	2136      	movs	r1, #54	; 0x36
 8003514:	187b      	adds	r3, r7, r1
 8003516:	183a      	adds	r2, r7, r0
 8003518:	8812      	ldrh	r2, [r2, #0]
 800351a:	801a      	strh	r2, [r3, #0]
        if(x1 < a)      a = x1;
 800351c:	1cba      	adds	r2, r7, #2
 800351e:	187b      	adds	r3, r7, r1
 8003520:	2000      	movs	r0, #0
 8003522:	5e12      	ldrsh	r2, [r2, r0]
 8003524:	2000      	movs	r0, #0
 8003526:	5e1b      	ldrsh	r3, [r3, r0]
 8003528:	429a      	cmp	r2, r3
 800352a:	da04      	bge.n	8003536 <fillTriangle+0x136>
 800352c:	187b      	adds	r3, r7, r1
 800352e:	1cba      	adds	r2, r7, #2
 8003530:	8812      	ldrh	r2, [r2, #0]
 8003532:	801a      	strh	r2, [r3, #0]
 8003534:	e00c      	b.n	8003550 <fillTriangle+0x150>
        else if(x1 > b) b = x1;
 8003536:	1cba      	adds	r2, r7, #2
 8003538:	2134      	movs	r1, #52	; 0x34
 800353a:	187b      	adds	r3, r7, r1
 800353c:	2000      	movs	r0, #0
 800353e:	5e12      	ldrsh	r2, [r2, r0]
 8003540:	2000      	movs	r0, #0
 8003542:	5e1b      	ldrsh	r3, [r3, r0]
 8003544:	429a      	cmp	r2, r3
 8003546:	dd03      	ble.n	8003550 <fillTriangle+0x150>
 8003548:	187b      	adds	r3, r7, r1
 800354a:	1cba      	adds	r2, r7, #2
 800354c:	8812      	ldrh	r2, [r2, #0]
 800354e:	801a      	strh	r2, [r3, #0]
        if(x2 < a)      a = x2;
 8003550:	2048      	movs	r0, #72	; 0x48
 8003552:	183b      	adds	r3, r7, r0
 8003554:	2436      	movs	r4, #54	; 0x36
 8003556:	1939      	adds	r1, r7, r4
 8003558:	2200      	movs	r2, #0
 800355a:	5e9a      	ldrsh	r2, [r3, r2]
 800355c:	2300      	movs	r3, #0
 800355e:	5ecb      	ldrsh	r3, [r1, r3]
 8003560:	429a      	cmp	r2, r3
 8003562:	da04      	bge.n	800356e <fillTriangle+0x16e>
 8003564:	193a      	adds	r2, r7, r4
 8003566:	183b      	adds	r3, r7, r0
 8003568:	881b      	ldrh	r3, [r3, #0]
 800356a:	8013      	strh	r3, [r2, #0]
 800356c:	e00d      	b.n	800358a <fillTriangle+0x18a>
        else if(x2 > b) b = x2;
 800356e:	2048      	movs	r0, #72	; 0x48
 8003570:	183b      	adds	r3, r7, r0
 8003572:	2434      	movs	r4, #52	; 0x34
 8003574:	1939      	adds	r1, r7, r4
 8003576:	2200      	movs	r2, #0
 8003578:	5e9a      	ldrsh	r2, [r3, r2]
 800357a:	2300      	movs	r3, #0
 800357c:	5ecb      	ldrsh	r3, [r1, r3]
 800357e:	429a      	cmp	r2, r3
 8003580:	dd03      	ble.n	800358a <fillTriangle+0x18a>
 8003582:	193a      	adds	r2, r7, r4
 8003584:	183b      	adds	r3, r7, r0
 8003586:	881b      	ldrh	r3, [r3, #0]
 8003588:	8013      	strh	r3, [r2, #0]
        drawFastHLine(a, y0, b-a+1, color);
 800358a:	2334      	movs	r3, #52	; 0x34
 800358c:	18fb      	adds	r3, r7, r3
 800358e:	881a      	ldrh	r2, [r3, #0]
 8003590:	2036      	movs	r0, #54	; 0x36
 8003592:	183b      	adds	r3, r7, r0
 8003594:	881b      	ldrh	r3, [r3, #0]
 8003596:	1ad3      	subs	r3, r2, r3
 8003598:	b29b      	uxth	r3, r3
 800359a:	3301      	adds	r3, #1
 800359c:	b29b      	uxth	r3, r3
 800359e:	b21a      	sxth	r2, r3
 80035a0:	2350      	movs	r3, #80	; 0x50
 80035a2:	18fb      	adds	r3, r7, r3
 80035a4:	881c      	ldrh	r4, [r3, #0]
 80035a6:	1d3b      	adds	r3, r7, #4
 80035a8:	2100      	movs	r1, #0
 80035aa:	5e59      	ldrsh	r1, [r3, r1]
 80035ac:	183b      	adds	r3, r7, r0
 80035ae:	2000      	movs	r0, #0
 80035b0:	5e18      	ldrsh	r0, [r3, r0]
 80035b2:	0023      	movs	r3, r4
 80035b4:	f7ff fa24 	bl	8002a00 <drawFastHLine>
        return;
 80035b8:	e151      	b.n	800385e <fillTriangle+0x45e>
    }

    int16_t
    dx01 = x1 - x0,
 80035ba:	1cbb      	adds	r3, r7, #2
 80035bc:	881a      	ldrh	r2, [r3, #0]
 80035be:	1dbb      	adds	r3, r7, #6
 80035c0:	881b      	ldrh	r3, [r3, #0]
 80035c2:	1ad3      	subs	r3, r2, r3
 80035c4:	b29a      	uxth	r2, r3
 80035c6:	231a      	movs	r3, #26
 80035c8:	18fb      	adds	r3, r7, r3
 80035ca:	801a      	strh	r2, [r3, #0]
    dy01 = y1 - y0,
 80035cc:	003b      	movs	r3, r7
 80035ce:	881a      	ldrh	r2, [r3, #0]
 80035d0:	1d3b      	adds	r3, r7, #4
 80035d2:	881b      	ldrh	r3, [r3, #0]
 80035d4:	1ad3      	subs	r3, r2, r3
 80035d6:	b29a      	uxth	r2, r3
 80035d8:	2318      	movs	r3, #24
 80035da:	18fb      	adds	r3, r7, r3
 80035dc:	801a      	strh	r2, [r3, #0]
    dx02 = x2 - x0,
 80035de:	2048      	movs	r0, #72	; 0x48
 80035e0:	183b      	adds	r3, r7, r0
 80035e2:	881a      	ldrh	r2, [r3, #0]
 80035e4:	1dbb      	adds	r3, r7, #6
 80035e6:	881b      	ldrh	r3, [r3, #0]
 80035e8:	1ad3      	subs	r3, r2, r3
 80035ea:	b29a      	uxth	r2, r3
 80035ec:	2316      	movs	r3, #22
 80035ee:	18fb      	adds	r3, r7, r3
 80035f0:	801a      	strh	r2, [r3, #0]
    dy02 = y2 - y0,
 80035f2:	214c      	movs	r1, #76	; 0x4c
 80035f4:	187b      	adds	r3, r7, r1
 80035f6:	881a      	ldrh	r2, [r3, #0]
 80035f8:	1d3b      	adds	r3, r7, #4
 80035fa:	881b      	ldrh	r3, [r3, #0]
 80035fc:	1ad3      	subs	r3, r2, r3
 80035fe:	b29a      	uxth	r2, r3
 8003600:	2314      	movs	r3, #20
 8003602:	18fb      	adds	r3, r7, r3
 8003604:	801a      	strh	r2, [r3, #0]
    dx12 = x2 - x1,
 8003606:	183b      	adds	r3, r7, r0
 8003608:	881a      	ldrh	r2, [r3, #0]
 800360a:	1cbb      	adds	r3, r7, #2
 800360c:	881b      	ldrh	r3, [r3, #0]
 800360e:	1ad3      	subs	r3, r2, r3
 8003610:	b29a      	uxth	r2, r3
 8003612:	2312      	movs	r3, #18
 8003614:	18fb      	adds	r3, r7, r3
 8003616:	801a      	strh	r2, [r3, #0]
    dy12 = y2 - y1;
 8003618:	187b      	adds	r3, r7, r1
 800361a:	881a      	ldrh	r2, [r3, #0]
 800361c:	003b      	movs	r3, r7
 800361e:	881b      	ldrh	r3, [r3, #0]
 8003620:	1ad3      	subs	r3, r2, r3
 8003622:	b29a      	uxth	r2, r3
 8003624:	2310      	movs	r3, #16
 8003626:	18fb      	adds	r3, r7, r3
 8003628:	801a      	strh	r2, [r3, #0]
    int32_t
    sa   = 0,
 800362a:	2300      	movs	r3, #0
 800362c:	62fb      	str	r3, [r7, #44]	; 0x2c
    sb   = 0;
 800362e:	2300      	movs	r3, #0
 8003630:	62bb      	str	r3, [r7, #40]	; 0x28
    // 0-1 and 0-2.  If y1=y2 (flat-bottomed triangle), the scanline y1
    // is included here (and second loop will be skipped, avoiding a /0
    // error there), otherwise scanline y1 is skipped here and handled
    // in the second loop...which also avoids a /0 error here if y0=y1
    // (flat-topped triangle).
    if(y1 == y2) last = y1;   // Include y1 scanline
 8003632:	003a      	movs	r2, r7
 8003634:	187b      	adds	r3, r7, r1
 8003636:	2100      	movs	r1, #0
 8003638:	5e52      	ldrsh	r2, [r2, r1]
 800363a:	2100      	movs	r1, #0
 800363c:	5e5b      	ldrsh	r3, [r3, r1]
 800363e:	429a      	cmp	r2, r3
 8003640:	d105      	bne.n	800364e <fillTriangle+0x24e>
 8003642:	2330      	movs	r3, #48	; 0x30
 8003644:	18fb      	adds	r3, r7, r3
 8003646:	003a      	movs	r2, r7
 8003648:	8812      	ldrh	r2, [r2, #0]
 800364a:	801a      	strh	r2, [r3, #0]
 800364c:	e006      	b.n	800365c <fillTriangle+0x25c>
    else         last = y1-1; // Skip it
 800364e:	003b      	movs	r3, r7
 8003650:	881b      	ldrh	r3, [r3, #0]
 8003652:	3b01      	subs	r3, #1
 8003654:	b29a      	uxth	r2, r3
 8003656:	2330      	movs	r3, #48	; 0x30
 8003658:	18fb      	adds	r3, r7, r3
 800365a:	801a      	strh	r2, [r3, #0]

    for(y=y0; y<=last; y++) {
 800365c:	2332      	movs	r3, #50	; 0x32
 800365e:	18fb      	adds	r3, r7, r3
 8003660:	1d3a      	adds	r2, r7, #4
 8003662:	8812      	ldrh	r2, [r2, #0]
 8003664:	801a      	strh	r2, [r3, #0]
 8003666:	e065      	b.n	8003734 <fillTriangle+0x334>
        a   = x0 + sa / dy01;
 8003668:	2318      	movs	r3, #24
 800366a:	18fb      	adds	r3, r7, r3
 800366c:	2200      	movs	r2, #0
 800366e:	5e9b      	ldrsh	r3, [r3, r2]
 8003670:	0019      	movs	r1, r3
 8003672:	6af8      	ldr	r0, [r7, #44]	; 0x2c
 8003674:	f7fc fdd0 	bl	8000218 <__divsi3>
 8003678:	0003      	movs	r3, r0
 800367a:	b29a      	uxth	r2, r3
 800367c:	1dbb      	adds	r3, r7, #6
 800367e:	881b      	ldrh	r3, [r3, #0]
 8003680:	18d3      	adds	r3, r2, r3
 8003682:	b29a      	uxth	r2, r3
 8003684:	2436      	movs	r4, #54	; 0x36
 8003686:	193b      	adds	r3, r7, r4
 8003688:	801a      	strh	r2, [r3, #0]
        b   = x0 + sb / dy02;
 800368a:	2314      	movs	r3, #20
 800368c:	18fb      	adds	r3, r7, r3
 800368e:	2200      	movs	r2, #0
 8003690:	5e9b      	ldrsh	r3, [r3, r2]
 8003692:	0019      	movs	r1, r3
 8003694:	6ab8      	ldr	r0, [r7, #40]	; 0x28
 8003696:	f7fc fdbf 	bl	8000218 <__divsi3>
 800369a:	0003      	movs	r3, r0
 800369c:	b29a      	uxth	r2, r3
 800369e:	1dbb      	adds	r3, r7, #6
 80036a0:	881b      	ldrh	r3, [r3, #0]
 80036a2:	18d3      	adds	r3, r2, r3
 80036a4:	b29a      	uxth	r2, r3
 80036a6:	2134      	movs	r1, #52	; 0x34
 80036a8:	187b      	adds	r3, r7, r1
 80036aa:	801a      	strh	r2, [r3, #0]
        sa += dx01;
 80036ac:	231a      	movs	r3, #26
 80036ae:	18fb      	adds	r3, r7, r3
 80036b0:	2200      	movs	r2, #0
 80036b2:	5e9b      	ldrsh	r3, [r3, r2]
 80036b4:	6afa      	ldr	r2, [r7, #44]	; 0x2c
 80036b6:	18d3      	adds	r3, r2, r3
 80036b8:	62fb      	str	r3, [r7, #44]	; 0x2c
        sb += dx02;
 80036ba:	2316      	movs	r3, #22
 80036bc:	18fb      	adds	r3, r7, r3
 80036be:	2200      	movs	r2, #0
 80036c0:	5e9b      	ldrsh	r3, [r3, r2]
 80036c2:	6aba      	ldr	r2, [r7, #40]	; 0x28
 80036c4:	18d3      	adds	r3, r2, r3
 80036c6:	62bb      	str	r3, [r7, #40]	; 0x28
        /* longhand:
        a = x0 + (x1 - x0) * (y - y0) / (y1 - y0);
        b = x0 + (x2 - x0) * (y - y0) / (y2 - y0);
        */
        if(a > b) _swap_int16_t(a,b);
 80036c8:	193a      	adds	r2, r7, r4
 80036ca:	187b      	adds	r3, r7, r1
 80036cc:	2000      	movs	r0, #0
 80036ce:	5e12      	ldrsh	r2, [r2, r0]
 80036d0:	2000      	movs	r0, #0
 80036d2:	5e1b      	ldrsh	r3, [r3, r0]
 80036d4:	429a      	cmp	r2, r3
 80036d6:	dd0c      	ble.n	80036f2 <fillTriangle+0x2f2>
 80036d8:	200c      	movs	r0, #12
 80036da:	183b      	adds	r3, r7, r0
 80036dc:	193a      	adds	r2, r7, r4
 80036de:	8812      	ldrh	r2, [r2, #0]
 80036e0:	801a      	strh	r2, [r3, #0]
 80036e2:	193b      	adds	r3, r7, r4
 80036e4:	187a      	adds	r2, r7, r1
 80036e6:	8812      	ldrh	r2, [r2, #0]
 80036e8:	801a      	strh	r2, [r3, #0]
 80036ea:	187b      	adds	r3, r7, r1
 80036ec:	183a      	adds	r2, r7, r0
 80036ee:	8812      	ldrh	r2, [r2, #0]
 80036f0:	801a      	strh	r2, [r3, #0]
        drawFastHLine(a, y, b-a+1, color);
 80036f2:	2334      	movs	r3, #52	; 0x34
 80036f4:	18fb      	adds	r3, r7, r3
 80036f6:	881a      	ldrh	r2, [r3, #0]
 80036f8:	2036      	movs	r0, #54	; 0x36
 80036fa:	183b      	adds	r3, r7, r0
 80036fc:	881b      	ldrh	r3, [r3, #0]
 80036fe:	1ad3      	subs	r3, r2, r3
 8003700:	b29b      	uxth	r3, r3
 8003702:	3301      	adds	r3, #1
 8003704:	b29b      	uxth	r3, r3
 8003706:	b21a      	sxth	r2, r3
 8003708:	2350      	movs	r3, #80	; 0x50
 800370a:	18fb      	adds	r3, r7, r3
 800370c:	881c      	ldrh	r4, [r3, #0]
 800370e:	2532      	movs	r5, #50	; 0x32
 8003710:	197b      	adds	r3, r7, r5
 8003712:	2100      	movs	r1, #0
 8003714:	5e59      	ldrsh	r1, [r3, r1]
 8003716:	183b      	adds	r3, r7, r0
 8003718:	2000      	movs	r0, #0
 800371a:	5e18      	ldrsh	r0, [r3, r0]
 800371c:	0023      	movs	r3, r4
 800371e:	f7ff f96f 	bl	8002a00 <drawFastHLine>
    for(y=y0; y<=last; y++) {
 8003722:	0029      	movs	r1, r5
 8003724:	187b      	adds	r3, r7, r1
 8003726:	2200      	movs	r2, #0
 8003728:	5e9b      	ldrsh	r3, [r3, r2]
 800372a:	b29b      	uxth	r3, r3
 800372c:	3301      	adds	r3, #1
 800372e:	b29a      	uxth	r2, r3
 8003730:	187b      	adds	r3, r7, r1
 8003732:	801a      	strh	r2, [r3, #0]
 8003734:	2032      	movs	r0, #50	; 0x32
 8003736:	183a      	adds	r2, r7, r0
 8003738:	2330      	movs	r3, #48	; 0x30
 800373a:	18fb      	adds	r3, r7, r3
 800373c:	2100      	movs	r1, #0
 800373e:	5e52      	ldrsh	r2, [r2, r1]
 8003740:	2100      	movs	r1, #0
 8003742:	5e5b      	ldrsh	r3, [r3, r1]
 8003744:	429a      	cmp	r2, r3
 8003746:	dd8f      	ble.n	8003668 <fillTriangle+0x268>
    }

    // For lower part of triangle, find scanline crossings for segments
    // 0-2 and 1-2.  This loop is skipped if y1=y2.
    sa = (int32_t)dx12 * (y - y1);
 8003748:	2312      	movs	r3, #18
 800374a:	18fb      	adds	r3, r7, r3
 800374c:	2200      	movs	r2, #0
 800374e:	5e9b      	ldrsh	r3, [r3, r2]
 8003750:	183a      	adds	r2, r7, r0
 8003752:	2100      	movs	r1, #0
 8003754:	5e51      	ldrsh	r1, [r2, r1]
 8003756:	003a      	movs	r2, r7
 8003758:	2400      	movs	r4, #0
 800375a:	5f12      	ldrsh	r2, [r2, r4]
 800375c:	1a8a      	subs	r2, r1, r2
 800375e:	4353      	muls	r3, r2
 8003760:	62fb      	str	r3, [r7, #44]	; 0x2c
    sb = (int32_t)dx02 * (y - y0);
 8003762:	2316      	movs	r3, #22
 8003764:	18fb      	adds	r3, r7, r3
 8003766:	2200      	movs	r2, #0
 8003768:	5e9b      	ldrsh	r3, [r3, r2]
 800376a:	183a      	adds	r2, r7, r0
 800376c:	2100      	movs	r1, #0
 800376e:	5e51      	ldrsh	r1, [r2, r1]
 8003770:	1d3a      	adds	r2, r7, #4
 8003772:	2000      	movs	r0, #0
 8003774:	5e12      	ldrsh	r2, [r2, r0]
 8003776:	1a8a      	subs	r2, r1, r2
 8003778:	4353      	muls	r3, r2
 800377a:	62bb      	str	r3, [r7, #40]	; 0x28
    for(; y<=y2; y++) {
 800377c:	e065      	b.n	800384a <fillTriangle+0x44a>
        a   = x1 + sa / dy12;
 800377e:	2310      	movs	r3, #16
 8003780:	18fb      	adds	r3, r7, r3
 8003782:	2200      	movs	r2, #0
 8003784:	5e9b      	ldrsh	r3, [r3, r2]
 8003786:	0019      	movs	r1, r3
 8003788:	6af8      	ldr	r0, [r7, #44]	; 0x2c
 800378a:	f7fc fd45 	bl	8000218 <__divsi3>
 800378e:	0003      	movs	r3, r0
 8003790:	b29a      	uxth	r2, r3
 8003792:	1cbb      	adds	r3, r7, #2
 8003794:	881b      	ldrh	r3, [r3, #0]
 8003796:	18d3      	adds	r3, r2, r3
 8003798:	b29a      	uxth	r2, r3
 800379a:	2436      	movs	r4, #54	; 0x36
 800379c:	193b      	adds	r3, r7, r4
 800379e:	801a      	strh	r2, [r3, #0]
        b   = x0 + sb / dy02;
 80037a0:	2314      	movs	r3, #20
 80037a2:	18fb      	adds	r3, r7, r3
 80037a4:	2200      	movs	r2, #0
 80037a6:	5e9b      	ldrsh	r3, [r3, r2]
 80037a8:	0019      	movs	r1, r3
 80037aa:	6ab8      	ldr	r0, [r7, #40]	; 0x28
 80037ac:	f7fc fd34 	bl	8000218 <__divsi3>
 80037b0:	0003      	movs	r3, r0
 80037b2:	b29a      	uxth	r2, r3
 80037b4:	1dbb      	adds	r3, r7, #6
 80037b6:	881b      	ldrh	r3, [r3, #0]
 80037b8:	18d3      	adds	r3, r2, r3
 80037ba:	b29a      	uxth	r2, r3
 80037bc:	2134      	movs	r1, #52	; 0x34
 80037be:	187b      	adds	r3, r7, r1
 80037c0:	801a      	strh	r2, [r3, #0]
        sa += dx12;
 80037c2:	2312      	movs	r3, #18
 80037c4:	18fb      	adds	r3, r7, r3
 80037c6:	2200      	movs	r2, #0
 80037c8:	5e9b      	ldrsh	r3, [r3, r2]
 80037ca:	6afa      	ldr	r2, [r7, #44]	; 0x2c
 80037cc:	18d3      	adds	r3, r2, r3
 80037ce:	62fb      	str	r3, [r7, #44]	; 0x2c
        sb += dx02;
 80037d0:	2316      	movs	r3, #22
 80037d2:	18fb      	adds	r3, r7, r3
 80037d4:	2200      	movs	r2, #0
 80037d6:	5e9b      	ldrsh	r3, [r3, r2]
 80037d8:	6aba      	ldr	r2, [r7, #40]	; 0x28
 80037da:	18d3      	adds	r3, r2, r3
 80037dc:	62bb      	str	r3, [r7, #40]	; 0x28
        /* longhand:
        a = x1 + (x2 - x1) * (y - y1) / (y2 - y1);
        b = x0 + (x2 - x0) * (y - y0) / (y2 - y0);
        */
        if(a > b) _swap_int16_t(a,b);
 80037de:	193a      	adds	r2, r7, r4
 80037e0:	187b      	adds	r3, r7, r1
 80037e2:	2000      	movs	r0, #0
 80037e4:	5e12      	ldrsh	r2, [r2, r0]
 80037e6:	2000      	movs	r0, #0
 80037e8:	5e1b      	ldrsh	r3, [r3, r0]
 80037ea:	429a      	cmp	r2, r3
 80037ec:	dd0c      	ble.n	8003808 <fillTriangle+0x408>
 80037ee:	200e      	movs	r0, #14
 80037f0:	183b      	adds	r3, r7, r0
 80037f2:	193a      	adds	r2, r7, r4
 80037f4:	8812      	ldrh	r2, [r2, #0]
 80037f6:	801a      	strh	r2, [r3, #0]
 80037f8:	193b      	adds	r3, r7, r4
 80037fa:	187a      	adds	r2, r7, r1
 80037fc:	8812      	ldrh	r2, [r2, #0]
 80037fe:	801a      	strh	r2, [r3, #0]
 8003800:	187b      	adds	r3, r7, r1
 8003802:	183a      	adds	r2, r7, r0
 8003804:	8812      	ldrh	r2, [r2, #0]
 8003806:	801a      	strh	r2, [r3, #0]
        drawFastHLine(a, y, b-a+1, color);
 8003808:	2334      	movs	r3, #52	; 0x34
 800380a:	18fb      	adds	r3, r7, r3
 800380c:	881a      	ldrh	r2, [r3, #0]
 800380e:	2036      	movs	r0, #54	; 0x36
 8003810:	183b      	adds	r3, r7, r0
 8003812:	881b      	ldrh	r3, [r3, #0]
 8003814:	1ad3      	subs	r3, r2, r3
 8003816:	b29b      	uxth	r3, r3
 8003818:	3301      	adds	r3, #1
 800381a:	b29b      	uxth	r3, r3
 800381c:	b21a      	sxth	r2, r3
 800381e:	2350      	movs	r3, #80	; 0x50
 8003820:	18fb      	adds	r3, r7, r3
 8003822:	881c      	ldrh	r4, [r3, #0]
 8003824:	2532      	movs	r5, #50	; 0x32
 8003826:	197b      	adds	r3, r7, r5
 8003828:	2100      	movs	r1, #0
 800382a:	5e59      	ldrsh	r1, [r3, r1]
 800382c:	183b      	adds	r3, r7, r0
 800382e:	2000      	movs	r0, #0
 8003830:	5e18      	ldrsh	r0, [r3, r0]
 8003832:	0023      	movs	r3, r4
 8003834:	f7ff f8e4 	bl	8002a00 <drawFastHLine>
    for(; y<=y2; y++) {
 8003838:	0029      	movs	r1, r5
 800383a:	187b      	adds	r3, r7, r1
 800383c:	2200      	movs	r2, #0
 800383e:	5e9b      	ldrsh	r3, [r3, r2]
 8003840:	b29b      	uxth	r3, r3
 8003842:	3301      	adds	r3, #1
 8003844:	b29a      	uxth	r2, r3
 8003846:	187b      	adds	r3, r7, r1
 8003848:	801a      	strh	r2, [r3, #0]
 800384a:	2332      	movs	r3, #50	; 0x32
 800384c:	18fa      	adds	r2, r7, r3
 800384e:	234c      	movs	r3, #76	; 0x4c
 8003850:	18fb      	adds	r3, r7, r3
 8003852:	2100      	movs	r1, #0
 8003854:	5e52      	ldrsh	r2, [r2, r1]
 8003856:	2100      	movs	r1, #0
 8003858:	5e5b      	ldrsh	r3, [r3, r1]
 800385a:	429a      	cmp	r2, r3
 800385c:	dd8f      	ble.n	800377e <fillTriangle+0x37e>
    }
}
 800385e:	46bd      	mov	sp, r7
 8003860:	b00e      	add	sp, #56	; 0x38
 8003862:	bdb0      	pop	{r4, r5, r7, pc}

08003864 <fillScreen>:

void fillScreen(uint16_t color) {
 8003864:	b580      	push	{r7, lr}
 8003866:	b084      	sub	sp, #16
 8003868:	af02      	add	r7, sp, #8
 800386a:	0002      	movs	r2, r0
 800386c:	1dbb      	adds	r3, r7, #6
 800386e:	801a      	strh	r2, [r3, #0]
    fillRect(0, 0, _width, _height, color);
 8003870:	4b08      	ldr	r3, [pc, #32]	; (8003894 <fillScreen+0x30>)
 8003872:	2200      	movs	r2, #0
 8003874:	5e9a      	ldrsh	r2, [r3, r2]
 8003876:	4b08      	ldr	r3, [pc, #32]	; (8003898 <fillScreen+0x34>)
 8003878:	2100      	movs	r1, #0
 800387a:	5e59      	ldrsh	r1, [r3, r1]
 800387c:	1dbb      	adds	r3, r7, #6
 800387e:	881b      	ldrh	r3, [r3, #0]
 8003880:	9300      	str	r3, [sp, #0]
 8003882:	000b      	movs	r3, r1
 8003884:	2100      	movs	r1, #0
 8003886:	2000      	movs	r0, #0
 8003888:	f7fe ff4e 	bl	8002728 <fillRect>
}
 800388c:	46c0      	nop			; (mov r8, r8)
 800388e:	46bd      	mov	sp, r7
 8003890:	b002      	add	sp, #8
 8003892:	bd80      	pop	{r7, pc}
 8003894:	2000004c 	.word	0x2000004c
 8003898:	2000004e 	.word	0x2000004e

0800389c <ST7735_Select>:
      10,                     //     10 ms delay
    ST7735_DISPON ,    DELAY, //  4: Main screen turn on, no args w/delay
      100 };                  //     100 ms delay

void ST7735_Select()
{
 800389c:	b580      	push	{r7, lr}
 800389e:	af00      	add	r7, sp, #0
    HAL_GPIO_WritePin(CS_PORT, CS_PIN, GPIO_PIN_RESET);
 80038a0:	2380      	movs	r3, #128	; 0x80
 80038a2:	00db      	lsls	r3, r3, #3
 80038a4:	4803      	ldr	r0, [pc, #12]	; (80038b4 <ST7735_Select+0x18>)
 80038a6:	2200      	movs	r2, #0
 80038a8:	0019      	movs	r1, r3
 80038aa:	f002 fbac 	bl	8006006 <HAL_GPIO_WritePin>
}
 80038ae:	46c0      	nop			; (mov r8, r8)
 80038b0:	46bd      	mov	sp, r7
 80038b2:	bd80      	pop	{r7, pc}
 80038b4:	48000400 	.word	0x48000400

080038b8 <ST7735_Unselect>:

void ST7735_Unselect()
{
 80038b8:	b580      	push	{r7, lr}
 80038ba:	af00      	add	r7, sp, #0
    HAL_GPIO_WritePin(CS_PORT, CS_PIN, GPIO_PIN_SET);
 80038bc:	2380      	movs	r3, #128	; 0x80
 80038be:	00db      	lsls	r3, r3, #3
 80038c0:	4803      	ldr	r0, [pc, #12]	; (80038d0 <ST7735_Unselect+0x18>)
 80038c2:	2201      	movs	r2, #1
 80038c4:	0019      	movs	r1, r3
 80038c6:	f002 fb9e 	bl	8006006 <HAL_GPIO_WritePin>
}
 80038ca:	46c0      	nop			; (mov r8, r8)
 80038cc:	46bd      	mov	sp, r7
 80038ce:	bd80      	pop	{r7, pc}
 80038d0:	48000400 	.word	0x48000400

080038d4 <ST7735_Reset>:

void ST7735_Reset()
{
 80038d4:	b580      	push	{r7, lr}
 80038d6:	af00      	add	r7, sp, #0
    HAL_GPIO_WritePin(RST_PORT, RST_PIN, GPIO_PIN_RESET);
 80038d8:	4b08      	ldr	r3, [pc, #32]	; (80038fc <ST7735_Reset+0x28>)
 80038da:	2200      	movs	r2, #0
 80038dc:	2104      	movs	r1, #4
 80038de:	0018      	movs	r0, r3
 80038e0:	f002 fb91 	bl	8006006 <HAL_GPIO_WritePin>
    HAL_Delay(5);
 80038e4:	2005      	movs	r0, #5
 80038e6:	f001 fe0f 	bl	8005508 <HAL_Delay>
    HAL_GPIO_WritePin(RST_PORT, RST_PIN, GPIO_PIN_SET);
 80038ea:	4b04      	ldr	r3, [pc, #16]	; (80038fc <ST7735_Reset+0x28>)
 80038ec:	2201      	movs	r2, #1
 80038ee:	2104      	movs	r1, #4
 80038f0:	0018      	movs	r0, r3
 80038f2:	f002 fb88 	bl	8006006 <HAL_GPIO_WritePin>
}
 80038f6:	46c0      	nop			; (mov r8, r8)
 80038f8:	46bd      	mov	sp, r7
 80038fa:	bd80      	pop	{r7, pc}
 80038fc:	48000400 	.word	0x48000400

08003900 <ST7735_WriteCommand>:

  void ST7735_WriteCommand(uint8_t cmd)
  {
 8003900:	b580      	push	{r7, lr}
 8003902:	b082      	sub	sp, #8
 8003904:	af00      	add	r7, sp, #0
 8003906:	0002      	movs	r2, r0
 8003908:	1dfb      	adds	r3, r7, #7
 800390a:	701a      	strb	r2, [r3, #0]
    HAL_GPIO_WritePin(AD_PORT, AD_PIN, GPIO_PIN_RESET);
 800390c:	4b08      	ldr	r3, [pc, #32]	; (8003930 <ST7735_WriteCommand+0x30>)
 800390e:	2200      	movs	r2, #0
 8003910:	2102      	movs	r1, #2
 8003912:	0018      	movs	r0, r3
 8003914:	f002 fb77 	bl	8006006 <HAL_GPIO_WritePin>
    HAL_SPI_Transmit(&ST7735_SPI_PORT, &cmd, sizeof(cmd), HAL_MAX_DELAY);
 8003918:	2301      	movs	r3, #1
 800391a:	425b      	negs	r3, r3
 800391c:	1df9      	adds	r1, r7, #7
 800391e:	4805      	ldr	r0, [pc, #20]	; (8003934 <ST7735_WriteCommand+0x34>)
 8003920:	2201      	movs	r2, #1
 8003922:	f003 f889 	bl	8006a38 <HAL_SPI_Transmit>
}
 8003926:	46c0      	nop			; (mov r8, r8)
 8003928:	46bd      	mov	sp, r7
 800392a:	b002      	add	sp, #8
 800392c:	bd80      	pop	{r7, pc}
 800392e:	46c0      	nop			; (mov r8, r8)
 8003930:	48000400 	.word	0x48000400
 8003934:	20000098 	.word	0x20000098

08003938 <ST7735_WriteData>:

void ST7735_WriteData(uint8_t* buff, size_t buff_size)
{
 8003938:	b580      	push	{r7, lr}
 800393a:	b082      	sub	sp, #8
 800393c:	af00      	add	r7, sp, #0
 800393e:	6078      	str	r0, [r7, #4]
 8003940:	6039      	str	r1, [r7, #0]
    HAL_GPIO_WritePin(AD_PORT, AD_PIN, GPIO_PIN_SET);
 8003942:	4b09      	ldr	r3, [pc, #36]	; (8003968 <ST7735_WriteData+0x30>)
 8003944:	2201      	movs	r2, #1
 8003946:	2102      	movs	r1, #2
 8003948:	0018      	movs	r0, r3
 800394a:	f002 fb5c 	bl	8006006 <HAL_GPIO_WritePin>
    HAL_SPI_Transmit(&ST7735_SPI_PORT, buff, buff_size, HAL_MAX_DELAY);
 800394e:	683b      	ldr	r3, [r7, #0]
 8003950:	b29a      	uxth	r2, r3
 8003952:	2301      	movs	r3, #1
 8003954:	425b      	negs	r3, r3
 8003956:	6879      	ldr	r1, [r7, #4]
 8003958:	4804      	ldr	r0, [pc, #16]	; (800396c <ST7735_WriteData+0x34>)
 800395a:	f003 f86d 	bl	8006a38 <HAL_SPI_Transmit>
}
 800395e:	46c0      	nop			; (mov r8, r8)
 8003960:	46bd      	mov	sp, r7
 8003962:	b002      	add	sp, #8
 8003964:	bd80      	pop	{r7, pc}
 8003966:	46c0      	nop			; (mov r8, r8)
 8003968:	48000400 	.word	0x48000400
 800396c:	20000098 	.word	0x20000098

08003970 <DisplayInit>:

void DisplayInit(const uint8_t *addr)
{
 8003970:	b590      	push	{r4, r7, lr}
 8003972:	b085      	sub	sp, #20
 8003974:	af00      	add	r7, sp, #0
 8003976:	6078      	str	r0, [r7, #4]
    uint8_t numCommands, numArgs;
    uint16_t ms;

    numCommands = *addr++;
 8003978:	687b      	ldr	r3, [r7, #4]
 800397a:	1c5a      	adds	r2, r3, #1
 800397c:	607a      	str	r2, [r7, #4]
 800397e:	220f      	movs	r2, #15
 8003980:	18ba      	adds	r2, r7, r2
 8003982:	781b      	ldrb	r3, [r3, #0]
 8003984:	7013      	strb	r3, [r2, #0]
    while(numCommands--) {
 8003986:	e04a      	b.n	8003a1e <DisplayInit+0xae>
        uint8_t cmd = *addr++;
 8003988:	687b      	ldr	r3, [r7, #4]
 800398a:	1c5a      	adds	r2, r3, #1
 800398c:	607a      	str	r2, [r7, #4]
 800398e:	210b      	movs	r1, #11
 8003990:	187a      	adds	r2, r7, r1
 8003992:	781b      	ldrb	r3, [r3, #0]
 8003994:	7013      	strb	r3, [r2, #0]
        ST7735_WriteCommand(cmd);
 8003996:	187b      	adds	r3, r7, r1
 8003998:	781b      	ldrb	r3, [r3, #0]
 800399a:	0018      	movs	r0, r3
 800399c:	f7ff ffb0 	bl	8003900 <ST7735_WriteCommand>

        numArgs = *addr++;
 80039a0:	687b      	ldr	r3, [r7, #4]
 80039a2:	1c5a      	adds	r2, r3, #1
 80039a4:	607a      	str	r2, [r7, #4]
 80039a6:	200a      	movs	r0, #10
 80039a8:	183a      	adds	r2, r7, r0
 80039aa:	781b      	ldrb	r3, [r3, #0]
 80039ac:	7013      	strb	r3, [r2, #0]
        // If high bit set, delay follows args
        ms = numArgs & DELAY;
 80039ae:	183b      	adds	r3, r7, r0
 80039b0:	781b      	ldrb	r3, [r3, #0]
 80039b2:	b29a      	uxth	r2, r3
 80039b4:	230c      	movs	r3, #12
 80039b6:	18fb      	adds	r3, r7, r3
 80039b8:	2180      	movs	r1, #128	; 0x80
 80039ba:	400a      	ands	r2, r1
 80039bc:	801a      	strh	r2, [r3, #0]
        numArgs &= ~DELAY;
 80039be:	183b      	adds	r3, r7, r0
 80039c0:	183a      	adds	r2, r7, r0
 80039c2:	7812      	ldrb	r2, [r2, #0]
 80039c4:	217f      	movs	r1, #127	; 0x7f
 80039c6:	400a      	ands	r2, r1
 80039c8:	701a      	strb	r2, [r3, #0]
        if(numArgs) {
 80039ca:	183b      	adds	r3, r7, r0
 80039cc:	781b      	ldrb	r3, [r3, #0]
 80039ce:	2b00      	cmp	r3, #0
 80039d0:	d00c      	beq.n	80039ec <DisplayInit+0x7c>
            ST7735_WriteData((uint8_t*)addr, numArgs);
 80039d2:	0004      	movs	r4, r0
 80039d4:	183b      	adds	r3, r7, r0
 80039d6:	781a      	ldrb	r2, [r3, #0]
 80039d8:	687b      	ldr	r3, [r7, #4]
 80039da:	0011      	movs	r1, r2
 80039dc:	0018      	movs	r0, r3
 80039de:	f7ff ffab 	bl	8003938 <ST7735_WriteData>
            addr += numArgs;
 80039e2:	193b      	adds	r3, r7, r4
 80039e4:	781b      	ldrb	r3, [r3, #0]
 80039e6:	687a      	ldr	r2, [r7, #4]
 80039e8:	18d3      	adds	r3, r2, r3
 80039ea:	607b      	str	r3, [r7, #4]
        }

        if(ms) {
 80039ec:	210c      	movs	r1, #12
 80039ee:	187b      	adds	r3, r7, r1
 80039f0:	881b      	ldrh	r3, [r3, #0]
 80039f2:	2b00      	cmp	r3, #0
 80039f4:	d013      	beq.n	8003a1e <DisplayInit+0xae>
            ms = *addr++;
 80039f6:	687b      	ldr	r3, [r7, #4]
 80039f8:	1c5a      	adds	r2, r3, #1
 80039fa:	607a      	str	r2, [r7, #4]
 80039fc:	781a      	ldrb	r2, [r3, #0]
 80039fe:	187b      	adds	r3, r7, r1
 8003a00:	801a      	strh	r2, [r3, #0]
            if(ms == 255) ms = 500;
 8003a02:	187b      	adds	r3, r7, r1
 8003a04:	881b      	ldrh	r3, [r3, #0]
 8003a06:	2bff      	cmp	r3, #255	; 0xff
 8003a08:	d103      	bne.n	8003a12 <DisplayInit+0xa2>
 8003a0a:	187b      	adds	r3, r7, r1
 8003a0c:	22fa      	movs	r2, #250	; 0xfa
 8003a0e:	0052      	lsls	r2, r2, #1
 8003a10:	801a      	strh	r2, [r3, #0]
            HAL_Delay(ms);
 8003a12:	230c      	movs	r3, #12
 8003a14:	18fb      	adds	r3, r7, r3
 8003a16:	881b      	ldrh	r3, [r3, #0]
 8003a18:	0018      	movs	r0, r3
 8003a1a:	f001 fd75 	bl	8005508 <HAL_Delay>
    while(numCommands--) {
 8003a1e:	220f      	movs	r2, #15
 8003a20:	18bb      	adds	r3, r7, r2
 8003a22:	781b      	ldrb	r3, [r3, #0]
 8003a24:	18ba      	adds	r2, r7, r2
 8003a26:	1e59      	subs	r1, r3, #1
 8003a28:	7011      	strb	r1, [r2, #0]
 8003a2a:	2b00      	cmp	r3, #0
 8003a2c:	d1ac      	bne.n	8003988 <DisplayInit+0x18>
        }
    }
}
 8003a2e:	46c0      	nop			; (mov r8, r8)
 8003a30:	46c0      	nop			; (mov r8, r8)
 8003a32:	46bd      	mov	sp, r7
 8003a34:	b005      	add	sp, #20
 8003a36:	bd90      	pop	{r4, r7, pc}

08003a38 <ST7735_SetAddressWindow>:

void ST7735_SetAddressWindow(uint8_t x0, uint8_t y0, uint8_t x1, uint8_t y1)
{
 8003a38:	b5b0      	push	{r4, r5, r7, lr}
 8003a3a:	b084      	sub	sp, #16
 8003a3c:	af00      	add	r7, sp, #0
 8003a3e:	0005      	movs	r5, r0
 8003a40:	000c      	movs	r4, r1
 8003a42:	0010      	movs	r0, r2
 8003a44:	0019      	movs	r1, r3
 8003a46:	1dfb      	adds	r3, r7, #7
 8003a48:	1c2a      	adds	r2, r5, #0
 8003a4a:	701a      	strb	r2, [r3, #0]
 8003a4c:	1dbb      	adds	r3, r7, #6
 8003a4e:	1c22      	adds	r2, r4, #0
 8003a50:	701a      	strb	r2, [r3, #0]
 8003a52:	1d7b      	adds	r3, r7, #5
 8003a54:	1c02      	adds	r2, r0, #0
 8003a56:	701a      	strb	r2, [r3, #0]
 8003a58:	1d3b      	adds	r3, r7, #4
 8003a5a:	1c0a      	adds	r2, r1, #0
 8003a5c:	701a      	strb	r2, [r3, #0]
    // column address set
    ST7735_WriteCommand(ST7735_CASET);
 8003a5e:	202a      	movs	r0, #42	; 0x2a
 8003a60:	f7ff ff4e 	bl	8003900 <ST7735_WriteCommand>
    uint8_t data[] = { 0x00, x0 + _xstart, 0x00, x1 + _xstart };
 8003a64:	210c      	movs	r1, #12
 8003a66:	187b      	adds	r3, r7, r1
 8003a68:	2200      	movs	r2, #0
 8003a6a:	701a      	strb	r2, [r3, #0]
 8003a6c:	4b1c      	ldr	r3, [pc, #112]	; (8003ae0 <ST7735_SetAddressWindow+0xa8>)
 8003a6e:	781a      	ldrb	r2, [r3, #0]
 8003a70:	1dfb      	adds	r3, r7, #7
 8003a72:	781b      	ldrb	r3, [r3, #0]
 8003a74:	18d3      	adds	r3, r2, r3
 8003a76:	b2da      	uxtb	r2, r3
 8003a78:	187b      	adds	r3, r7, r1
 8003a7a:	705a      	strb	r2, [r3, #1]
 8003a7c:	187b      	adds	r3, r7, r1
 8003a7e:	2200      	movs	r2, #0
 8003a80:	709a      	strb	r2, [r3, #2]
 8003a82:	4b17      	ldr	r3, [pc, #92]	; (8003ae0 <ST7735_SetAddressWindow+0xa8>)
 8003a84:	781a      	ldrb	r2, [r3, #0]
 8003a86:	1d7b      	adds	r3, r7, #5
 8003a88:	781b      	ldrb	r3, [r3, #0]
 8003a8a:	18d3      	adds	r3, r2, r3
 8003a8c:	b2da      	uxtb	r2, r3
 8003a8e:	187b      	adds	r3, r7, r1
 8003a90:	70da      	strb	r2, [r3, #3]
    ST7735_WriteData(data, sizeof(data));
 8003a92:	000c      	movs	r4, r1
 8003a94:	187b      	adds	r3, r7, r1
 8003a96:	2104      	movs	r1, #4
 8003a98:	0018      	movs	r0, r3
 8003a9a:	f7ff ff4d 	bl	8003938 <ST7735_WriteData>

    // row address set
    ST7735_WriteCommand(ST7735_RASET);
 8003a9e:	202b      	movs	r0, #43	; 0x2b
 8003aa0:	f7ff ff2e 	bl	8003900 <ST7735_WriteCommand>
    data[1] = y0 + _ystart;
 8003aa4:	4b0f      	ldr	r3, [pc, #60]	; (8003ae4 <ST7735_SetAddressWindow+0xac>)
 8003aa6:	781a      	ldrb	r2, [r3, #0]
 8003aa8:	1dbb      	adds	r3, r7, #6
 8003aaa:	781b      	ldrb	r3, [r3, #0]
 8003aac:	18d3      	adds	r3, r2, r3
 8003aae:	b2da      	uxtb	r2, r3
 8003ab0:	0021      	movs	r1, r4
 8003ab2:	187b      	adds	r3, r7, r1
 8003ab4:	705a      	strb	r2, [r3, #1]
    data[3] = y1 + _ystart;
 8003ab6:	4b0b      	ldr	r3, [pc, #44]	; (8003ae4 <ST7735_SetAddressWindow+0xac>)
 8003ab8:	781a      	ldrb	r2, [r3, #0]
 8003aba:	1d3b      	adds	r3, r7, #4
 8003abc:	781b      	ldrb	r3, [r3, #0]
 8003abe:	18d3      	adds	r3, r2, r3
 8003ac0:	b2da      	uxtb	r2, r3
 8003ac2:	187b      	adds	r3, r7, r1
 8003ac4:	70da      	strb	r2, [r3, #3]
    ST7735_WriteData(data, sizeof(data));
 8003ac6:	187b      	adds	r3, r7, r1
 8003ac8:	2104      	movs	r1, #4
 8003aca:	0018      	movs	r0, r3
 8003acc:	f7ff ff34 	bl	8003938 <ST7735_WriteData>

    // write to RAM
    ST7735_WriteCommand(ST7735_RAMWR);
 8003ad0:	202c      	movs	r0, #44	; 0x2c
 8003ad2:	f7ff ff15 	bl	8003900 <ST7735_WriteCommand>
}
 8003ad6:	46c0      	nop			; (mov r8, r8)
 8003ad8:	46bd      	mov	sp, r7
 8003ada:	b004      	add	sp, #16
 8003adc:	bdb0      	pop	{r4, r5, r7, pc}
 8003ade:	46c0      	nop			; (mov r8, r8)
 8003ae0:	20000053 	.word	0x20000053
 8003ae4:	20000054 	.word	0x20000054

08003ae8 <ST7735_Init>:

void ST7735_Init(uint8_t rotation)
{
 8003ae8:	b580      	push	{r7, lr}
 8003aea:	b082      	sub	sp, #8
 8003aec:	af00      	add	r7, sp, #0
 8003aee:	0002      	movs	r2, r0
 8003af0:	1dfb      	adds	r3, r7, #7
 8003af2:	701a      	strb	r2, [r3, #0]
    ST7735_Select();
 8003af4:	f7ff fed2 	bl	800389c <ST7735_Select>
    ST7735_Reset();
 8003af8:	f7ff feec 	bl	80038d4 <ST7735_Reset>
    DisplayInit(init_cmds1);
 8003afc:	4b0e      	ldr	r3, [pc, #56]	; (8003b38 <ST7735_Init+0x50>)
 8003afe:	0018      	movs	r0, r3
 8003b00:	f7ff ff36 	bl	8003970 <DisplayInit>
    DisplayInit(init_cmds2);
 8003b04:	4b0d      	ldr	r3, [pc, #52]	; (8003b3c <ST7735_Init+0x54>)
 8003b06:	0018      	movs	r0, r3
 8003b08:	f7ff ff32 	bl	8003970 <DisplayInit>
    DisplayInit(init_cmds3);
 8003b0c:	4b0c      	ldr	r3, [pc, #48]	; (8003b40 <ST7735_Init+0x58>)
 8003b0e:	0018      	movs	r0, r3
 8003b10:	f7ff ff2e 	bl	8003970 <DisplayInit>

#elif ST7735_IS_128X128
    _colstart = 2;
    _rowstart = 3;
#else
    _colstart = 0;
 8003b14:	4b0b      	ldr	r3, [pc, #44]	; (8003b44 <ST7735_Init+0x5c>)
 8003b16:	2200      	movs	r2, #0
 8003b18:	701a      	strb	r2, [r3, #0]
    _rowstart = 0;
 8003b1a:	4b0b      	ldr	r3, [pc, #44]	; (8003b48 <ST7735_Init+0x60>)
 8003b1c:	2200      	movs	r2, #0
 8003b1e:	701a      	strb	r2, [r3, #0]
#endif
    ST7735_SetRotation (rotation);
 8003b20:	1dfb      	adds	r3, r7, #7
 8003b22:	781b      	ldrb	r3, [r3, #0]
 8003b24:	0018      	movs	r0, r3
 8003b26:	f000 f811 	bl	8003b4c <ST7735_SetRotation>
    ST7735_Unselect();
 8003b2a:	f7ff fec5 	bl	80038b8 <ST7735_Unselect>

}
 8003b2e:	46c0      	nop			; (mov r8, r8)
 8003b30:	46bd      	mov	sp, r7
 8003b32:	b002      	add	sp, #8
 8003b34:	bd80      	pop	{r7, pc}
 8003b36:	46c0      	nop			; (mov r8, r8)
 8003b38:	08007168 	.word	0x08007168
 8003b3c:	080071a0 	.word	0x080071a0
 8003b40:	080071b0 	.word	0x080071b0
 8003b44:	20000051 	.word	0x20000051
 8003b48:	20000052 	.word	0x20000052

08003b4c <ST7735_SetRotation>:

void ST7735_SetRotation(uint8_t m)
{
 8003b4c:	b580      	push	{r7, lr}
 8003b4e:	b084      	sub	sp, #16
 8003b50:	af00      	add	r7, sp, #0
 8003b52:	0002      	movs	r2, r0
 8003b54:	1dfb      	adds	r3, r7, #7
 8003b56:	701a      	strb	r2, [r3, #0]

  uint8_t madctl = 0;
 8003b58:	230f      	movs	r3, #15
 8003b5a:	18fb      	adds	r3, r7, r3
 8003b5c:	2200      	movs	r2, #0
 8003b5e:	701a      	strb	r2, [r3, #0]

  rotation = m % 4; // can't be higher than 3
 8003b60:	1dfb      	adds	r3, r7, #7
 8003b62:	781b      	ldrb	r3, [r3, #0]
 8003b64:	2203      	movs	r2, #3
 8003b66:	4013      	ands	r3, r2
 8003b68:	b2da      	uxtb	r2, r3
 8003b6a:	4b36      	ldr	r3, [pc, #216]	; (8003c44 <ST7735_SetRotation+0xf8>)
 8003b6c:	701a      	strb	r2, [r3, #0]

  switch (rotation)
 8003b6e:	4b35      	ldr	r3, [pc, #212]	; (8003c44 <ST7735_SetRotation+0xf8>)
 8003b70:	781b      	ldrb	r3, [r3, #0]
 8003b72:	2b03      	cmp	r3, #3
 8003b74:	d041      	beq.n	8003bfa <ST7735_SetRotation+0xae>
 8003b76:	dc53      	bgt.n	8003c20 <ST7735_SetRotation+0xd4>
 8003b78:	2b02      	cmp	r3, #2
 8003b7a:	d02b      	beq.n	8003bd4 <ST7735_SetRotation+0x88>
 8003b7c:	dc50      	bgt.n	8003c20 <ST7735_SetRotation+0xd4>
 8003b7e:	2b00      	cmp	r3, #0
 8003b80:	d002      	beq.n	8003b88 <ST7735_SetRotation+0x3c>
 8003b82:	2b01      	cmp	r3, #1
 8003b84:	d013      	beq.n	8003bae <ST7735_SetRotation+0x62>
 8003b86:	e04b      	b.n	8003c20 <ST7735_SetRotation+0xd4>
  {
  case 0:
#if ST7735_IS_160X80
	  madctl = ST7735_MADCTL_MX | ST7735_MADCTL_MY | ST7735_MADCTL_BGR;
#else
      madctl = ST7735_MADCTL_MX | ST7735_MADCTL_MY | ST7735_MADCTL_RGB;
 8003b88:	230f      	movs	r3, #15
 8003b8a:	18fb      	adds	r3, r7, r3
 8003b8c:	22c0      	movs	r2, #192	; 0xc0
 8003b8e:	701a      	strb	r2, [r3, #0]
      _height = ST7735_HEIGHT;
 8003b90:	4b2d      	ldr	r3, [pc, #180]	; (8003c48 <ST7735_SetRotation+0xfc>)
 8003b92:	22a0      	movs	r2, #160	; 0xa0
 8003b94:	801a      	strh	r2, [r3, #0]
      _width = ST7735_WIDTH;
 8003b96:	4b2d      	ldr	r3, [pc, #180]	; (8003c4c <ST7735_SetRotation+0x100>)
 8003b98:	2280      	movs	r2, #128	; 0x80
 8003b9a:	801a      	strh	r2, [r3, #0]
      _xstart = _colstart;
 8003b9c:	4b2c      	ldr	r3, [pc, #176]	; (8003c50 <ST7735_SetRotation+0x104>)
 8003b9e:	781a      	ldrb	r2, [r3, #0]
 8003ba0:	4b2c      	ldr	r3, [pc, #176]	; (8003c54 <ST7735_SetRotation+0x108>)
 8003ba2:	701a      	strb	r2, [r3, #0]
      _ystart = _rowstart;
 8003ba4:	4b2c      	ldr	r3, [pc, #176]	; (8003c58 <ST7735_SetRotation+0x10c>)
 8003ba6:	781a      	ldrb	r2, [r3, #0]
 8003ba8:	4b2c      	ldr	r3, [pc, #176]	; (8003c5c <ST7735_SetRotation+0x110>)
 8003baa:	701a      	strb	r2, [r3, #0]
#endif
    break;
 8003bac:	e038      	b.n	8003c20 <ST7735_SetRotation+0xd4>
  case 1:
#if ST7735_IS_160X80
	  madctl = ST7735_MADCTL_MY | ST7735_MADCTL_MV | ST7735_MADCTL_BGR;
#else
      madctl = ST7735_MADCTL_MY | ST7735_MADCTL_MV | ST7735_MADCTL_RGB;
 8003bae:	230f      	movs	r3, #15
 8003bb0:	18fb      	adds	r3, r7, r3
 8003bb2:	22a0      	movs	r2, #160	; 0xa0
 8003bb4:	701a      	strb	r2, [r3, #0]
      _width = ST7735_HEIGHT;
 8003bb6:	4b25      	ldr	r3, [pc, #148]	; (8003c4c <ST7735_SetRotation+0x100>)
 8003bb8:	22a0      	movs	r2, #160	; 0xa0
 8003bba:	801a      	strh	r2, [r3, #0]
      _height = ST7735_WIDTH;
 8003bbc:	4b22      	ldr	r3, [pc, #136]	; (8003c48 <ST7735_SetRotation+0xfc>)
 8003bbe:	2280      	movs	r2, #128	; 0x80
 8003bc0:	801a      	strh	r2, [r3, #0]
    _ystart = _colstart;
 8003bc2:	4b23      	ldr	r3, [pc, #140]	; (8003c50 <ST7735_SetRotation+0x104>)
 8003bc4:	781a      	ldrb	r2, [r3, #0]
 8003bc6:	4b25      	ldr	r3, [pc, #148]	; (8003c5c <ST7735_SetRotation+0x110>)
 8003bc8:	701a      	strb	r2, [r3, #0]
    _xstart = _rowstart;
 8003bca:	4b23      	ldr	r3, [pc, #140]	; (8003c58 <ST7735_SetRotation+0x10c>)
 8003bcc:	781a      	ldrb	r2, [r3, #0]
 8003bce:	4b21      	ldr	r3, [pc, #132]	; (8003c54 <ST7735_SetRotation+0x108>)
 8003bd0:	701a      	strb	r2, [r3, #0]
#endif
    break;
 8003bd2:	e025      	b.n	8003c20 <ST7735_SetRotation+0xd4>
  case 2:
#if ST7735_IS_160X80
	  madctl = ST7735_MADCTL_BGR;
#else
      madctl = ST7735_MADCTL_RGB;
 8003bd4:	230f      	movs	r3, #15
 8003bd6:	18fb      	adds	r3, r7, r3
 8003bd8:	2200      	movs	r2, #0
 8003bda:	701a      	strb	r2, [r3, #0]
      _height = ST7735_HEIGHT;
 8003bdc:	4b1a      	ldr	r3, [pc, #104]	; (8003c48 <ST7735_SetRotation+0xfc>)
 8003bde:	22a0      	movs	r2, #160	; 0xa0
 8003be0:	801a      	strh	r2, [r3, #0]
      _width = ST7735_WIDTH;
 8003be2:	4b1a      	ldr	r3, [pc, #104]	; (8003c4c <ST7735_SetRotation+0x100>)
 8003be4:	2280      	movs	r2, #128	; 0x80
 8003be6:	801a      	strh	r2, [r3, #0]
    _xstart = _colstart;
 8003be8:	4b19      	ldr	r3, [pc, #100]	; (8003c50 <ST7735_SetRotation+0x104>)
 8003bea:	781a      	ldrb	r2, [r3, #0]
 8003bec:	4b19      	ldr	r3, [pc, #100]	; (8003c54 <ST7735_SetRotation+0x108>)
 8003bee:	701a      	strb	r2, [r3, #0]
    _ystart = _rowstart;
 8003bf0:	4b19      	ldr	r3, [pc, #100]	; (8003c58 <ST7735_SetRotation+0x10c>)
 8003bf2:	781a      	ldrb	r2, [r3, #0]
 8003bf4:	4b19      	ldr	r3, [pc, #100]	; (8003c5c <ST7735_SetRotation+0x110>)
 8003bf6:	701a      	strb	r2, [r3, #0]
#endif
    break;
 8003bf8:	e012      	b.n	8003c20 <ST7735_SetRotation+0xd4>
  case 3:
#if ST7735_IS_160X80
	  madctl = ST7735_MADCTL_MX | ST7735_MADCTL_MV | ST7735_MADCTL_BGR;
#else
      madctl = ST7735_MADCTL_MX | ST7735_MADCTL_MV | ST7735_MADCTL_RGB;
 8003bfa:	230f      	movs	r3, #15
 8003bfc:	18fb      	adds	r3, r7, r3
 8003bfe:	2260      	movs	r2, #96	; 0x60
 8003c00:	701a      	strb	r2, [r3, #0]
      _width = ST7735_HEIGHT;
 8003c02:	4b12      	ldr	r3, [pc, #72]	; (8003c4c <ST7735_SetRotation+0x100>)
 8003c04:	22a0      	movs	r2, #160	; 0xa0
 8003c06:	801a      	strh	r2, [r3, #0]
      _height = ST7735_WIDTH;
 8003c08:	4b0f      	ldr	r3, [pc, #60]	; (8003c48 <ST7735_SetRotation+0xfc>)
 8003c0a:	2280      	movs	r2, #128	; 0x80
 8003c0c:	801a      	strh	r2, [r3, #0]
    _ystart = _colstart;
 8003c0e:	4b10      	ldr	r3, [pc, #64]	; (8003c50 <ST7735_SetRotation+0x104>)
 8003c10:	781a      	ldrb	r2, [r3, #0]
 8003c12:	4b12      	ldr	r3, [pc, #72]	; (8003c5c <ST7735_SetRotation+0x110>)
 8003c14:	701a      	strb	r2, [r3, #0]
    _xstart = _rowstart;
 8003c16:	4b10      	ldr	r3, [pc, #64]	; (8003c58 <ST7735_SetRotation+0x10c>)
 8003c18:	781a      	ldrb	r2, [r3, #0]
 8003c1a:	4b0e      	ldr	r3, [pc, #56]	; (8003c54 <ST7735_SetRotation+0x108>)
 8003c1c:	701a      	strb	r2, [r3, #0]
#endif
    break;
 8003c1e:	46c0      	nop			; (mov r8, r8)
  }
  ST7735_Select();
 8003c20:	f7ff fe3c 	bl	800389c <ST7735_Select>
  ST7735_WriteCommand(ST7735_MADCTL);
 8003c24:	2036      	movs	r0, #54	; 0x36
 8003c26:	f7ff fe6b 	bl	8003900 <ST7735_WriteCommand>
  ST7735_WriteData(&madctl,1);
 8003c2a:	230f      	movs	r3, #15
 8003c2c:	18fb      	adds	r3, r7, r3
 8003c2e:	2101      	movs	r1, #1
 8003c30:	0018      	movs	r0, r3
 8003c32:	f7ff fe81 	bl	8003938 <ST7735_WriteData>
  ST7735_Unselect();
 8003c36:	f7ff fe3f 	bl	80038b8 <ST7735_Unselect>
}
 8003c3a:	46c0      	nop			; (mov r8, r8)
 8003c3c:	46bd      	mov	sp, r7
 8003c3e:	b004      	add	sp, #16
 8003c40:	bd80      	pop	{r7, pc}
 8003c42:	46c0      	nop			; (mov r8, r8)
 8003c44:	20000050 	.word	0x20000050
 8003c48:	2000004e 	.word	0x2000004e
 8003c4c:	2000004c 	.word	0x2000004c
 8003c50:	20000051 	.word	0x20000051
 8003c54:	20000053 	.word	0x20000053
 8003c58:	20000052 	.word	0x20000052
 8003c5c:	20000054 	.word	0x20000054

08003c60 <ST7735_DrawPixel>:

void ST7735_DrawPixel(uint16_t x, uint16_t y, uint16_t color) {
 8003c60:	b590      	push	{r4, r7, lr}
 8003c62:	b085      	sub	sp, #20
 8003c64:	af00      	add	r7, sp, #0
 8003c66:	0004      	movs	r4, r0
 8003c68:	0008      	movs	r0, r1
 8003c6a:	0011      	movs	r1, r2
 8003c6c:	1dbb      	adds	r3, r7, #6
 8003c6e:	1c22      	adds	r2, r4, #0
 8003c70:	801a      	strh	r2, [r3, #0]
 8003c72:	1d3b      	adds	r3, r7, #4
 8003c74:	1c02      	adds	r2, r0, #0
 8003c76:	801a      	strh	r2, [r3, #0]
 8003c78:	1cbb      	adds	r3, r7, #2
 8003c7a:	1c0a      	adds	r2, r1, #0
 8003c7c:	801a      	strh	r2, [r3, #0]
    if((x >= _width) || (y >= _height))
 8003c7e:	1dbb      	adds	r3, r7, #6
 8003c80:	881b      	ldrh	r3, [r3, #0]
 8003c82:	4a1c      	ldr	r2, [pc, #112]	; (8003cf4 <ST7735_DrawPixel+0x94>)
 8003c84:	2100      	movs	r1, #0
 8003c86:	5e52      	ldrsh	r2, [r2, r1]
 8003c88:	4293      	cmp	r3, r2
 8003c8a:	da2f      	bge.n	8003cec <ST7735_DrawPixel+0x8c>
 8003c8c:	1d3b      	adds	r3, r7, #4
 8003c8e:	881b      	ldrh	r3, [r3, #0]
 8003c90:	4a19      	ldr	r2, [pc, #100]	; (8003cf8 <ST7735_DrawPixel+0x98>)
 8003c92:	2100      	movs	r1, #0
 8003c94:	5e52      	ldrsh	r2, [r2, r1]
 8003c96:	4293      	cmp	r3, r2
 8003c98:	da28      	bge.n	8003cec <ST7735_DrawPixel+0x8c>
        return;

    ST7735_Select();
 8003c9a:	f7ff fdff 	bl	800389c <ST7735_Select>

    ST7735_SetAddressWindow(x, y, x+1, y+1);
 8003c9e:	1dbb      	adds	r3, r7, #6
 8003ca0:	881b      	ldrh	r3, [r3, #0]
 8003ca2:	b2d8      	uxtb	r0, r3
 8003ca4:	1d3b      	adds	r3, r7, #4
 8003ca6:	881b      	ldrh	r3, [r3, #0]
 8003ca8:	b2d9      	uxtb	r1, r3
 8003caa:	1dbb      	adds	r3, r7, #6
 8003cac:	881b      	ldrh	r3, [r3, #0]
 8003cae:	b2db      	uxtb	r3, r3
 8003cb0:	3301      	adds	r3, #1
 8003cb2:	b2da      	uxtb	r2, r3
 8003cb4:	1d3b      	adds	r3, r7, #4
 8003cb6:	881b      	ldrh	r3, [r3, #0]
 8003cb8:	b2db      	uxtb	r3, r3
 8003cba:	3301      	adds	r3, #1
 8003cbc:	b2db      	uxtb	r3, r3
 8003cbe:	f7ff febb 	bl	8003a38 <ST7735_SetAddressWindow>
    uint8_t data[] = { color >> 8, color & 0xFF };
 8003cc2:	1cbb      	adds	r3, r7, #2
 8003cc4:	881b      	ldrh	r3, [r3, #0]
 8003cc6:	0a1b      	lsrs	r3, r3, #8
 8003cc8:	b29b      	uxth	r3, r3
 8003cca:	b2da      	uxtb	r2, r3
 8003ccc:	210c      	movs	r1, #12
 8003cce:	187b      	adds	r3, r7, r1
 8003cd0:	701a      	strb	r2, [r3, #0]
 8003cd2:	1cbb      	adds	r3, r7, #2
 8003cd4:	881b      	ldrh	r3, [r3, #0]
 8003cd6:	b2da      	uxtb	r2, r3
 8003cd8:	187b      	adds	r3, r7, r1
 8003cda:	705a      	strb	r2, [r3, #1]
    ST7735_WriteData(data, sizeof(data));
 8003cdc:	187b      	adds	r3, r7, r1
 8003cde:	2102      	movs	r1, #2
 8003ce0:	0018      	movs	r0, r3
 8003ce2:	f7ff fe29 	bl	8003938 <ST7735_WriteData>

    ST7735_Unselect();
 8003ce6:	f7ff fde7 	bl	80038b8 <ST7735_Unselect>
 8003cea:	e000      	b.n	8003cee <ST7735_DrawPixel+0x8e>
        return;
 8003cec:	46c0      	nop			; (mov r8, r8)
}
 8003cee:	46bd      	mov	sp, r7
 8003cf0:	b005      	add	sp, #20
 8003cf2:	bd90      	pop	{r4, r7, pc}
 8003cf4:	2000004c 	.word	0x2000004c
 8003cf8:	2000004e 	.word	0x2000004e

08003cfc <ST7735_WriteChar>:

void ST7735_WriteChar(uint16_t x, uint16_t y, char ch, FontDef font, uint16_t color, uint16_t bgcolor) {
 8003cfc:	b082      	sub	sp, #8
 8003cfe:	b5b0      	push	{r4, r5, r7, lr}
 8003d00:	b088      	sub	sp, #32
 8003d02:	af00      	add	r7, sp, #0
 8003d04:	0004      	movs	r4, r0
 8003d06:	0008      	movs	r0, r1
 8003d08:	0011      	movs	r1, r2
 8003d0a:	2204      	movs	r2, #4
 8003d0c:	2530      	movs	r5, #48	; 0x30
 8003d0e:	1952      	adds	r2, r2, r5
 8003d10:	19d2      	adds	r2, r2, r7
 8003d12:	6013      	str	r3, [r2, #0]
 8003d14:	1dbb      	adds	r3, r7, #6
 8003d16:	1c22      	adds	r2, r4, #0
 8003d18:	801a      	strh	r2, [r3, #0]
 8003d1a:	1d3b      	adds	r3, r7, #4
 8003d1c:	1c02      	adds	r2, r0, #0
 8003d1e:	801a      	strh	r2, [r3, #0]
 8003d20:	1cfb      	adds	r3, r7, #3
 8003d22:	1c0a      	adds	r2, r1, #0
 8003d24:	701a      	strb	r2, [r3, #0]
    uint32_t i, b, j;

    ST7735_SetAddressWindow(x, y, x+font.width-1, y+font.height-1);
 8003d26:	1dbb      	adds	r3, r7, #6
 8003d28:	881b      	ldrh	r3, [r3, #0]
 8003d2a:	b2d8      	uxtb	r0, r3
 8003d2c:	1d3b      	adds	r3, r7, #4
 8003d2e:	881b      	ldrh	r3, [r3, #0]
 8003d30:	b2d9      	uxtb	r1, r3
 8003d32:	1dbb      	adds	r3, r7, #6
 8003d34:	881b      	ldrh	r3, [r3, #0]
 8003d36:	b2da      	uxtb	r2, r3
 8003d38:	2304      	movs	r3, #4
 8003d3a:	195b      	adds	r3, r3, r5
 8003d3c:	19db      	adds	r3, r3, r7
 8003d3e:	781b      	ldrb	r3, [r3, #0]
 8003d40:	18d3      	adds	r3, r2, r3
 8003d42:	b2db      	uxtb	r3, r3
 8003d44:	3b01      	subs	r3, #1
 8003d46:	b2dc      	uxtb	r4, r3
 8003d48:	1d3b      	adds	r3, r7, #4
 8003d4a:	881b      	ldrh	r3, [r3, #0]
 8003d4c:	b2da      	uxtb	r2, r3
 8003d4e:	2304      	movs	r3, #4
 8003d50:	195b      	adds	r3, r3, r5
 8003d52:	19db      	adds	r3, r3, r7
 8003d54:	785b      	ldrb	r3, [r3, #1]
 8003d56:	18d3      	adds	r3, r2, r3
 8003d58:	b2db      	uxtb	r3, r3
 8003d5a:	3b01      	subs	r3, #1
 8003d5c:	b2db      	uxtb	r3, r3
 8003d5e:	0022      	movs	r2, r4
 8003d60:	f7ff fe6a 	bl	8003a38 <ST7735_SetAddressWindow>

    for(i = 0; i < font.height; i++) {
 8003d64:	2300      	movs	r3, #0
 8003d66:	61fb      	str	r3, [r7, #28]
 8003d68:	e053      	b.n	8003e12 <ST7735_WriteChar+0x116>
        b = font.data[(ch - 32) * font.height + i];
 8003d6a:	2304      	movs	r3, #4
 8003d6c:	2030      	movs	r0, #48	; 0x30
 8003d6e:	181b      	adds	r3, r3, r0
 8003d70:	19db      	adds	r3, r3, r7
 8003d72:	685a      	ldr	r2, [r3, #4]
 8003d74:	1cfb      	adds	r3, r7, #3
 8003d76:	781b      	ldrb	r3, [r3, #0]
 8003d78:	3b20      	subs	r3, #32
 8003d7a:	2104      	movs	r1, #4
 8003d7c:	1809      	adds	r1, r1, r0
 8003d7e:	19c9      	adds	r1, r1, r7
 8003d80:	7849      	ldrb	r1, [r1, #1]
 8003d82:	434b      	muls	r3, r1
 8003d84:	0019      	movs	r1, r3
 8003d86:	69fb      	ldr	r3, [r7, #28]
 8003d88:	18cb      	adds	r3, r1, r3
 8003d8a:	005b      	lsls	r3, r3, #1
 8003d8c:	18d3      	adds	r3, r2, r3
 8003d8e:	881b      	ldrh	r3, [r3, #0]
 8003d90:	617b      	str	r3, [r7, #20]
        for(j = 0; j < font.width; j++) {
 8003d92:	2300      	movs	r3, #0
 8003d94:	61bb      	str	r3, [r7, #24]
 8003d96:	e030      	b.n	8003dfa <ST7735_WriteChar+0xfe>
            if((b << j) & 0x8000)  {
 8003d98:	697a      	ldr	r2, [r7, #20]
 8003d9a:	69bb      	ldr	r3, [r7, #24]
 8003d9c:	409a      	lsls	r2, r3
 8003d9e:	2380      	movs	r3, #128	; 0x80
 8003da0:	021b      	lsls	r3, r3, #8
 8003da2:	4013      	ands	r3, r2
 8003da4:	d013      	beq.n	8003dce <ST7735_WriteChar+0xd2>
                uint8_t data[] = { color >> 8, color & 0xFF };
 8003da6:	203c      	movs	r0, #60	; 0x3c
 8003da8:	183b      	adds	r3, r7, r0
 8003daa:	881b      	ldrh	r3, [r3, #0]
 8003dac:	0a1b      	lsrs	r3, r3, #8
 8003dae:	b29b      	uxth	r3, r3
 8003db0:	b2da      	uxtb	r2, r3
 8003db2:	2110      	movs	r1, #16
 8003db4:	187b      	adds	r3, r7, r1
 8003db6:	701a      	strb	r2, [r3, #0]
 8003db8:	183b      	adds	r3, r7, r0
 8003dba:	881b      	ldrh	r3, [r3, #0]
 8003dbc:	b2da      	uxtb	r2, r3
 8003dbe:	187b      	adds	r3, r7, r1
 8003dc0:	705a      	strb	r2, [r3, #1]
                ST7735_WriteData(data, sizeof(data));
 8003dc2:	187b      	adds	r3, r7, r1
 8003dc4:	2102      	movs	r1, #2
 8003dc6:	0018      	movs	r0, r3
 8003dc8:	f7ff fdb6 	bl	8003938 <ST7735_WriteData>
 8003dcc:	e012      	b.n	8003df4 <ST7735_WriteChar+0xf8>
            } else {
                uint8_t data[] = { bgcolor >> 8, bgcolor & 0xFF };
 8003dce:	2040      	movs	r0, #64	; 0x40
 8003dd0:	183b      	adds	r3, r7, r0
 8003dd2:	881b      	ldrh	r3, [r3, #0]
 8003dd4:	0a1b      	lsrs	r3, r3, #8
 8003dd6:	b29b      	uxth	r3, r3
 8003dd8:	b2da      	uxtb	r2, r3
 8003dda:	210c      	movs	r1, #12
 8003ddc:	187b      	adds	r3, r7, r1
 8003dde:	701a      	strb	r2, [r3, #0]
 8003de0:	183b      	adds	r3, r7, r0
 8003de2:	881b      	ldrh	r3, [r3, #0]
 8003de4:	b2da      	uxtb	r2, r3
 8003de6:	187b      	adds	r3, r7, r1
 8003de8:	705a      	strb	r2, [r3, #1]
                ST7735_WriteData(data, sizeof(data));
 8003dea:	187b      	adds	r3, r7, r1
 8003dec:	2102      	movs	r1, #2
 8003dee:	0018      	movs	r0, r3
 8003df0:	f7ff fda2 	bl	8003938 <ST7735_WriteData>
        for(j = 0; j < font.width; j++) {
 8003df4:	69bb      	ldr	r3, [r7, #24]
 8003df6:	3301      	adds	r3, #1
 8003df8:	61bb      	str	r3, [r7, #24]
 8003dfa:	2304      	movs	r3, #4
 8003dfc:	2230      	movs	r2, #48	; 0x30
 8003dfe:	189b      	adds	r3, r3, r2
 8003e00:	19db      	adds	r3, r3, r7
 8003e02:	781b      	ldrb	r3, [r3, #0]
 8003e04:	001a      	movs	r2, r3
 8003e06:	69bb      	ldr	r3, [r7, #24]
 8003e08:	4293      	cmp	r3, r2
 8003e0a:	d3c5      	bcc.n	8003d98 <ST7735_WriteChar+0x9c>
    for(i = 0; i < font.height; i++) {
 8003e0c:	69fb      	ldr	r3, [r7, #28]
 8003e0e:	3301      	adds	r3, #1
 8003e10:	61fb      	str	r3, [r7, #28]
 8003e12:	2304      	movs	r3, #4
 8003e14:	2230      	movs	r2, #48	; 0x30
 8003e16:	189b      	adds	r3, r3, r2
 8003e18:	19db      	adds	r3, r3, r7
 8003e1a:	785b      	ldrb	r3, [r3, #1]
 8003e1c:	001a      	movs	r2, r3
 8003e1e:	69fb      	ldr	r3, [r7, #28]
 8003e20:	4293      	cmp	r3, r2
 8003e22:	d3a2      	bcc.n	8003d6a <ST7735_WriteChar+0x6e>
            }
        }
    }
}
 8003e24:	46c0      	nop			; (mov r8, r8)
 8003e26:	46c0      	nop			; (mov r8, r8)
 8003e28:	46bd      	mov	sp, r7
 8003e2a:	b008      	add	sp, #32
 8003e2c:	bcb0      	pop	{r4, r5, r7}
 8003e2e:	bc08      	pop	{r3}
 8003e30:	b002      	add	sp, #8
 8003e32:	4718      	bx	r3

08003e34 <ST7735_WriteString>:

void ST7735_WriteString(uint16_t x, uint16_t y, const char* str, FontDef font, uint16_t color, uint16_t bgcolor) {
 8003e34:	b082      	sub	sp, #8
 8003e36:	b5f0      	push	{r4, r5, r6, r7, lr}
 8003e38:	b087      	sub	sp, #28
 8003e3a:	af04      	add	r7, sp, #16
 8003e3c:	603a      	str	r2, [r7, #0]
 8003e3e:	2204      	movs	r2, #4
 8003e40:	2418      	movs	r4, #24
 8003e42:	1912      	adds	r2, r2, r4
 8003e44:	2408      	movs	r4, #8
 8003e46:	46a4      	mov	ip, r4
 8003e48:	44bc      	add	ip, r7
 8003e4a:	4462      	add	r2, ip
 8003e4c:	6013      	str	r3, [r2, #0]
 8003e4e:	1dbb      	adds	r3, r7, #6
 8003e50:	1c02      	adds	r2, r0, #0
 8003e52:	801a      	strh	r2, [r3, #0]
 8003e54:	1d3b      	adds	r3, r7, #4
 8003e56:	1c0a      	adds	r2, r1, #0
 8003e58:	801a      	strh	r2, [r3, #0]
    ST7735_Select();
 8003e5a:	f7ff fd1f 	bl	800389c <ST7735_Select>

    while(*str) {
 8003e5e:	e067      	b.n	8003f30 <ST7735_WriteString+0xfc>
        if(x + font.width >= _width) {
 8003e60:	1dbb      	adds	r3, r7, #6
 8003e62:	881b      	ldrh	r3, [r3, #0]
 8003e64:	2204      	movs	r2, #4
 8003e66:	2118      	movs	r1, #24
 8003e68:	1852      	adds	r2, r2, r1
 8003e6a:	2008      	movs	r0, #8
 8003e6c:	4684      	mov	ip, r0
 8003e6e:	44bc      	add	ip, r7
 8003e70:	4462      	add	r2, ip
 8003e72:	7812      	ldrb	r2, [r2, #0]
 8003e74:	189b      	adds	r3, r3, r2
 8003e76:	4a36      	ldr	r2, [pc, #216]	; (8003f50 <ST7735_WriteString+0x11c>)
 8003e78:	2000      	movs	r0, #0
 8003e7a:	5e12      	ldrsh	r2, [r2, r0]
 8003e7c:	4293      	cmp	r3, r2
 8003e7e:	db27      	blt.n	8003ed0 <ST7735_WriteString+0x9c>
            x = 0;
 8003e80:	1dbb      	adds	r3, r7, #6
 8003e82:	2200      	movs	r2, #0
 8003e84:	801a      	strh	r2, [r3, #0]
            y += font.height;
 8003e86:	2304      	movs	r3, #4
 8003e88:	0008      	movs	r0, r1
 8003e8a:	185b      	adds	r3, r3, r1
 8003e8c:	2208      	movs	r2, #8
 8003e8e:	4694      	mov	ip, r2
 8003e90:	44bc      	add	ip, r7
 8003e92:	4463      	add	r3, ip
 8003e94:	785b      	ldrb	r3, [r3, #1]
 8003e96:	b299      	uxth	r1, r3
 8003e98:	1d3b      	adds	r3, r7, #4
 8003e9a:	1d3a      	adds	r2, r7, #4
 8003e9c:	8812      	ldrh	r2, [r2, #0]
 8003e9e:	188a      	adds	r2, r1, r2
 8003ea0:	801a      	strh	r2, [r3, #0]
            if(y + font.height >= _height) {
 8003ea2:	1d3b      	adds	r3, r7, #4
 8003ea4:	881b      	ldrh	r3, [r3, #0]
 8003ea6:	2204      	movs	r2, #4
 8003ea8:	1812      	adds	r2, r2, r0
 8003eaa:	2108      	movs	r1, #8
 8003eac:	468c      	mov	ip, r1
 8003eae:	44bc      	add	ip, r7
 8003eb0:	4462      	add	r2, ip
 8003eb2:	7852      	ldrb	r2, [r2, #1]
 8003eb4:	189b      	adds	r3, r3, r2
 8003eb6:	4a27      	ldr	r2, [pc, #156]	; (8003f54 <ST7735_WriteString+0x120>)
 8003eb8:	2100      	movs	r1, #0
 8003eba:	5e52      	ldrsh	r2, [r2, r1]
 8003ebc:	4293      	cmp	r3, r2
 8003ebe:	da3c      	bge.n	8003f3a <ST7735_WriteString+0x106>
                break;
            }

            if(*str == ' ') {
 8003ec0:	683b      	ldr	r3, [r7, #0]
 8003ec2:	781b      	ldrb	r3, [r3, #0]
 8003ec4:	2b20      	cmp	r3, #32
 8003ec6:	d103      	bne.n	8003ed0 <ST7735_WriteString+0x9c>
                // skip spaces in the beginning of the new line
                str++;
 8003ec8:	683b      	ldr	r3, [r7, #0]
 8003eca:	3301      	adds	r3, #1
 8003ecc:	603b      	str	r3, [r7, #0]
                continue;
 8003ece:	e02f      	b.n	8003f30 <ST7735_WriteString+0xfc>
            }
        }

        ST7735_WriteChar(x, y, *str, font, color, bgcolor);
 8003ed0:	683b      	ldr	r3, [r7, #0]
 8003ed2:	781d      	ldrb	r5, [r3, #0]
 8003ed4:	2304      	movs	r3, #4
 8003ed6:	2618      	movs	r6, #24
 8003ed8:	199b      	adds	r3, r3, r6
 8003eda:	2208      	movs	r2, #8
 8003edc:	4694      	mov	ip, r2
 8003ede:	44bc      	add	ip, r7
 8003ee0:	4463      	add	r3, ip
 8003ee2:	1d3a      	adds	r2, r7, #4
 8003ee4:	8814      	ldrh	r4, [r2, #0]
 8003ee6:	1dba      	adds	r2, r7, #6
 8003ee8:	8810      	ldrh	r0, [r2, #0]
 8003eea:	2228      	movs	r2, #40	; 0x28
 8003eec:	2108      	movs	r1, #8
 8003eee:	1852      	adds	r2, r2, r1
 8003ef0:	19d2      	adds	r2, r2, r7
 8003ef2:	8812      	ldrh	r2, [r2, #0]
 8003ef4:	9202      	str	r2, [sp, #8]
 8003ef6:	2224      	movs	r2, #36	; 0x24
 8003ef8:	1852      	adds	r2, r2, r1
 8003efa:	19d2      	adds	r2, r2, r7
 8003efc:	8812      	ldrh	r2, [r2, #0]
 8003efe:	9201      	str	r2, [sp, #4]
 8003f00:	466a      	mov	r2, sp
 8003f02:	6859      	ldr	r1, [r3, #4]
 8003f04:	6011      	str	r1, [r2, #0]
 8003f06:	681b      	ldr	r3, [r3, #0]
 8003f08:	002a      	movs	r2, r5
 8003f0a:	0021      	movs	r1, r4
 8003f0c:	f7ff fef6 	bl	8003cfc <ST7735_WriteChar>
        x += font.width;
 8003f10:	2304      	movs	r3, #4
 8003f12:	199b      	adds	r3, r3, r6
 8003f14:	2208      	movs	r2, #8
 8003f16:	4694      	mov	ip, r2
 8003f18:	44bc      	add	ip, r7
 8003f1a:	4463      	add	r3, ip
 8003f1c:	781b      	ldrb	r3, [r3, #0]
 8003f1e:	b299      	uxth	r1, r3
 8003f20:	1dbb      	adds	r3, r7, #6
 8003f22:	1dba      	adds	r2, r7, #6
 8003f24:	8812      	ldrh	r2, [r2, #0]
 8003f26:	188a      	adds	r2, r1, r2
 8003f28:	801a      	strh	r2, [r3, #0]
        str++;
 8003f2a:	683b      	ldr	r3, [r7, #0]
 8003f2c:	3301      	adds	r3, #1
 8003f2e:	603b      	str	r3, [r7, #0]
    while(*str) {
 8003f30:	683b      	ldr	r3, [r7, #0]
 8003f32:	781b      	ldrb	r3, [r3, #0]
 8003f34:	2b00      	cmp	r3, #0
 8003f36:	d193      	bne.n	8003e60 <ST7735_WriteString+0x2c>
 8003f38:	e000      	b.n	8003f3c <ST7735_WriteString+0x108>
                break;
 8003f3a:	46c0      	nop			; (mov r8, r8)
    }

    ST7735_Unselect();
 8003f3c:	f7ff fcbc 	bl	80038b8 <ST7735_Unselect>
}
 8003f40:	46c0      	nop			; (mov r8, r8)
 8003f42:	46bd      	mov	sp, r7
 8003f44:	b003      	add	sp, #12
 8003f46:	bcf0      	pop	{r4, r5, r6, r7}
 8003f48:	bc08      	pop	{r3}
 8003f4a:	b002      	add	sp, #8
 8003f4c:	4718      	bx	r3
 8003f4e:	46c0      	nop			; (mov r8, r8)
 8003f50:	2000004c 	.word	0x2000004c
 8003f54:	2000004e 	.word	0x2000004e

08003f58 <ST7735_FillRectangle>:

void ST7735_FillRectangle(uint16_t x, uint16_t y, uint16_t w, uint16_t h, uint16_t color)
{
 8003f58:	b5b0      	push	{r4, r5, r7, lr}
 8003f5a:	b084      	sub	sp, #16
 8003f5c:	af00      	add	r7, sp, #0
 8003f5e:	0005      	movs	r5, r0
 8003f60:	000c      	movs	r4, r1
 8003f62:	0010      	movs	r0, r2
 8003f64:	0019      	movs	r1, r3
 8003f66:	1dbb      	adds	r3, r7, #6
 8003f68:	1c2a      	adds	r2, r5, #0
 8003f6a:	801a      	strh	r2, [r3, #0]
 8003f6c:	1d3b      	adds	r3, r7, #4
 8003f6e:	1c22      	adds	r2, r4, #0
 8003f70:	801a      	strh	r2, [r3, #0]
 8003f72:	1cbb      	adds	r3, r7, #2
 8003f74:	1c02      	adds	r2, r0, #0
 8003f76:	801a      	strh	r2, [r3, #0]
 8003f78:	003b      	movs	r3, r7
 8003f7a:	1c0a      	adds	r2, r1, #0
 8003f7c:	801a      	strh	r2, [r3, #0]
    if((x >= _width) || (y >= _height)) return;
 8003f7e:	1dbb      	adds	r3, r7, #6
 8003f80:	881b      	ldrh	r3, [r3, #0]
 8003f82:	4a49      	ldr	r2, [pc, #292]	; (80040a8 <ST7735_FillRectangle+0x150>)
 8003f84:	2100      	movs	r1, #0
 8003f86:	5e52      	ldrsh	r2, [r2, r1]
 8003f88:	4293      	cmp	r3, r2
 8003f8a:	db00      	blt.n	8003f8e <ST7735_FillRectangle+0x36>
 8003f8c:	e087      	b.n	800409e <ST7735_FillRectangle+0x146>
 8003f8e:	1d3b      	adds	r3, r7, #4
 8003f90:	881b      	ldrh	r3, [r3, #0]
 8003f92:	4a46      	ldr	r2, [pc, #280]	; (80040ac <ST7735_FillRectangle+0x154>)
 8003f94:	2100      	movs	r1, #0
 8003f96:	5e52      	ldrsh	r2, [r2, r1]
 8003f98:	4293      	cmp	r3, r2
 8003f9a:	db00      	blt.n	8003f9e <ST7735_FillRectangle+0x46>
 8003f9c:	e07f      	b.n	800409e <ST7735_FillRectangle+0x146>
    if((x + w - 1) >= _width) w = _width - x;
 8003f9e:	1dbb      	adds	r3, r7, #6
 8003fa0:	881a      	ldrh	r2, [r3, #0]
 8003fa2:	1cbb      	adds	r3, r7, #2
 8003fa4:	881b      	ldrh	r3, [r3, #0]
 8003fa6:	18d3      	adds	r3, r2, r3
 8003fa8:	4a3f      	ldr	r2, [pc, #252]	; (80040a8 <ST7735_FillRectangle+0x150>)
 8003faa:	2100      	movs	r1, #0
 8003fac:	5e52      	ldrsh	r2, [r2, r1]
 8003fae:	4293      	cmp	r3, r2
 8003fb0:	dd08      	ble.n	8003fc4 <ST7735_FillRectangle+0x6c>
 8003fb2:	4b3d      	ldr	r3, [pc, #244]	; (80040a8 <ST7735_FillRectangle+0x150>)
 8003fb4:	2200      	movs	r2, #0
 8003fb6:	5e9b      	ldrsh	r3, [r3, r2]
 8003fb8:	b299      	uxth	r1, r3
 8003fba:	1cbb      	adds	r3, r7, #2
 8003fbc:	1dba      	adds	r2, r7, #6
 8003fbe:	8812      	ldrh	r2, [r2, #0]
 8003fc0:	1a8a      	subs	r2, r1, r2
 8003fc2:	801a      	strh	r2, [r3, #0]
    if((y + h - 1) >= _height) h = _height - y;
 8003fc4:	1d3b      	adds	r3, r7, #4
 8003fc6:	881a      	ldrh	r2, [r3, #0]
 8003fc8:	003b      	movs	r3, r7
 8003fca:	881b      	ldrh	r3, [r3, #0]
 8003fcc:	18d3      	adds	r3, r2, r3
 8003fce:	4a37      	ldr	r2, [pc, #220]	; (80040ac <ST7735_FillRectangle+0x154>)
 8003fd0:	2100      	movs	r1, #0
 8003fd2:	5e52      	ldrsh	r2, [r2, r1]
 8003fd4:	4293      	cmp	r3, r2
 8003fd6:	dd08      	ble.n	8003fea <ST7735_FillRectangle+0x92>
 8003fd8:	4b34      	ldr	r3, [pc, #208]	; (80040ac <ST7735_FillRectangle+0x154>)
 8003fda:	2200      	movs	r2, #0
 8003fdc:	5e9b      	ldrsh	r3, [r3, r2]
 8003fde:	b299      	uxth	r1, r3
 8003fe0:	003b      	movs	r3, r7
 8003fe2:	1d3a      	adds	r2, r7, #4
 8003fe4:	8812      	ldrh	r2, [r2, #0]
 8003fe6:	1a8a      	subs	r2, r1, r2
 8003fe8:	801a      	strh	r2, [r3, #0]

    ST7735_Select();
 8003fea:	f7ff fc57 	bl	800389c <ST7735_Select>
    ST7735_SetAddressWindow(x, y, x+w-1, y+h-1);
 8003fee:	1dbb      	adds	r3, r7, #6
 8003ff0:	881b      	ldrh	r3, [r3, #0]
 8003ff2:	b2d8      	uxtb	r0, r3
 8003ff4:	1d3b      	adds	r3, r7, #4
 8003ff6:	881b      	ldrh	r3, [r3, #0]
 8003ff8:	b2d9      	uxtb	r1, r3
 8003ffa:	1dbb      	adds	r3, r7, #6
 8003ffc:	881b      	ldrh	r3, [r3, #0]
 8003ffe:	b2da      	uxtb	r2, r3
 8004000:	1cbb      	adds	r3, r7, #2
 8004002:	881b      	ldrh	r3, [r3, #0]
 8004004:	b2db      	uxtb	r3, r3
 8004006:	18d3      	adds	r3, r2, r3
 8004008:	b2db      	uxtb	r3, r3
 800400a:	3b01      	subs	r3, #1
 800400c:	b2dc      	uxtb	r4, r3
 800400e:	1d3b      	adds	r3, r7, #4
 8004010:	881b      	ldrh	r3, [r3, #0]
 8004012:	b2da      	uxtb	r2, r3
 8004014:	003b      	movs	r3, r7
 8004016:	881b      	ldrh	r3, [r3, #0]
 8004018:	b2db      	uxtb	r3, r3
 800401a:	18d3      	adds	r3, r2, r3
 800401c:	b2db      	uxtb	r3, r3
 800401e:	3b01      	subs	r3, #1
 8004020:	b2db      	uxtb	r3, r3
 8004022:	0022      	movs	r2, r4
 8004024:	f7ff fd08 	bl	8003a38 <ST7735_SetAddressWindow>

    uint8_t data[] = { color >> 8, color & 0xFF };
 8004028:	2120      	movs	r1, #32
 800402a:	187b      	adds	r3, r7, r1
 800402c:	881b      	ldrh	r3, [r3, #0]
 800402e:	0a1b      	lsrs	r3, r3, #8
 8004030:	b29b      	uxth	r3, r3
 8004032:	b2da      	uxtb	r2, r3
 8004034:	200c      	movs	r0, #12
 8004036:	183b      	adds	r3, r7, r0
 8004038:	701a      	strb	r2, [r3, #0]
 800403a:	187b      	adds	r3, r7, r1
 800403c:	881b      	ldrh	r3, [r3, #0]
 800403e:	b2da      	uxtb	r2, r3
 8004040:	183b      	adds	r3, r7, r0
 8004042:	705a      	strb	r2, [r3, #1]
    HAL_GPIO_WritePin(AD_PORT, AD_PIN, GPIO_PIN_SET);
 8004044:	4b1a      	ldr	r3, [pc, #104]	; (80040b0 <ST7735_FillRectangle+0x158>)
 8004046:	2201      	movs	r2, #1
 8004048:	2102      	movs	r1, #2
 800404a:	0018      	movs	r0, r3
 800404c:	f001 ffdb 	bl	8006006 <HAL_GPIO_WritePin>
    for(y = h; y > 0; y--) {
 8004050:	1d3b      	adds	r3, r7, #4
 8004052:	003a      	movs	r2, r7
 8004054:	8812      	ldrh	r2, [r2, #0]
 8004056:	801a      	strh	r2, [r3, #0]
 8004058:	e01a      	b.n	8004090 <ST7735_FillRectangle+0x138>
        for(x = w; x > 0; x--) {
 800405a:	1dbb      	adds	r3, r7, #6
 800405c:	1cba      	adds	r2, r7, #2
 800405e:	8812      	ldrh	r2, [r2, #0]
 8004060:	801a      	strh	r2, [r3, #0]
 8004062:	e00c      	b.n	800407e <ST7735_FillRectangle+0x126>
            HAL_SPI_Transmit(&ST7735_SPI_PORT, data, sizeof(data), HAL_MAX_DELAY);
 8004064:	2301      	movs	r3, #1
 8004066:	425b      	negs	r3, r3
 8004068:	220c      	movs	r2, #12
 800406a:	18b9      	adds	r1, r7, r2
 800406c:	4811      	ldr	r0, [pc, #68]	; (80040b4 <ST7735_FillRectangle+0x15c>)
 800406e:	2202      	movs	r2, #2
 8004070:	f002 fce2 	bl	8006a38 <HAL_SPI_Transmit>
        for(x = w; x > 0; x--) {
 8004074:	1dbb      	adds	r3, r7, #6
 8004076:	881a      	ldrh	r2, [r3, #0]
 8004078:	1dbb      	adds	r3, r7, #6
 800407a:	3a01      	subs	r2, #1
 800407c:	801a      	strh	r2, [r3, #0]
 800407e:	1dbb      	adds	r3, r7, #6
 8004080:	881b      	ldrh	r3, [r3, #0]
 8004082:	2b00      	cmp	r3, #0
 8004084:	d1ee      	bne.n	8004064 <ST7735_FillRectangle+0x10c>
    for(y = h; y > 0; y--) {
 8004086:	1d3b      	adds	r3, r7, #4
 8004088:	881a      	ldrh	r2, [r3, #0]
 800408a:	1d3b      	adds	r3, r7, #4
 800408c:	3a01      	subs	r2, #1
 800408e:	801a      	strh	r2, [r3, #0]
 8004090:	1d3b      	adds	r3, r7, #4
 8004092:	881b      	ldrh	r3, [r3, #0]
 8004094:	2b00      	cmp	r3, #0
 8004096:	d1e0      	bne.n	800405a <ST7735_FillRectangle+0x102>
        }
    }

    ST7735_Unselect();
 8004098:	f7ff fc0e 	bl	80038b8 <ST7735_Unselect>
 800409c:	e000      	b.n	80040a0 <ST7735_FillRectangle+0x148>
    if((x >= _width) || (y >= _height)) return;
 800409e:	46c0      	nop			; (mov r8, r8)
}
 80040a0:	46bd      	mov	sp, r7
 80040a2:	b004      	add	sp, #16
 80040a4:	bdb0      	pop	{r4, r5, r7, pc}
 80040a6:	46c0      	nop			; (mov r8, r8)
 80040a8:	2000004c 	.word	0x2000004c
 80040ac:	2000004e 	.word	0x2000004e
 80040b0:	48000400 	.word	0x48000400
 80040b4:	20000098 	.word	0x20000098

080040b8 <createButton>:
#include "GFX_FUNCTIONS.h"
#include "graphicElements.h"


ELEMENT createButton(uint8_t btnX, uint8_t btnY, const char *text, uint16_t bgdColor)
{
 80040b8:	b5f0      	push	{r4, r5, r6, r7, lr}
 80040ba:	b093      	sub	sp, #76	; 0x4c
 80040bc:	af04      	add	r7, sp, #16
 80040be:	60f8      	str	r0, [r7, #12]
 80040c0:	0008      	movs	r0, r1
 80040c2:	0011      	movs	r1, r2
 80040c4:	607b      	str	r3, [r7, #4]
 80040c6:	240b      	movs	r4, #11
 80040c8:	193b      	adds	r3, r7, r4
 80040ca:	1c02      	adds	r2, r0, #0
 80040cc:	701a      	strb	r2, [r3, #0]
 80040ce:	200a      	movs	r0, #10
 80040d0:	183b      	adds	r3, r7, r0
 80040d2:	1c0a      	adds	r2, r1, #0
 80040d4:	701a      	strb	r2, [r3, #0]
	 *  |  TEXT	 |
	 *  |________|
	 *
	 */

	uint8_t textLen = 0;
 80040d6:	2337      	movs	r3, #55	; 0x37
 80040d8:	18fb      	adds	r3, r7, r3
 80040da:	2200      	movs	r2, #0
 80040dc:	701a      	strb	r2, [r3, #0]
	uint16_t dimW = 1;
 80040de:	2334      	movs	r3, #52	; 0x34
 80040e0:	18fb      	adds	r3, r7, r3
 80040e2:	2201      	movs	r2, #1
 80040e4:	801a      	strh	r2, [r3, #0]
	uint8_t dimH = 1;
 80040e6:	2333      	movs	r3, #51	; 0x33
 80040e8:	18fb      	adds	r3, r7, r3
 80040ea:	2201      	movs	r2, #1
 80040ec:	701a      	strb	r2, [r3, #0]

	ELEMENT btnElement;

	btnElement.elemtentType = BUTTON;
 80040ee:	2110      	movs	r1, #16
 80040f0:	187b      	adds	r3, r7, r1
 80040f2:	2200      	movs	r2, #0
 80040f4:	701a      	strb	r2, [r3, #0]
	btnElement.btn.btnColour = bgdColor;
 80040f6:	187a      	adds	r2, r7, r1
 80040f8:	2348      	movs	r3, #72	; 0x48
 80040fa:	2508      	movs	r5, #8
 80040fc:	195b      	adds	r3, r3, r5
 80040fe:	19db      	adds	r3, r3, r7
 8004100:	881b      	ldrh	r3, [r3, #0]
 8004102:	80d3      	strh	r3, [r2, #6]
	btnElement.btn.btnX = btnX;
 8004104:	187b      	adds	r3, r7, r1
 8004106:	193a      	adds	r2, r7, r4
 8004108:	7812      	ldrb	r2, [r2, #0]
 800410a:	711a      	strb	r2, [r3, #4]
	btnElement.btn.btnY = btnY;
 800410c:	187b      	adds	r3, r7, r1
 800410e:	183a      	adds	r2, r7, r0
 8004110:	7812      	ldrb	r2, [r2, #0]
 8004112:	715a      	strb	r2, [r3, #5]
	btnElement.btn.btnText = text;
 8004114:	187b      	adds	r3, r7, r1
 8004116:	687a      	ldr	r2, [r7, #4]
 8004118:	609a      	str	r2, [r3, #8]

	while(text[textLen] != 0)
 800411a:	e005      	b.n	8004128 <createButton+0x70>
		textLen++;
 800411c:	2137      	movs	r1, #55	; 0x37
 800411e:	187b      	adds	r3, r7, r1
 8004120:	781a      	ldrb	r2, [r3, #0]
 8004122:	187b      	adds	r3, r7, r1
 8004124:	3201      	adds	r2, #1
 8004126:	701a      	strb	r2, [r3, #0]
	while(text[textLen] != 0)
 8004128:	2137      	movs	r1, #55	; 0x37
 800412a:	187b      	adds	r3, r7, r1
 800412c:	781b      	ldrb	r3, [r3, #0]
 800412e:	687a      	ldr	r2, [r7, #4]
 8004130:	18d3      	adds	r3, r2, r3
 8004132:	781b      	ldrb	r3, [r3, #0]
 8004134:	2b00      	cmp	r3, #0
 8004136:	d1f1      	bne.n	800411c <createButton+0x64>


	dimW = ( textLen * 7 ) + 5;
 8004138:	187b      	adds	r3, r7, r1
 800413a:	781b      	ldrb	r3, [r3, #0]
 800413c:	b29b      	uxth	r3, r3
 800413e:	1c1a      	adds	r2, r3, #0
 8004140:	00d2      	lsls	r2, r2, #3
 8004142:	1ad3      	subs	r3, r2, r3
 8004144:	b29a      	uxth	r2, r3
 8004146:	2434      	movs	r4, #52	; 0x34
 8004148:	193b      	adds	r3, r7, r4
 800414a:	3205      	adds	r2, #5
 800414c:	801a      	strh	r2, [r3, #0]
	dimH = ( 10  + 5 );
 800414e:	2533      	movs	r5, #51	; 0x33
 8004150:	197b      	adds	r3, r7, r5
 8004152:	220f      	movs	r2, #15
 8004154:	701a      	strb	r2, [r3, #0]

	fillRoundRect(btnX, btnY, dimW, dimH, 2, bgdColor);
 8004156:	260b      	movs	r6, #11
 8004158:	19bb      	adds	r3, r7, r6
 800415a:	781b      	ldrb	r3, [r3, #0]
 800415c:	b218      	sxth	r0, r3
 800415e:	230a      	movs	r3, #10
 8004160:	18fb      	adds	r3, r7, r3
 8004162:	781b      	ldrb	r3, [r3, #0]
 8004164:	b219      	sxth	r1, r3
 8004166:	193b      	adds	r3, r7, r4
 8004168:	2400      	movs	r4, #0
 800416a:	5f1a      	ldrsh	r2, [r3, r4]
 800416c:	197b      	adds	r3, r7, r5
 800416e:	781b      	ldrb	r3, [r3, #0]
 8004170:	b21c      	sxth	r4, r3
 8004172:	2548      	movs	r5, #72	; 0x48
 8004174:	2308      	movs	r3, #8
 8004176:	18ed      	adds	r5, r5, r3
 8004178:	19eb      	adds	r3, r5, r7
 800417a:	881b      	ldrh	r3, [r3, #0]
 800417c:	9301      	str	r3, [sp, #4]
 800417e:	2302      	movs	r3, #2
 8004180:	9300      	str	r3, [sp, #0]
 8004182:	0023      	movs	r3, r4
 8004184:	f7ff f884 	bl	8003290 <fillRoundRect>
	ST7735_WriteString(btnX+3, btnY+3, text, Font_7x10, WHITE, bgdColor);
 8004188:	19bb      	adds	r3, r7, r6
 800418a:	781b      	ldrb	r3, [r3, #0]
 800418c:	b29b      	uxth	r3, r3
 800418e:	3303      	adds	r3, #3
 8004190:	b298      	uxth	r0, r3
 8004192:	230a      	movs	r3, #10
 8004194:	18fb      	adds	r3, r7, r3
 8004196:	781b      	ldrb	r3, [r3, #0]
 8004198:	b29b      	uxth	r3, r3
 800419a:	3303      	adds	r3, #3
 800419c:	b29c      	uxth	r4, r3
 800419e:	4b0f      	ldr	r3, [pc, #60]	; (80041dc <createButton+0x124>)
 80041a0:	687d      	ldr	r5, [r7, #4]
 80041a2:	2248      	movs	r2, #72	; 0x48
 80041a4:	2108      	movs	r1, #8
 80041a6:	1852      	adds	r2, r2, r1
 80041a8:	19d2      	adds	r2, r2, r7
 80041aa:	8812      	ldrh	r2, [r2, #0]
 80041ac:	9202      	str	r2, [sp, #8]
 80041ae:	4a0c      	ldr	r2, [pc, #48]	; (80041e0 <createButton+0x128>)
 80041b0:	9201      	str	r2, [sp, #4]
 80041b2:	466a      	mov	r2, sp
 80041b4:	6859      	ldr	r1, [r3, #4]
 80041b6:	6011      	str	r1, [r2, #0]
 80041b8:	681b      	ldr	r3, [r3, #0]
 80041ba:	002a      	movs	r2, r5
 80041bc:	0021      	movs	r1, r4
 80041be:	f7ff fe39 	bl	8003e34 <ST7735_WriteString>

    return btnElement;
 80041c2:	68fb      	ldr	r3, [r7, #12]
 80041c4:	2210      	movs	r2, #16
 80041c6:	18ba      	adds	r2, r7, r2
 80041c8:	ca13      	ldmia	r2!, {r0, r1, r4}
 80041ca:	c313      	stmia	r3!, {r0, r1, r4}
 80041cc:	ca13      	ldmia	r2!, {r0, r1, r4}
 80041ce:	c313      	stmia	r3!, {r0, r1, r4}
 80041d0:	ca03      	ldmia	r2!, {r0, r1}
 80041d2:	c303      	stmia	r3!, {r0, r1}

}
 80041d4:	68f8      	ldr	r0, [r7, #12]
 80041d6:	46bd      	mov	sp, r7
 80041d8:	b00f      	add	sp, #60	; 0x3c
 80041da:	bdf0      	pop	{r4, r5, r6, r7, pc}
 80041dc:	20000000 	.word	0x20000000
 80041e0:	0000ffff 	.word	0x0000ffff

080041e4 <createEditNumBox>:


ELEMENT createEditNumBox(uint8_t textX, uint8_t textY, const char *text, uint16_t bgdTextColor, uint8_t num, uint16_t bgdNumcolor)
{
 80041e4:	b5f0      	push	{r4, r5, r6, r7, lr}
 80041e6:	b093      	sub	sp, #76	; 0x4c
 80041e8:	af04      	add	r7, sp, #16
 80041ea:	60f8      	str	r0, [r7, #12]
 80041ec:	0008      	movs	r0, r1
 80041ee:	0011      	movs	r1, r2
 80041f0:	607b      	str	r3, [r7, #4]
 80041f2:	240b      	movs	r4, #11
 80041f4:	193b      	adds	r3, r7, r4
 80041f6:	1c02      	adds	r2, r0, #0
 80041f8:	701a      	strb	r2, [r3, #0]
 80041fa:	200a      	movs	r0, #10
 80041fc:	183b      	adds	r3, r7, r0
 80041fe:	1c0a      	adds	r2, r1, #0
 8004200:	701a      	strb	r2, [r3, #0]

	ELEMENT nBoxElement;

	char numToChar[1];

	nBoxElement.elemtentType = EDITNUMBOX;
 8004202:	2618      	movs	r6, #24
 8004204:	19bb      	adds	r3, r7, r6
 8004206:	2201      	movs	r2, #1
 8004208:	701a      	strb	r2, [r3, #0]
	nBoxElement.nBox.textX = textX;
 800420a:	19bb      	adds	r3, r7, r6
 800420c:	0021      	movs	r1, r4
 800420e:	187a      	adds	r2, r7, r1
 8004210:	7812      	ldrb	r2, [r2, #0]
 8004212:	741a      	strb	r2, [r3, #16]
	nBoxElement.nBox.textY = textY;
 8004214:	19bb      	adds	r3, r7, r6
 8004216:	0004      	movs	r4, r0
 8004218:	183a      	adds	r2, r7, r0
 800421a:	7812      	ldrb	r2, [r2, #0]
 800421c:	745a      	strb	r2, [r3, #17]
	nBoxElement.nBox.textColour = bgdTextColor;
 800421e:	19ba      	adds	r2, r7, r6
 8004220:	2348      	movs	r3, #72	; 0x48
 8004222:	2508      	movs	r5, #8
 8004224:	195b      	adds	r3, r3, r5
 8004226:	19db      	adds	r3, r3, r7
 8004228:	881b      	ldrh	r3, [r3, #0]
 800422a:	8253      	strh	r3, [r2, #18]
	nBoxElement.nBox.boxText = text;
 800422c:	19bb      	adds	r3, r7, r6
 800422e:	687a      	ldr	r2, [r7, #4]
 8004230:	615a      	str	r2, [r3, #20]
	nBoxElement.nBox.boxNum = num;
 8004232:	19bb      	adds	r3, r7, r6
 8004234:	204c      	movs	r0, #76	; 0x4c
 8004236:	1942      	adds	r2, r0, r5
 8004238:	19d2      	adds	r2, r2, r7
 800423a:	7812      	ldrb	r2, [r2, #0]
 800423c:	761a      	strb	r2, [r3, #24]
	nBoxElement.nBox.boxColor = bgdNumcolor;
 800423e:	2550      	movs	r5, #80	; 0x50
 8004240:	2308      	movs	r3, #8
 8004242:	18ea      	adds	r2, r5, r3
 8004244:	19d3      	adds	r3, r2, r7
 8004246:	881b      	ldrh	r3, [r3, #0]
 8004248:	b2da      	uxtb	r2, r3
 800424a:	19bb      	adds	r3, r7, r6
 800424c:	765a      	strb	r2, [r3, #25]

	numToChar[0] = num + 0x30;
 800424e:	2508      	movs	r5, #8
 8004250:	1943      	adds	r3, r0, r5
 8004252:	19db      	adds	r3, r3, r7
 8004254:	781b      	ldrb	r3, [r3, #0]
 8004256:	3330      	adds	r3, #48	; 0x30
 8004258:	b2da      	uxtb	r2, r3
 800425a:	2014      	movs	r0, #20
 800425c:	183b      	adds	r3, r7, r0
 800425e:	701a      	strb	r2, [r3, #0]

	ST7735_WriteString(textX, textY, text, Font_11x18, WHITE, bgdTextColor);
 8004260:	187b      	adds	r3, r7, r1
 8004262:	781b      	ldrb	r3, [r3, #0]
 8004264:	b298      	uxth	r0, r3
 8004266:	193b      	adds	r3, r7, r4
 8004268:	781b      	ldrb	r3, [r3, #0]
 800426a:	b29c      	uxth	r4, r3
 800426c:	4b29      	ldr	r3, [pc, #164]	; (8004314 <createEditNumBox+0x130>)
 800426e:	687d      	ldr	r5, [r7, #4]
 8004270:	2248      	movs	r2, #72	; 0x48
 8004272:	2108      	movs	r1, #8
 8004274:	1852      	adds	r2, r2, r1
 8004276:	19d2      	adds	r2, r2, r7
 8004278:	8812      	ldrh	r2, [r2, #0]
 800427a:	9202      	str	r2, [sp, #8]
 800427c:	4a26      	ldr	r2, [pc, #152]	; (8004318 <createEditNumBox+0x134>)
 800427e:	9201      	str	r2, [sp, #4]
 8004280:	466a      	mov	r2, sp
 8004282:	6859      	ldr	r1, [r3, #4]
 8004284:	6011      	str	r1, [r2, #0]
 8004286:	681b      	ldr	r3, [r3, #0]
 8004288:	002a      	movs	r2, r5
 800428a:	0021      	movs	r1, r4
 800428c:	f7ff fdd2 	bl	8003e34 <ST7735_WriteString>
    ST7735_WriteString(textX+32, textY+22, numToChar, Font_11x18, WHITE, bgdNumcolor);
 8004290:	210b      	movs	r1, #11
 8004292:	187b      	adds	r3, r7, r1
 8004294:	781b      	ldrb	r3, [r3, #0]
 8004296:	b29b      	uxth	r3, r3
 8004298:	3320      	adds	r3, #32
 800429a:	b298      	uxth	r0, r3
 800429c:	240a      	movs	r4, #10
 800429e:	193b      	adds	r3, r7, r4
 80042a0:	781b      	ldrb	r3, [r3, #0]
 80042a2:	b29b      	uxth	r3, r3
 80042a4:	3316      	adds	r3, #22
 80042a6:	b29c      	uxth	r4, r3
 80042a8:	4b1a      	ldr	r3, [pc, #104]	; (8004314 <createEditNumBox+0x130>)
 80042aa:	2214      	movs	r2, #20
 80042ac:	18bd      	adds	r5, r7, r2
 80042ae:	2250      	movs	r2, #80	; 0x50
 80042b0:	2108      	movs	r1, #8
 80042b2:	1852      	adds	r2, r2, r1
 80042b4:	19d2      	adds	r2, r2, r7
 80042b6:	8812      	ldrh	r2, [r2, #0]
 80042b8:	9202      	str	r2, [sp, #8]
 80042ba:	4a17      	ldr	r2, [pc, #92]	; (8004318 <createEditNumBox+0x134>)
 80042bc:	9201      	str	r2, [sp, #4]
 80042be:	466a      	mov	r2, sp
 80042c0:	6859      	ldr	r1, [r3, #4]
 80042c2:	6011      	str	r1, [r2, #0]
 80042c4:	681b      	ldr	r3, [r3, #0]
 80042c6:	002a      	movs	r2, r5
 80042c8:	0021      	movs	r1, r4
 80042ca:	f7ff fdb3 	bl	8003e34 <ST7735_WriteString>
    drawRoundRect(textX+27, textY+20, 20, 20, 2, WHITE);
 80042ce:	210b      	movs	r1, #11
 80042d0:	187b      	adds	r3, r7, r1
 80042d2:	781b      	ldrb	r3, [r3, #0]
 80042d4:	b29b      	uxth	r3, r3
 80042d6:	331b      	adds	r3, #27
 80042d8:	b29b      	uxth	r3, r3
 80042da:	b218      	sxth	r0, r3
 80042dc:	240a      	movs	r4, #10
 80042de:	193b      	adds	r3, r7, r4
 80042e0:	781b      	ldrb	r3, [r3, #0]
 80042e2:	b29b      	uxth	r3, r3
 80042e4:	3314      	adds	r3, #20
 80042e6:	b29b      	uxth	r3, r3
 80042e8:	b219      	sxth	r1, r3
 80042ea:	4b0b      	ldr	r3, [pc, #44]	; (8004318 <createEditNumBox+0x134>)
 80042ec:	9301      	str	r3, [sp, #4]
 80042ee:	2302      	movs	r3, #2
 80042f0:	9300      	str	r3, [sp, #0]
 80042f2:	2314      	movs	r3, #20
 80042f4:	2214      	movs	r2, #20
 80042f6:	f7fe fe89 	bl	800300c <drawRoundRect>

    return nBoxElement;
 80042fa:	68fb      	ldr	r3, [r7, #12]
 80042fc:	19ba      	adds	r2, r7, r6
 80042fe:	ca13      	ldmia	r2!, {r0, r1, r4}
 8004300:	c313      	stmia	r3!, {r0, r1, r4}
 8004302:	ca13      	ldmia	r2!, {r0, r1, r4}
 8004304:	c313      	stmia	r3!, {r0, r1, r4}
 8004306:	ca03      	ldmia	r2!, {r0, r1}
 8004308:	c303      	stmia	r3!, {r0, r1}

}
 800430a:	68f8      	ldr	r0, [r7, #12]
 800430c:	46bd      	mov	sp, r7
 800430e:	b00f      	add	sp, #60	; 0x3c
 8004310:	bdf0      	pop	{r4, r5, r6, r7, pc}
 8004312:	46c0      	nop			; (mov r8, r8)
 8004314:	20000008 	.word	0x20000008
 8004318:	0000ffff 	.word	0x0000ffff

0800431c <main>:
/**
  * @brief  The application entry point.
  * @retval int
  */
int main(void)
{
 800431c:	b580      	push	{r7, lr}
 800431e:	af00      	add	r7, sp, #0
  /* USER CODE END 1 */

  /* MCU Configuration--------------------------------------------------------*/

  /* Reset of all peripherals, Initializes the Flash interface and the Systick. */
  HAL_Init();
 8004320:	f001 f884 	bl	800542c <HAL_Init>
  /* USER CODE BEGIN Init */

  /* USER CODE END Init */

  /* Configure the system clock */
  SystemClock_Config();
 8004324:	f000 f81a 	bl	800435c <SystemClock_Config>
  /* USER CODE BEGIN SysInit */

  /* USER CODE END SysInit */

  /* Initialize all configured peripherals */
  MX_GPIO_Init();
 8004328:	f000 f904 	bl	8004534 <MX_GPIO_Init>
  MX_ADC_Init();
 800432c:	f000 f868 	bl	8004400 <MX_ADC_Init>
  MX_SPI1_Init();
 8004330:	f000 f8c2 	bl	80044b8 <MX_SPI1_Init>
  /* USER CODE BEGIN 2 */

  HAL_ADC_Start(&hadc);
 8004334:	4b08      	ldr	r3, [pc, #32]	; (8004358 <main+0x3c>)
 8004336:	0018      	movs	r0, r3
 8004338:	f001 fa4a 	bl	80057d0 <HAL_ADC_Start>

  ST7735_Init(0);
 800433c:	2000      	movs	r0, #0
 800433e:	f7ff fbd3 	bl	8003ae8 <ST7735_Init>
  fillScreen(BLACK);
 8004342:	2000      	movs	r0, #0
 8004344:	f7ff fa8e 	bl	8003864 <fillScreen>
  HAL_Delay(500);
 8004348:	23fa      	movs	r3, #250	; 0xfa
 800434a:	005b      	lsls	r3, r3, #1
 800434c:	0018      	movs	r0, r3
 800434e:	f001 f8db 	bl	8005508 <HAL_Delay>
  /* USER CODE BEGIN WHILE */
  while (1)
  {
    /* USER CODE END WHILE */

	pHMeter_process();
 8004352:	f000 f98d 	bl	8004670 <pHMeter_process>
 8004356:	e7fc      	b.n	8004352 <main+0x36>
 8004358:	20000058 	.word	0x20000058

0800435c <SystemClock_Config>:
/**
  * @brief System Clock Configuration
  * @retval None
  */
void SystemClock_Config(void)
{
 800435c:	b590      	push	{r4, r7, lr}
 800435e:	b091      	sub	sp, #68	; 0x44
 8004360:	af00      	add	r7, sp, #0
  RCC_OscInitTypeDef RCC_OscInitStruct = {0};
 8004362:	2410      	movs	r4, #16
 8004364:	193b      	adds	r3, r7, r4
 8004366:	0018      	movs	r0, r3
 8004368:	2330      	movs	r3, #48	; 0x30
 800436a:	001a      	movs	r2, r3
 800436c:	2100      	movs	r1, #0
 800436e:	f002 fe39 	bl	8006fe4 <memset>
  RCC_ClkInitTypeDef RCC_ClkInitStruct = {0};
 8004372:	003b      	movs	r3, r7
 8004374:	0018      	movs	r0, r3
 8004376:	2310      	movs	r3, #16
 8004378:	001a      	movs	r2, r3
 800437a:	2100      	movs	r1, #0
 800437c:	f002 fe32 	bl	8006fe4 <memset>

  /** Initializes the RCC Oscillators according to the specified parameters
  * in the RCC_OscInitTypeDef structure.
  */
  RCC_OscInitStruct.OscillatorType = RCC_OSCILLATORTYPE_HSI|RCC_OSCILLATORTYPE_HSI14;
 8004380:	0021      	movs	r1, r4
 8004382:	187b      	adds	r3, r7, r1
 8004384:	2212      	movs	r2, #18
 8004386:	601a      	str	r2, [r3, #0]
  RCC_OscInitStruct.HSIState = RCC_HSI_ON;
 8004388:	187b      	adds	r3, r7, r1
 800438a:	2201      	movs	r2, #1
 800438c:	60da      	str	r2, [r3, #12]
  RCC_OscInitStruct.HSI14State = RCC_HSI14_ON;
 800438e:	187b      	adds	r3, r7, r1
 8004390:	2201      	movs	r2, #1
 8004392:	615a      	str	r2, [r3, #20]
  RCC_OscInitStruct.HSICalibrationValue = RCC_HSICALIBRATION_DEFAULT;
 8004394:	187b      	adds	r3, r7, r1
 8004396:	2210      	movs	r2, #16
 8004398:	611a      	str	r2, [r3, #16]
  RCC_OscInitStruct.HSI14CalibrationValue = 16;
 800439a:	187b      	adds	r3, r7, r1
 800439c:	2210      	movs	r2, #16
 800439e:	619a      	str	r2, [r3, #24]
  RCC_OscInitStruct.PLL.PLLState = RCC_PLL_ON;
 80043a0:	187b      	adds	r3, r7, r1
 80043a2:	2202      	movs	r2, #2
 80043a4:	621a      	str	r2, [r3, #32]
  RCC_OscInitStruct.PLL.PLLSource = RCC_PLLSOURCE_HSI;
 80043a6:	187b      	adds	r3, r7, r1
 80043a8:	2280      	movs	r2, #128	; 0x80
 80043aa:	0212      	lsls	r2, r2, #8
 80043ac:	625a      	str	r2, [r3, #36]	; 0x24
  RCC_OscInitStruct.PLL.PLLMUL = RCC_PLL_MUL5;
 80043ae:	187b      	adds	r3, r7, r1
 80043b0:	22c0      	movs	r2, #192	; 0xc0
 80043b2:	0312      	lsls	r2, r2, #12
 80043b4:	629a      	str	r2, [r3, #40]	; 0x28
  RCC_OscInitStruct.PLL.PREDIV = RCC_PREDIV_DIV1;
 80043b6:	187b      	adds	r3, r7, r1
 80043b8:	2200      	movs	r2, #0
 80043ba:	62da      	str	r2, [r3, #44]	; 0x2c
  if (HAL_RCC_OscConfig(&RCC_OscInitStruct) != HAL_OK)
 80043bc:	187b      	adds	r3, r7, r1
 80043be:	0018      	movs	r0, r3
 80043c0:	f001 fe3e 	bl	8006040 <HAL_RCC_OscConfig>
 80043c4:	1e03      	subs	r3, r0, #0
 80043c6:	d001      	beq.n	80043cc <SystemClock_Config+0x70>
  {
    Error_Handler();
 80043c8:	f000 f94c 	bl	8004664 <Error_Handler>
  }

  /** Initializes the CPU, AHB and APB buses clocks
  */
  RCC_ClkInitStruct.ClockType = RCC_CLOCKTYPE_HCLK|RCC_CLOCKTYPE_SYSCLK
 80043cc:	003b      	movs	r3, r7
 80043ce:	2207      	movs	r2, #7
 80043d0:	601a      	str	r2, [r3, #0]
                              |RCC_CLOCKTYPE_PCLK1;
  RCC_ClkInitStruct.SYSCLKSource = RCC_SYSCLKSOURCE_PLLCLK;
 80043d2:	003b      	movs	r3, r7
 80043d4:	2202      	movs	r2, #2
 80043d6:	605a      	str	r2, [r3, #4]
  RCC_ClkInitStruct.AHBCLKDivider = RCC_SYSCLK_DIV2;
 80043d8:	003b      	movs	r3, r7
 80043da:	2280      	movs	r2, #128	; 0x80
 80043dc:	609a      	str	r2, [r3, #8]
  RCC_ClkInitStruct.APB1CLKDivider = RCC_HCLK_DIV1;
 80043de:	003b      	movs	r3, r7
 80043e0:	2200      	movs	r2, #0
 80043e2:	60da      	str	r2, [r3, #12]

  if (HAL_RCC_ClockConfig(&RCC_ClkInitStruct, FLASH_LATENCY_1) != HAL_OK)
 80043e4:	003b      	movs	r3, r7
 80043e6:	2101      	movs	r1, #1
 80043e8:	0018      	movs	r0, r3
 80043ea:	f002 f947 	bl	800667c <HAL_RCC_ClockConfig>
 80043ee:	1e03      	subs	r3, r0, #0
 80043f0:	d001      	beq.n	80043f6 <SystemClock_Config+0x9a>
  {
    Error_Handler();
 80043f2:	f000 f937 	bl	8004664 <Error_Handler>
  }
}
 80043f6:	46c0      	nop			; (mov r8, r8)
 80043f8:	46bd      	mov	sp, r7
 80043fa:	b011      	add	sp, #68	; 0x44
 80043fc:	bd90      	pop	{r4, r7, pc}
	...

08004400 <MX_ADC_Init>:
  * @brief ADC Initialization Function
  * @param None
  * @retval None
  */
static void MX_ADC_Init(void)
{
 8004400:	b580      	push	{r7, lr}
 8004402:	b084      	sub	sp, #16
 8004404:	af00      	add	r7, sp, #0

  /* USER CODE BEGIN ADC_Init 0 */

  /* USER CODE END ADC_Init 0 */

  ADC_ChannelConfTypeDef sConfig = {0};
 8004406:	1d3b      	adds	r3, r7, #4
 8004408:	0018      	movs	r0, r3
 800440a:	230c      	movs	r3, #12
 800440c:	001a      	movs	r2, r3
 800440e:	2100      	movs	r1, #0
 8004410:	f002 fde8 	bl	8006fe4 <memset>

  /* USER CODE END ADC_Init 1 */

  /** Configure the global features of the ADC (Clock, Resolution, Data Alignment and number of conversion)
  */
  hadc.Instance = ADC1;
 8004414:	4b26      	ldr	r3, [pc, #152]	; (80044b0 <MX_ADC_Init+0xb0>)
 8004416:	4a27      	ldr	r2, [pc, #156]	; (80044b4 <MX_ADC_Init+0xb4>)
 8004418:	601a      	str	r2, [r3, #0]
  hadc.Init.ClockPrescaler = ADC_CLOCK_ASYNC_DIV1;
 800441a:	4b25      	ldr	r3, [pc, #148]	; (80044b0 <MX_ADC_Init+0xb0>)
 800441c:	2200      	movs	r2, #0
 800441e:	605a      	str	r2, [r3, #4]
  hadc.Init.Resolution = ADC_RESOLUTION_12B;
 8004420:	4b23      	ldr	r3, [pc, #140]	; (80044b0 <MX_ADC_Init+0xb0>)
 8004422:	2200      	movs	r2, #0
 8004424:	609a      	str	r2, [r3, #8]
  hadc.Init.DataAlign = ADC_DATAALIGN_RIGHT;
 8004426:	4b22      	ldr	r3, [pc, #136]	; (80044b0 <MX_ADC_Init+0xb0>)
 8004428:	2200      	movs	r2, #0
 800442a:	60da      	str	r2, [r3, #12]
  hadc.Init.ScanConvMode = ADC_SCAN_DIRECTION_FORWARD;
 800442c:	4b20      	ldr	r3, [pc, #128]	; (80044b0 <MX_ADC_Init+0xb0>)
 800442e:	2201      	movs	r2, #1
 8004430:	611a      	str	r2, [r3, #16]
  hadc.Init.EOCSelection = ADC_EOC_SINGLE_CONV;
 8004432:	4b1f      	ldr	r3, [pc, #124]	; (80044b0 <MX_ADC_Init+0xb0>)
 8004434:	2204      	movs	r2, #4
 8004436:	615a      	str	r2, [r3, #20]
  hadc.Init.LowPowerAutoWait = DISABLE;
 8004438:	4b1d      	ldr	r3, [pc, #116]	; (80044b0 <MX_ADC_Init+0xb0>)
 800443a:	2200      	movs	r2, #0
 800443c:	761a      	strb	r2, [r3, #24]
  hadc.Init.LowPowerAutoPowerOff = DISABLE;
 800443e:	4b1c      	ldr	r3, [pc, #112]	; (80044b0 <MX_ADC_Init+0xb0>)
 8004440:	2200      	movs	r2, #0
 8004442:	765a      	strb	r2, [r3, #25]
  hadc.Init.ContinuousConvMode = DISABLE;
 8004444:	4b1a      	ldr	r3, [pc, #104]	; (80044b0 <MX_ADC_Init+0xb0>)
 8004446:	2200      	movs	r2, #0
 8004448:	769a      	strb	r2, [r3, #26]
  hadc.Init.DiscontinuousConvMode = DISABLE;
 800444a:	4b19      	ldr	r3, [pc, #100]	; (80044b0 <MX_ADC_Init+0xb0>)
 800444c:	2200      	movs	r2, #0
 800444e:	76da      	strb	r2, [r3, #27]
  hadc.Init.ExternalTrigConv = ADC_SOFTWARE_START;
 8004450:	4b17      	ldr	r3, [pc, #92]	; (80044b0 <MX_ADC_Init+0xb0>)
 8004452:	22c2      	movs	r2, #194	; 0xc2
 8004454:	32ff      	adds	r2, #255	; 0xff
 8004456:	61da      	str	r2, [r3, #28]
  hadc.Init.ExternalTrigConvEdge = ADC_EXTERNALTRIGCONVEDGE_NONE;
 8004458:	4b15      	ldr	r3, [pc, #84]	; (80044b0 <MX_ADC_Init+0xb0>)
 800445a:	2200      	movs	r2, #0
 800445c:	621a      	str	r2, [r3, #32]
  hadc.Init.DMAContinuousRequests = DISABLE;
 800445e:	4b14      	ldr	r3, [pc, #80]	; (80044b0 <MX_ADC_Init+0xb0>)
 8004460:	2224      	movs	r2, #36	; 0x24
 8004462:	2100      	movs	r1, #0
 8004464:	5499      	strb	r1, [r3, r2]
  hadc.Init.Overrun = ADC_OVR_DATA_PRESERVED;
 8004466:	4b12      	ldr	r3, [pc, #72]	; (80044b0 <MX_ADC_Init+0xb0>)
 8004468:	2201      	movs	r2, #1
 800446a:	629a      	str	r2, [r3, #40]	; 0x28
  if (HAL_ADC_Init(&hadc) != HAL_OK)
 800446c:	4b10      	ldr	r3, [pc, #64]	; (80044b0 <MX_ADC_Init+0xb0>)
 800446e:	0018      	movs	r0, r3
 8004470:	f001 f86e 	bl	8005550 <HAL_ADC_Init>
 8004474:	1e03      	subs	r3, r0, #0
 8004476:	d001      	beq.n	800447c <MX_ADC_Init+0x7c>
  {
    Error_Handler();
 8004478:	f000 f8f4 	bl	8004664 <Error_Handler>
  }

  /** Configure for the selected ADC regular channel to be converted.
  */
  sConfig.Channel = ADC_CHANNEL_8;
 800447c:	1d3b      	adds	r3, r7, #4
 800447e:	2208      	movs	r2, #8
 8004480:	601a      	str	r2, [r3, #0]
  sConfig.Rank = ADC_RANK_CHANNEL_NUMBER;
 8004482:	1d3b      	adds	r3, r7, #4
 8004484:	2280      	movs	r2, #128	; 0x80
 8004486:	0152      	lsls	r2, r2, #5
 8004488:	605a      	str	r2, [r3, #4]
  sConfig.SamplingTime = ADC_SAMPLETIME_1CYCLE_5;
 800448a:	1d3b      	adds	r3, r7, #4
 800448c:	2280      	movs	r2, #128	; 0x80
 800448e:	0552      	lsls	r2, r2, #21
 8004490:	609a      	str	r2, [r3, #8]
  if (HAL_ADC_ConfigChannel(&hadc, &sConfig) != HAL_OK)
 8004492:	1d3a      	adds	r2, r7, #4
 8004494:	4b06      	ldr	r3, [pc, #24]	; (80044b0 <MX_ADC_Init+0xb0>)
 8004496:	0011      	movs	r1, r2
 8004498:	0018      	movs	r0, r3
 800449a:	f001 f9f9 	bl	8005890 <HAL_ADC_ConfigChannel>
 800449e:	1e03      	subs	r3, r0, #0
 80044a0:	d001      	beq.n	80044a6 <MX_ADC_Init+0xa6>
  {
    Error_Handler();
 80044a2:	f000 f8df 	bl	8004664 <Error_Handler>
  }
  /* USER CODE BEGIN ADC_Init 2 */

  /* USER CODE END ADC_Init 2 */

}
 80044a6:	46c0      	nop			; (mov r8, r8)
 80044a8:	46bd      	mov	sp, r7
 80044aa:	b004      	add	sp, #16
 80044ac:	bd80      	pop	{r7, pc}
 80044ae:	46c0      	nop			; (mov r8, r8)
 80044b0:	20000058 	.word	0x20000058
 80044b4:	40012400 	.word	0x40012400

080044b8 <MX_SPI1_Init>:
  * @brief SPI1 Initialization Function
  * @param None
  * @retval None
  */
static void MX_SPI1_Init(void)
{
 80044b8:	b580      	push	{r7, lr}
 80044ba:	af00      	add	r7, sp, #0

  /* USER CODE BEGIN SPI1_Init 1 */

  /* USER CODE END SPI1_Init 1 */
  /* SPI1 parameter configuration*/
  hspi1.Instance = SPI1;
 80044bc:	4b1b      	ldr	r3, [pc, #108]	; (800452c <MX_SPI1_Init+0x74>)
 80044be:	4a1c      	ldr	r2, [pc, #112]	; (8004530 <MX_SPI1_Init+0x78>)
 80044c0:	601a      	str	r2, [r3, #0]
  hspi1.Init.Mode = SPI_MODE_MASTER;
 80044c2:	4b1a      	ldr	r3, [pc, #104]	; (800452c <MX_SPI1_Init+0x74>)
 80044c4:	2282      	movs	r2, #130	; 0x82
 80044c6:	0052      	lsls	r2, r2, #1
 80044c8:	605a      	str	r2, [r3, #4]
  hspi1.Init.Direction = SPI_DIRECTION_2LINES;
 80044ca:	4b18      	ldr	r3, [pc, #96]	; (800452c <MX_SPI1_Init+0x74>)
 80044cc:	2200      	movs	r2, #0
 80044ce:	609a      	str	r2, [r3, #8]
  hspi1.Init.DataSize = SPI_DATASIZE_8BIT;
 80044d0:	4b16      	ldr	r3, [pc, #88]	; (800452c <MX_SPI1_Init+0x74>)
 80044d2:	22e0      	movs	r2, #224	; 0xe0
 80044d4:	00d2      	lsls	r2, r2, #3
 80044d6:	60da      	str	r2, [r3, #12]
  hspi1.Init.CLKPolarity = SPI_POLARITY_LOW;
 80044d8:	4b14      	ldr	r3, [pc, #80]	; (800452c <MX_SPI1_Init+0x74>)
 80044da:	2200      	movs	r2, #0
 80044dc:	611a      	str	r2, [r3, #16]
  hspi1.Init.CLKPhase = SPI_PHASE_1EDGE;
 80044de:	4b13      	ldr	r3, [pc, #76]	; (800452c <MX_SPI1_Init+0x74>)
 80044e0:	2200      	movs	r2, #0
 80044e2:	615a      	str	r2, [r3, #20]
  hspi1.Init.NSS = SPI_NSS_SOFT;
 80044e4:	4b11      	ldr	r3, [pc, #68]	; (800452c <MX_SPI1_Init+0x74>)
 80044e6:	2280      	movs	r2, #128	; 0x80
 80044e8:	0092      	lsls	r2, r2, #2
 80044ea:	619a      	str	r2, [r3, #24]
  hspi1.Init.BaudRatePrescaler = SPI_BAUDRATEPRESCALER_4;
 80044ec:	4b0f      	ldr	r3, [pc, #60]	; (800452c <MX_SPI1_Init+0x74>)
 80044ee:	2208      	movs	r2, #8
 80044f0:	61da      	str	r2, [r3, #28]
  hspi1.Init.FirstBit = SPI_FIRSTBIT_MSB;
 80044f2:	4b0e      	ldr	r3, [pc, #56]	; (800452c <MX_SPI1_Init+0x74>)
 80044f4:	2200      	movs	r2, #0
 80044f6:	621a      	str	r2, [r3, #32]
  hspi1.Init.TIMode = SPI_TIMODE_DISABLE;
 80044f8:	4b0c      	ldr	r3, [pc, #48]	; (800452c <MX_SPI1_Init+0x74>)
 80044fa:	2200      	movs	r2, #0
 80044fc:	625a      	str	r2, [r3, #36]	; 0x24
  hspi1.Init.CRCCalculation = SPI_CRCCALCULATION_DISABLE;
 80044fe:	4b0b      	ldr	r3, [pc, #44]	; (800452c <MX_SPI1_Init+0x74>)
 8004500:	2200      	movs	r2, #0
 8004502:	629a      	str	r2, [r3, #40]	; 0x28
  hspi1.Init.CRCPolynomial = 7;
 8004504:	4b09      	ldr	r3, [pc, #36]	; (800452c <MX_SPI1_Init+0x74>)
 8004506:	2207      	movs	r2, #7
 8004508:	62da      	str	r2, [r3, #44]	; 0x2c
  hspi1.Init.CRCLength = SPI_CRC_LENGTH_DATASIZE;
 800450a:	4b08      	ldr	r3, [pc, #32]	; (800452c <MX_SPI1_Init+0x74>)
 800450c:	2200      	movs	r2, #0
 800450e:	631a      	str	r2, [r3, #48]	; 0x30
  hspi1.Init.NSSPMode = SPI_NSS_PULSE_ENABLE;
 8004510:	4b06      	ldr	r3, [pc, #24]	; (800452c <MX_SPI1_Init+0x74>)
 8004512:	2208      	movs	r2, #8
 8004514:	635a      	str	r2, [r3, #52]	; 0x34
  if (HAL_SPI_Init(&hspi1) != HAL_OK)
 8004516:	4b05      	ldr	r3, [pc, #20]	; (800452c <MX_SPI1_Init+0x74>)
 8004518:	0018      	movs	r0, r3
 800451a:	f002 f9d5 	bl	80068c8 <HAL_SPI_Init>
 800451e:	1e03      	subs	r3, r0, #0
 8004520:	d001      	beq.n	8004526 <MX_SPI1_Init+0x6e>
  {
    Error_Handler();
 8004522:	f000 f89f 	bl	8004664 <Error_Handler>
  }
  /* USER CODE BEGIN SPI1_Init 2 */

  /* USER CODE END SPI1_Init 2 */

}
 8004526:	46c0      	nop			; (mov r8, r8)
 8004528:	46bd      	mov	sp, r7
 800452a:	bd80      	pop	{r7, pc}
 800452c:	20000098 	.word	0x20000098
 8004530:	40013000 	.word	0x40013000

08004534 <MX_GPIO_Init>:
  * @brief GPIO Initialization Function
  * @param None
  * @retval None
  */
static void MX_GPIO_Init(void)
{
 8004534:	b590      	push	{r4, r7, lr}
 8004536:	b08b      	sub	sp, #44	; 0x2c
 8004538:	af00      	add	r7, sp, #0
  GPIO_InitTypeDef GPIO_InitStruct = {0};
 800453a:	2414      	movs	r4, #20
 800453c:	193b      	adds	r3, r7, r4
 800453e:	0018      	movs	r0, r3
 8004540:	2314      	movs	r3, #20
 8004542:	001a      	movs	r2, r3
 8004544:	2100      	movs	r1, #0
 8004546:	f002 fd4d 	bl	8006fe4 <memset>

  /* GPIO Ports Clock Enable */
  __HAL_RCC_GPIOC_CLK_ENABLE();
 800454a:	4b42      	ldr	r3, [pc, #264]	; (8004654 <MX_GPIO_Init+0x120>)
 800454c:	695a      	ldr	r2, [r3, #20]
 800454e:	4b41      	ldr	r3, [pc, #260]	; (8004654 <MX_GPIO_Init+0x120>)
 8004550:	2180      	movs	r1, #128	; 0x80
 8004552:	0309      	lsls	r1, r1, #12
 8004554:	430a      	orrs	r2, r1
 8004556:	615a      	str	r2, [r3, #20]
 8004558:	4b3e      	ldr	r3, [pc, #248]	; (8004654 <MX_GPIO_Init+0x120>)
 800455a:	695a      	ldr	r2, [r3, #20]
 800455c:	2380      	movs	r3, #128	; 0x80
 800455e:	031b      	lsls	r3, r3, #12
 8004560:	4013      	ands	r3, r2
 8004562:	613b      	str	r3, [r7, #16]
 8004564:	693b      	ldr	r3, [r7, #16]
  __HAL_RCC_GPIOF_CLK_ENABLE();
 8004566:	4b3b      	ldr	r3, [pc, #236]	; (8004654 <MX_GPIO_Init+0x120>)
 8004568:	695a      	ldr	r2, [r3, #20]
 800456a:	4b3a      	ldr	r3, [pc, #232]	; (8004654 <MX_GPIO_Init+0x120>)
 800456c:	2180      	movs	r1, #128	; 0x80
 800456e:	03c9      	lsls	r1, r1, #15
 8004570:	430a      	orrs	r2, r1
 8004572:	615a      	str	r2, [r3, #20]
 8004574:	4b37      	ldr	r3, [pc, #220]	; (8004654 <MX_GPIO_Init+0x120>)
 8004576:	695a      	ldr	r2, [r3, #20]
 8004578:	2380      	movs	r3, #128	; 0x80
 800457a:	03db      	lsls	r3, r3, #15
 800457c:	4013      	ands	r3, r2
 800457e:	60fb      	str	r3, [r7, #12]
 8004580:	68fb      	ldr	r3, [r7, #12]
  __HAL_RCC_GPIOA_CLK_ENABLE();
 8004582:	4b34      	ldr	r3, [pc, #208]	; (8004654 <MX_GPIO_Init+0x120>)
 8004584:	695a      	ldr	r2, [r3, #20]
 8004586:	4b33      	ldr	r3, [pc, #204]	; (8004654 <MX_GPIO_Init+0x120>)
 8004588:	2180      	movs	r1, #128	; 0x80
 800458a:	0289      	lsls	r1, r1, #10
 800458c:	430a      	orrs	r2, r1
 800458e:	615a      	str	r2, [r3, #20]
 8004590:	4b30      	ldr	r3, [pc, #192]	; (8004654 <MX_GPIO_Init+0x120>)
 8004592:	695a      	ldr	r2, [r3, #20]
 8004594:	2380      	movs	r3, #128	; 0x80
 8004596:	029b      	lsls	r3, r3, #10
 8004598:	4013      	ands	r3, r2
 800459a:	60bb      	str	r3, [r7, #8]
 800459c:	68bb      	ldr	r3, [r7, #8]
  __HAL_RCC_GPIOB_CLK_ENABLE();
 800459e:	4b2d      	ldr	r3, [pc, #180]	; (8004654 <MX_GPIO_Init+0x120>)
 80045a0:	695a      	ldr	r2, [r3, #20]
 80045a2:	4b2c      	ldr	r3, [pc, #176]	; (8004654 <MX_GPIO_Init+0x120>)
 80045a4:	2180      	movs	r1, #128	; 0x80
 80045a6:	02c9      	lsls	r1, r1, #11
 80045a8:	430a      	orrs	r2, r1
 80045aa:	615a      	str	r2, [r3, #20]
 80045ac:	4b29      	ldr	r3, [pc, #164]	; (8004654 <MX_GPIO_Init+0x120>)
 80045ae:	695a      	ldr	r2, [r3, #20]
 80045b0:	2380      	movs	r3, #128	; 0x80
 80045b2:	02db      	lsls	r3, r3, #11
 80045b4:	4013      	ands	r3, r2
 80045b6:	607b      	str	r3, [r7, #4]
 80045b8:	687b      	ldr	r3, [r7, #4]

  /*Configure GPIO pin Output Level */
  HAL_GPIO_WritePin(GPIOB, ST7735_AD_Pin|ST7735_RESET_Pin|ST7735_CS_Pin, GPIO_PIN_RESET);
 80045ba:	4927      	ldr	r1, [pc, #156]	; (8004658 <MX_GPIO_Init+0x124>)
 80045bc:	4b27      	ldr	r3, [pc, #156]	; (800465c <MX_GPIO_Init+0x128>)
 80045be:	2200      	movs	r2, #0
 80045c0:	0018      	movs	r0, r3
 80045c2:	f001 fd20 	bl	8006006 <HAL_GPIO_WritePin>

  /*Configure GPIO pins : UP_Pin DOWN_Pin SEL_Pin */
  GPIO_InitStruct.Pin = UP_Pin|DOWN_Pin|SEL_Pin;
 80045c6:	193b      	adds	r3, r7, r4
 80045c8:	22e0      	movs	r2, #224	; 0xe0
 80045ca:	0212      	lsls	r2, r2, #8
 80045cc:	601a      	str	r2, [r3, #0]
  GPIO_InitStruct.Mode = GPIO_MODE_INPUT;
 80045ce:	193b      	adds	r3, r7, r4
 80045d0:	2200      	movs	r2, #0
 80045d2:	605a      	str	r2, [r3, #4]
  GPIO_InitStruct.Pull = GPIO_NOPULL;
 80045d4:	193b      	adds	r3, r7, r4
 80045d6:	2200      	movs	r2, #0
 80045d8:	609a      	str	r2, [r3, #8]
  HAL_GPIO_Init(GPIOC, &GPIO_InitStruct);
 80045da:	193b      	adds	r3, r7, r4
 80045dc:	4a20      	ldr	r2, [pc, #128]	; (8004660 <MX_GPIO_Init+0x12c>)
 80045de:	0019      	movs	r1, r3
 80045e0:	0010      	movs	r0, r2
 80045e2:	f001 fb83 	bl	8005cec <HAL_GPIO_Init>

  /*Configure GPIO pins : LEFT_Pin RIGHT_Pin */
  GPIO_InitStruct.Pin = LEFT_Pin|RIGHT_Pin;
 80045e6:	193b      	adds	r3, r7, r4
 80045e8:	2203      	movs	r2, #3
 80045ea:	601a      	str	r2, [r3, #0]
  GPIO_InitStruct.Mode = GPIO_MODE_INPUT;
 80045ec:	193b      	adds	r3, r7, r4
 80045ee:	2200      	movs	r2, #0
 80045f0:	605a      	str	r2, [r3, #4]
  GPIO_InitStruct.Pull = GPIO_NOPULL;
 80045f2:	193b      	adds	r3, r7, r4
 80045f4:	2200      	movs	r2, #0
 80045f6:	609a      	str	r2, [r3, #8]
  HAL_GPIO_Init(GPIOA, &GPIO_InitStruct);
 80045f8:	193a      	adds	r2, r7, r4
 80045fa:	2390      	movs	r3, #144	; 0x90
 80045fc:	05db      	lsls	r3, r3, #23
 80045fe:	0011      	movs	r1, r2
 8004600:	0018      	movs	r0, r3
 8004602:	f001 fb73 	bl	8005cec <HAL_GPIO_Init>

  /*Configure GPIO pins : ST7735_AD_Pin ST7735_RESET_Pin ST7735_CS_Pin */
  GPIO_InitStruct.Pin = ST7735_AD_Pin|ST7735_RESET_Pin|ST7735_CS_Pin;
 8004606:	193b      	adds	r3, r7, r4
 8004608:	4a13      	ldr	r2, [pc, #76]	; (8004658 <MX_GPIO_Init+0x124>)
 800460a:	601a      	str	r2, [r3, #0]
  GPIO_InitStruct.Mode = GPIO_MODE_OUTPUT_PP;
 800460c:	193b      	adds	r3, r7, r4
 800460e:	2201      	movs	r2, #1
 8004610:	605a      	str	r2, [r3, #4]
  GPIO_InitStruct.Pull = GPIO_NOPULL;
 8004612:	193b      	adds	r3, r7, r4
 8004614:	2200      	movs	r2, #0
 8004616:	609a      	str	r2, [r3, #8]
  GPIO_InitStruct.Speed = GPIO_SPEED_FREQ_LOW;
 8004618:	193b      	adds	r3, r7, r4
 800461a:	2200      	movs	r2, #0
 800461c:	60da      	str	r2, [r3, #12]
  HAL_GPIO_Init(GPIOB, &GPIO_InitStruct);
 800461e:	193b      	adds	r3, r7, r4
 8004620:	4a0e      	ldr	r2, [pc, #56]	; (800465c <MX_GPIO_Init+0x128>)
 8004622:	0019      	movs	r1, r3
 8004624:	0010      	movs	r0, r2
 8004626:	f001 fb61 	bl	8005cec <HAL_GPIO_Init>

  /*Configure GPIO pin : OPAMP_CALIB_Pin */
  GPIO_InitStruct.Pin = OPAMP_CALIB_Pin;
 800462a:	0021      	movs	r1, r4
 800462c:	187b      	adds	r3, r7, r1
 800462e:	2280      	movs	r2, #128	; 0x80
 8004630:	0152      	lsls	r2, r2, #5
 8004632:	601a      	str	r2, [r3, #0]
  GPIO_InitStruct.Mode = GPIO_MODE_INPUT;
 8004634:	187b      	adds	r3, r7, r1
 8004636:	2200      	movs	r2, #0
 8004638:	605a      	str	r2, [r3, #4]
  GPIO_InitStruct.Pull = GPIO_PULLUP;
 800463a:	187b      	adds	r3, r7, r1
 800463c:	2201      	movs	r2, #1
 800463e:	609a      	str	r2, [r3, #8]
  HAL_GPIO_Init(OPAMP_CALIB_GPIO_Port, &GPIO_InitStruct);
 8004640:	187b      	adds	r3, r7, r1
 8004642:	4a06      	ldr	r2, [pc, #24]	; (800465c <MX_GPIO_Init+0x128>)
 8004644:	0019      	movs	r1, r3
 8004646:	0010      	movs	r0, r2
 8004648:	f001 fb50 	bl	8005cec <HAL_GPIO_Init>

}
 800464c:	46c0      	nop			; (mov r8, r8)
 800464e:	46bd      	mov	sp, r7
 8004650:	b00b      	add	sp, #44	; 0x2c
 8004652:	bd90      	pop	{r4, r7, pc}
 8004654:	40021000 	.word	0x40021000
 8004658:	00000406 	.word	0x00000406
 800465c:	48000400 	.word	0x48000400
 8004660:	48000800 	.word	0x48000800

08004664 <Error_Handler>:
/**
  * @brief  This function is executed in case of error occurrence.
  * @retval None
  */
void Error_Handler(void)
{
 8004664:	b580      	push	{r7, lr}
 8004666:	af00      	add	r7, sp, #0
  \details Disables IRQ interrupts by setting the I-bit in the CPSR.
           Can only be executed in Privileged modes.
 */
__STATIC_FORCEINLINE void __disable_irq(void)
{
  __ASM volatile ("cpsid i" : : : "memory");
 8004668:	b672      	cpsid	i
}
 800466a:	46c0      	nop			; (mov r8, r8)
  /* USER CODE BEGIN Error_Handler_Debug */
  /* User can add his own implementation to report the HAL error return state */
  __disable_irq();
  while (1)
 800466c:	e7fe      	b.n	800466c <Error_Handler+0x8>
	...

08004670 <pHMeter_process>:
/*
 *  @ Function; pHMeter_process()
 *  @ Description; handles the screen views
 */
void pHMeter_process(void)
{
 8004670:	b590      	push	{r4, r7, lr}
 8004672:	b083      	sub	sp, #12
 8004674:	af00      	add	r7, sp, #0

	uint8_t pageChanged = 0;
 8004676:	1dfb      	adds	r3, r7, #7
 8004678:	2200      	movs	r2, #0
 800467a:	701a      	strb	r2, [r3, #0]

	if(first)
 800467c:	4b17      	ldr	r3, [pc, #92]	; (80046dc <pHMeter_process+0x6c>)
 800467e:	781b      	ldrb	r3, [r3, #0]
 8004680:	2b00      	cmp	r3, #0
 8004682:	d001      	beq.n	8004688 <pHMeter_process+0x18>
		idlePage();
 8004684:	f000 f8d8 	bl	8004838 <idlePage>

	// Get a new pH value
	pH_read();
 8004688:	f000 f82e 	bl	80046e8 <pH_read>

    // New pH status evaluation
	pHStatus_update();
 800468c:	f000 faa0 	bl	8004bd0 <pHStatus_update>

	// New process status evaluation
	pageChanged = processStatus_update();
 8004690:	1dfc      	adds	r4, r7, #7
 8004692:	f000 fa61 	bl	8004b58 <processStatus_update>
 8004696:	0003      	movs	r3, r0
 8004698:	7023      	strb	r3, [r4, #0]

	switch(process_status)
 800469a:	4b11      	ldr	r3, [pc, #68]	; (80046e0 <pHMeter_process+0x70>)
 800469c:	781b      	ldrb	r3, [r3, #0]
 800469e:	2b02      	cmp	r3, #2
 80046a0:	d005      	beq.n	80046ae <pHMeter_process+0x3e>
	{

		default:
		case MAIN_PROCESS:

			mainPage(pageChanged);
 80046a2:	1dfb      	adds	r3, r7, #7
 80046a4:	781b      	ldrb	r3, [r3, #0]
 80046a6:	0018      	movs	r0, r3
 80046a8:	f000 f93e 	bl	8004928 <mainPage>

			break;
 80046ac:	e005      	b.n	80046ba <pHMeter_process+0x4a>

		case CIRCUIT_CALIBRATION:

			//circuitCalibPage(pageChanged);
			softwareCalibPage(pageChanged);
 80046ae:	1dfb      	adds	r3, r7, #7
 80046b0:	781b      	ldrb	r3, [r3, #0]
 80046b2:	0018      	movs	r0, r3
 80046b4:	f000 f9c6 	bl	8004a44 <softwareCalibPage>

			break;
 80046b8:	46c0      	nop			; (mov r8, r8)

	}


	if(first == 1)
 80046ba:	4b08      	ldr	r3, [pc, #32]	; (80046dc <pHMeter_process+0x6c>)
 80046bc:	781b      	ldrb	r3, [r3, #0]
 80046be:	2b01      	cmp	r3, #1
 80046c0:	d102      	bne.n	80046c8 <pHMeter_process+0x58>
		first = 0;
 80046c2:	4b06      	ldr	r3, [pc, #24]	; (80046dc <pHMeter_process+0x6c>)
 80046c4:	2200      	movs	r2, #0
 80046c6:	701a      	strb	r2, [r3, #0]

	joysticHandler(elements);
 80046c8:	4b06      	ldr	r3, [pc, #24]	; (80046e4 <pHMeter_process+0x74>)
 80046ca:	681b      	ldr	r3, [r3, #0]
 80046cc:	0018      	movs	r0, r3
 80046ce:	f000 f9cd 	bl	8004a6c <joysticHandler>

}
 80046d2:	46c0      	nop			; (mov r8, r8)
 80046d4:	46bd      	mov	sp, r7
 80046d6:	b003      	add	sp, #12
 80046d8:	bd90      	pop	{r4, r7, pc}
 80046da:	46c0      	nop			; (mov r8, r8)
 80046dc:	20000018 	.word	0x20000018
 80046e0:	20000020 	.word	0x20000020
 80046e4:	20000100 	.word	0x20000100

080046e8 <pH_read>:
 *  @ Function; pH_read()
 *  @ Description; read a new pH value from the probe
 *  @ every PH_PROCESS_DELAY seconds
 */
void pH_read(void)
{
 80046e8:	b5f0      	push	{r4, r5, r6, r7, lr}
 80046ea:	b085      	sub	sp, #20
 80046ec:	af00      	add	r7, sp, #0

	uint32_t rawAdcData;
	float rawAdcmV;
	float pHValue = 0.0;
 80046ee:	2300      	movs	r3, #0
 80046f0:	60fb      	str	r3, [r7, #12]

	static float buff[6] = {0};
	static uint32_t count = 0;

	if(getDelayMs(pHTimeStamp) < PH_PROCESS_DELAY)
 80046f2:	4b46      	ldr	r3, [pc, #280]	; (800480c <pH_read+0x124>)
 80046f4:	681b      	ldr	r3, [r3, #0]
 80046f6:	0018      	movs	r0, r3
 80046f8:	f000 fd74 	bl	80051e4 <getDelayMs>
 80046fc:	0002      	movs	r2, r0
 80046fe:	23fa      	movs	r3, #250	; 0xfa
 8004700:	009b      	lsls	r3, r3, #2
 8004702:	429a      	cmp	r2, r3
 8004704:	d200      	bcs.n	8004708 <pH_read+0x20>
 8004706:	e07c      	b.n	8004802 <pH_read+0x11a>
		return;

	pHTimeStamp = getTimeMs();
 8004708:	f000 fd60 	bl	80051cc <getTimeMs>
 800470c:	0002      	movs	r2, r0
 800470e:	4b3f      	ldr	r3, [pc, #252]	; (800480c <pH_read+0x124>)
 8004710:	601a      	str	r2, [r3, #0]

	rawAdcData = HAL_ADC_GetValue(&hadc);
 8004712:	4b3f      	ldr	r3, [pc, #252]	; (8004810 <pH_read+0x128>)
 8004714:	0018      	movs	r0, r3
 8004716:	f001 f8af 	bl	8005878 <HAL_ADC_GetValue>
 800471a:	0003      	movs	r3, r0
 800471c:	607b      	str	r3, [r7, #4]

	rawAdcmV = ( rawAdcData * ( 3.3 / 4096.0 ) );
 800471e:	6878      	ldr	r0, [r7, #4]
 8004720:	f7fd fed4 	bl	80024cc <__aeabi_ui2d>
 8004724:	4a3b      	ldr	r2, [pc, #236]	; (8004814 <pH_read+0x12c>)
 8004726:	4b3c      	ldr	r3, [pc, #240]	; (8004818 <pH_read+0x130>)
 8004728:	f7fd f88c 	bl	8001844 <__aeabi_dmul>
 800472c:	0002      	movs	r2, r0
 800472e:	000b      	movs	r3, r1
 8004730:	0010      	movs	r0, r2
 8004732:	0019      	movs	r1, r3
 8004734:	f7fd ff38 	bl	80025a8 <__aeabi_d2f>
 8004738:	1c03      	adds	r3, r0, #0
 800473a:	603b      	str	r3, [r7, #0]

	buff[count%6] = ( ( PH_V_SLOPE * ( rawAdcmV - V_OFFSET ) ) + PH_OFFSET );
 800473c:	6838      	ldr	r0, [r7, #0]
 800473e:	f7fd feeb 	bl	8002518 <__aeabi_f2d>
 8004742:	2200      	movs	r2, #0
 8004744:	4b35      	ldr	r3, [pc, #212]	; (800481c <pH_read+0x134>)
 8004746:	f7fd fb3f 	bl	8001dc8 <__aeabi_dsub>
 800474a:	0002      	movs	r2, r0
 800474c:	000b      	movs	r3, r1
 800474e:	0010      	movs	r0, r2
 8004750:	0019      	movs	r1, r3
 8004752:	2200      	movs	r2, #0
 8004754:	4b32      	ldr	r3, [pc, #200]	; (8004820 <pH_read+0x138>)
 8004756:	f7fd f875 	bl	8001844 <__aeabi_dmul>
 800475a:	0002      	movs	r2, r0
 800475c:	000b      	movs	r3, r1
 800475e:	0010      	movs	r0, r2
 8004760:	0019      	movs	r1, r3
 8004762:	2200      	movs	r2, #0
 8004764:	4b2f      	ldr	r3, [pc, #188]	; (8004824 <pH_read+0x13c>)
 8004766:	f7fc fd0d 	bl	8001184 <__aeabi_dadd>
 800476a:	0002      	movs	r2, r0
 800476c:	000b      	movs	r3, r1
 800476e:	0014      	movs	r4, r2
 8004770:	001d      	movs	r5, r3
 8004772:	4b2d      	ldr	r3, [pc, #180]	; (8004828 <pH_read+0x140>)
 8004774:	681b      	ldr	r3, [r3, #0]
 8004776:	2106      	movs	r1, #6
 8004778:	0018      	movs	r0, r3
 800477a:	f7fb fd49 	bl	8000210 <__aeabi_uidivmod>
 800477e:	000b      	movs	r3, r1
 8004780:	001e      	movs	r6, r3
 8004782:	0020      	movs	r0, r4
 8004784:	0029      	movs	r1, r5
 8004786:	f7fd ff0f 	bl	80025a8 <__aeabi_d2f>
 800478a:	1c01      	adds	r1, r0, #0
 800478c:	4b27      	ldr	r3, [pc, #156]	; (800482c <pH_read+0x144>)
 800478e:	00b2      	lsls	r2, r6, #2
 8004790:	50d1      	str	r1, [r2, r3]

	pHValue = buff[count%6];
 8004792:	4b25      	ldr	r3, [pc, #148]	; (8004828 <pH_read+0x140>)
 8004794:	681b      	ldr	r3, [r3, #0]
 8004796:	2106      	movs	r1, #6
 8004798:	0018      	movs	r0, r3
 800479a:	f7fb fd39 	bl	8000210 <__aeabi_uidivmod>
 800479e:	000b      	movs	r3, r1
 80047a0:	001a      	movs	r2, r3
 80047a2:	4b22      	ldr	r3, [pc, #136]	; (800482c <pH_read+0x144>)
 80047a4:	0092      	lsls	r2, r2, #2
 80047a6:	58d3      	ldr	r3, [r2, r3]
 80047a8:	60fb      	str	r3, [r7, #12]

	count++;
 80047aa:	4b1f      	ldr	r3, [pc, #124]	; (8004828 <pH_read+0x140>)
 80047ac:	681b      	ldr	r3, [r3, #0]
 80047ae:	1c5a      	adds	r2, r3, #1
 80047b0:	4b1d      	ldr	r3, [pc, #116]	; (8004828 <pH_read+0x140>)
 80047b2:	601a      	str	r2, [r3, #0]

	if(count >= 6)
 80047b4:	4b1c      	ldr	r3, [pc, #112]	; (8004828 <pH_read+0x140>)
 80047b6:	681b      	ldr	r3, [r3, #0]
 80047b8:	2b05      	cmp	r3, #5
 80047ba:	d91a      	bls.n	80047f2 <pH_read+0x10a>
	{

		pHValue = 0.0;
 80047bc:	2300      	movs	r3, #0
 80047be:	60fb      	str	r3, [r7, #12]
		for(int i = 0 ; i < 6 ; i++)
 80047c0:	2300      	movs	r3, #0
 80047c2:	60bb      	str	r3, [r7, #8]
 80047c4:	e00c      	b.n	80047e0 <pH_read+0xf8>
			pHValue += buff[i];
 80047c6:	4b19      	ldr	r3, [pc, #100]	; (800482c <pH_read+0x144>)
 80047c8:	68ba      	ldr	r2, [r7, #8]
 80047ca:	0092      	lsls	r2, r2, #2
 80047cc:	58d3      	ldr	r3, [r2, r3]
 80047ce:	1c19      	adds	r1, r3, #0
 80047d0:	68f8      	ldr	r0, [r7, #12]
 80047d2:	f7fb fe5f 	bl	8000494 <__aeabi_fadd>
 80047d6:	1c03      	adds	r3, r0, #0
 80047d8:	60fb      	str	r3, [r7, #12]
		for(int i = 0 ; i < 6 ; i++)
 80047da:	68bb      	ldr	r3, [r7, #8]
 80047dc:	3301      	adds	r3, #1
 80047de:	60bb      	str	r3, [r7, #8]
 80047e0:	68bb      	ldr	r3, [r7, #8]
 80047e2:	2b05      	cmp	r3, #5
 80047e4:	ddef      	ble.n	80047c6 <pH_read+0xde>

		pHValue = ( pHValue / 6.0 );
 80047e6:	4912      	ldr	r1, [pc, #72]	; (8004830 <pH_read+0x148>)
 80047e8:	68f8      	ldr	r0, [r7, #12]
 80047ea:	f7fb fff3 	bl	80007d4 <__aeabi_fdiv>
 80047ee:	1c03      	adds	r3, r0, #0
 80047f0:	60fb      	str	r3, [r7, #12]

	}

	pH_current = pHValue;
 80047f2:	4b10      	ldr	r3, [pc, #64]	; (8004834 <pH_read+0x14c>)
 80047f4:	68fa      	ldr	r2, [r7, #12]
 80047f6:	601a      	str	r2, [r3, #0]

	HAL_ADC_Start(&hadc);
 80047f8:	4b05      	ldr	r3, [pc, #20]	; (8004810 <pH_read+0x128>)
 80047fa:	0018      	movs	r0, r3
 80047fc:	f000 ffe8 	bl	80057d0 <HAL_ADC_Start>
 8004800:	e000      	b.n	8004804 <pH_read+0x11c>
		return;
 8004802:	46c0      	nop			; (mov r8, r8)

}
 8004804:	46bd      	mov	sp, r7
 8004806:	b005      	add	sp, #20
 8004808:	bdf0      	pop	{r4, r5, r6, r7, pc}
 800480a:	46c0      	nop			; (mov r8, r8)
 800480c:	20000168 	.word	0x20000168
 8004810:	20000058 	.word	0x20000058
 8004814:	66666666 	.word	0x66666666
 8004818:	3f4a6666 	.word	0x3f4a6666
 800481c:	3ff40000 	.word	0x3ff40000
 8004820:	c02e0000 	.word	0xc02e0000
 8004824:	401c0000 	.word	0x401c0000
 8004828:	2000016c 	.word	0x2000016c
 800482c:	20000170 	.word	0x20000170
 8004830:	40c00000 	.word	0x40c00000
 8004834:	2000001c 	.word	0x2000001c

08004838 <idlePage>:
/*
 * 	@ Function: st7735_hallScreen
 * 	@ Description: Presentation screen
 */
void idlePage(void)
{
 8004838:	b580      	push	{r7, lr}
 800483a:	b084      	sub	sp, #16
 800483c:	af04      	add	r7, sp, #16

	  ST7735_SetRotation(1);
 800483e:	2001      	movs	r0, #1
 8004840:	f7ff f984 	bl	8003b4c <ST7735_SetRotation>
	  ST7735_WriteString(0, 0, "UnNatural presents", Font_7x10, WHITE,BLACK);
 8004844:	4b31      	ldr	r3, [pc, #196]	; (800490c <idlePage+0xd4>)
 8004846:	4832      	ldr	r0, [pc, #200]	; (8004910 <idlePage+0xd8>)
 8004848:	2200      	movs	r2, #0
 800484a:	9202      	str	r2, [sp, #8]
 800484c:	4a31      	ldr	r2, [pc, #196]	; (8004914 <idlePage+0xdc>)
 800484e:	9201      	str	r2, [sp, #4]
 8004850:	466a      	mov	r2, sp
 8004852:	6859      	ldr	r1, [r3, #4]
 8004854:	6011      	str	r1, [r2, #0]
 8004856:	681b      	ldr	r3, [r3, #0]
 8004858:	0002      	movs	r2, r0
 800485a:	2100      	movs	r1, #0
 800485c:	2000      	movs	r0, #0
 800485e:	f7ff fae9 	bl	8003e34 <ST7735_WriteString>
	  HAL_Delay(1000);
 8004862:	23fa      	movs	r3, #250	; 0xfa
 8004864:	009b      	lsls	r3, r3, #2
 8004866:	0018      	movs	r0, r3
 8004868:	f000 fe4e 	bl	8005508 <HAL_Delay>
	  fillScreen(BLACK);
 800486c:	2000      	movs	r0, #0
 800486e:	f7fe fff9 	bl	8003864 <fillScreen>

	  ST7735_SetRotation(1);
 8004872:	2001      	movs	r0, #1
 8004874:	f7ff f96a 	bl	8003b4c <ST7735_SetRotation>
	  ST7735_WriteString(20, 50, "pH-METER V0", Font_11x18, GREEN,BLACK);
 8004878:	4b27      	ldr	r3, [pc, #156]	; (8004918 <idlePage+0xe0>)
 800487a:	4828      	ldr	r0, [pc, #160]	; (800491c <idlePage+0xe4>)
 800487c:	2200      	movs	r2, #0
 800487e:	9202      	str	r2, [sp, #8]
 8004880:	22fc      	movs	r2, #252	; 0xfc
 8004882:	00d2      	lsls	r2, r2, #3
 8004884:	9201      	str	r2, [sp, #4]
 8004886:	466a      	mov	r2, sp
 8004888:	6859      	ldr	r1, [r3, #4]
 800488a:	6011      	str	r1, [r2, #0]
 800488c:	681b      	ldr	r3, [r3, #0]
 800488e:	0002      	movs	r2, r0
 8004890:	2132      	movs	r1, #50	; 0x32
 8004892:	2014      	movs	r0, #20
 8004894:	f7ff face 	bl	8003e34 <ST7735_WriteString>
	  HAL_Delay(1000);
 8004898:	23fa      	movs	r3, #250	; 0xfa
 800489a:	009b      	lsls	r3, r3, #2
 800489c:	0018      	movs	r0, r3
 800489e:	f000 fe33 	bl	8005508 <HAL_Delay>
	  fillScreen(BLACK);
 80048a2:	2000      	movs	r0, #0
 80048a4:	f7fe ffde 	bl	8003864 <fillScreen>

	  ST7735_SetRotation(1);
 80048a8:	2001      	movs	r0, #1
 80048aa:	f7ff f94f 	bl	8003b4c <ST7735_SetRotation>
	  ST7735_WriteString(0, 0, "A product developed by", Font_7x10, WHITE,BLACK);
 80048ae:	4b17      	ldr	r3, [pc, #92]	; (800490c <idlePage+0xd4>)
 80048b0:	481b      	ldr	r0, [pc, #108]	; (8004920 <idlePage+0xe8>)
 80048b2:	2200      	movs	r2, #0
 80048b4:	9202      	str	r2, [sp, #8]
 80048b6:	4a17      	ldr	r2, [pc, #92]	; (8004914 <idlePage+0xdc>)
 80048b8:	9201      	str	r2, [sp, #4]
 80048ba:	466a      	mov	r2, sp
 80048bc:	6859      	ldr	r1, [r3, #4]
 80048be:	6011      	str	r1, [r2, #0]
 80048c0:	681b      	ldr	r3, [r3, #0]
 80048c2:	0002      	movs	r2, r0
 80048c4:	2100      	movs	r1, #0
 80048c6:	2000      	movs	r0, #0
 80048c8:	f7ff fab4 	bl	8003e34 <ST7735_WriteString>
	  HAL_Delay(1000);
 80048cc:	23fa      	movs	r3, #250	; 0xfa
 80048ce:	009b      	lsls	r3, r3, #2
 80048d0:	0018      	movs	r0, r3
 80048d2:	f000 fe19 	bl	8005508 <HAL_Delay>
	  ST7735_WriteString(20, 50, "Eng. Andrea", Font_11x18, GREEN,BLACK);
 80048d6:	4b10      	ldr	r3, [pc, #64]	; (8004918 <idlePage+0xe0>)
 80048d8:	4812      	ldr	r0, [pc, #72]	; (8004924 <idlePage+0xec>)
 80048da:	2200      	movs	r2, #0
 80048dc:	9202      	str	r2, [sp, #8]
 80048de:	22fc      	movs	r2, #252	; 0xfc
 80048e0:	00d2      	lsls	r2, r2, #3
 80048e2:	9201      	str	r2, [sp, #4]
 80048e4:	466a      	mov	r2, sp
 80048e6:	6859      	ldr	r1, [r3, #4]
 80048e8:	6011      	str	r1, [r2, #0]
 80048ea:	681b      	ldr	r3, [r3, #0]
 80048ec:	0002      	movs	r2, r0
 80048ee:	2132      	movs	r1, #50	; 0x32
 80048f0:	2014      	movs	r0, #20
 80048f2:	f7ff fa9f 	bl	8003e34 <ST7735_WriteString>
	  HAL_Delay(1000);
 80048f6:	23fa      	movs	r3, #250	; 0xfa
 80048f8:	009b      	lsls	r3, r3, #2
 80048fa:	0018      	movs	r0, r3
 80048fc:	f000 fe04 	bl	8005508 <HAL_Delay>
	  fillScreen(BLACK);
 8004900:	2000      	movs	r0, #0
 8004902:	f7fe ffaf 	bl	8003864 <fillScreen>

}
 8004906:	46c0      	nop			; (mov r8, r8)
 8004908:	46bd      	mov	sp, r7
 800490a:	bd80      	pop	{r7, pc}
 800490c:	20000000 	.word	0x20000000
 8004910:	08007054 	.word	0x08007054
 8004914:	0000ffff 	.word	0x0000ffff
 8004918:	20000008 	.word	0x20000008
 800491c:	08007068 	.word	0x08007068
 8004920:	08007074 	.word	0x08007074
 8004924:	0800708c 	.word	0x0800708c

08004928 <mainPage>:
 *  @ Function; mainPage
 *  @ Description; This is the main page where the current
 *  @ value of pH is shown
 */
void mainPage(uint8_t updatePage)
{
 8004928:	b590      	push	{r4, r7, lr}
 800492a:	b089      	sub	sp, #36	; 0x24
 800492c:	af04      	add	r7, sp, #16
 800492e:	0002      	movs	r2, r0
 8004930:	1dfb      	adds	r3, r7, #7
 8004932:	701a      	strb	r2, [r3, #0]

	static PH_STATUS main_pH_status = IDLE;
	static uint16_t mainColor = GREEN;


	if( ( updatePage == 1 ) || ( pH_status != main_pH_status ) )
 8004934:	1dfb      	adds	r3, r7, #7
 8004936:	781b      	ldrb	r3, [r3, #0]
 8004938:	2b01      	cmp	r3, #1
 800493a:	d005      	beq.n	8004948 <mainPage+0x20>
 800493c:	4b39      	ldr	r3, [pc, #228]	; (8004a24 <mainPage+0xfc>)
 800493e:	781a      	ldrb	r2, [r3, #0]
 8004940:	4b39      	ldr	r3, [pc, #228]	; (8004a28 <mainPage+0x100>)
 8004942:	781b      	ldrb	r3, [r3, #0]
 8004944:	429a      	cmp	r2, r3
 8004946:	d04e      	beq.n	80049e6 <mainPage+0xbe>
	{

		switch(pH_status)
 8004948:	4b36      	ldr	r3, [pc, #216]	; (8004a24 <mainPage+0xfc>)
 800494a:	781b      	ldrb	r3, [r3, #0]
 800494c:	2b05      	cmp	r3, #5
 800494e:	d016      	beq.n	800497e <mainPage+0x56>
 8004950:	dc06      	bgt.n	8004960 <mainPage+0x38>
 8004952:	2b04      	cmp	r3, #4
 8004954:	d021      	beq.n	800499a <mainPage+0x72>
 8004956:	dc03      	bgt.n	8004960 <mainPage+0x38>
 8004958:	2b01      	cmp	r3, #1
 800495a:	d038      	beq.n	80049ce <mainPage+0xa6>
 800495c:	2b02      	cmp	r3, #2
 800495e:	d02a      	beq.n	80049b6 <mainPage+0x8e>
		{

			default:
			case NEUTRAL:

				main_pH_status = NEUTRAL;
 8004960:	4b31      	ldr	r3, [pc, #196]	; (8004a28 <mainPage+0x100>)
 8004962:	2203      	movs	r2, #3
 8004964:	701a      	strb	r2, [r3, #0]

				fillScreen(GREEN);
 8004966:	23fc      	movs	r3, #252	; 0xfc
 8004968:	00db      	lsls	r3, r3, #3
 800496a:	0018      	movs	r0, r3
 800496c:	f7fe ff7a 	bl	8003864 <fillScreen>
				mainPage_graphics();
 8004970:	f000 f984 	bl	8004c7c <mainPage_graphics>

				mainColor = GREEN;
 8004974:	4b2d      	ldr	r3, [pc, #180]	; (8004a2c <mainPage+0x104>)
 8004976:	22fc      	movs	r2, #252	; 0xfc
 8004978:	00d2      	lsls	r2, r2, #3
 800497a:	801a      	strh	r2, [r3, #0]

				break;
 800497c:	e033      	b.n	80049e6 <mainPage+0xbe>

			case STRONG_ACID:

				main_pH_status = STRONG_ACID;
 800497e:	4b2a      	ldr	r3, [pc, #168]	; (8004a28 <mainPage+0x100>)
 8004980:	2205      	movs	r2, #5
 8004982:	701a      	strb	r2, [r3, #0]

				fillScreen(RED);
 8004984:	23f8      	movs	r3, #248	; 0xf8
 8004986:	021b      	lsls	r3, r3, #8
 8004988:	0018      	movs	r0, r3
 800498a:	f7fe ff6b 	bl	8003864 <fillScreen>
				mainPage_graphics();
 800498e:	f000 f975 	bl	8004c7c <mainPage_graphics>

				mainColor = RED;
 8004992:	4b26      	ldr	r3, [pc, #152]	; (8004a2c <mainPage+0x104>)
 8004994:	4a26      	ldr	r2, [pc, #152]	; (8004a30 <mainPage+0x108>)
 8004996:	801a      	strh	r2, [r3, #0]

				break;
 8004998:	e025      	b.n	80049e6 <mainPage+0xbe>

			case ACID:

				main_pH_status = ACID;
 800499a:	4b23      	ldr	r3, [pc, #140]	; (8004a28 <mainPage+0x100>)
 800499c:	2204      	movs	r2, #4
 800499e:	701a      	strb	r2, [r3, #0]

				fillScreen(YELLOW);
 80049a0:	4b24      	ldr	r3, [pc, #144]	; (8004a34 <mainPage+0x10c>)
 80049a2:	0018      	movs	r0, r3
 80049a4:	f7fe ff5e 	bl	8003864 <fillScreen>
				mainPage_graphics();
 80049a8:	f000 f968 	bl	8004c7c <mainPage_graphics>

				mainColor = YELLOW;
 80049ac:	4b1f      	ldr	r3, [pc, #124]	; (8004a2c <mainPage+0x104>)
 80049ae:	2220      	movs	r2, #32
 80049b0:	4252      	negs	r2, r2
 80049b2:	801a      	strh	r2, [r3, #0]

				break;
 80049b4:	e017      	b.n	80049e6 <mainPage+0xbe>

			case BASE:

				main_pH_status = BASE;
 80049b6:	4b1c      	ldr	r3, [pc, #112]	; (8004a28 <mainPage+0x100>)
 80049b8:	2202      	movs	r2, #2
 80049ba:	701a      	strb	r2, [r3, #0]

				fillScreen(BLUE);
 80049bc:	20ff      	movs	r0, #255	; 0xff
 80049be:	f7fe ff51 	bl	8003864 <fillScreen>
				mainPage_graphics();
 80049c2:	f000 f95b 	bl	8004c7c <mainPage_graphics>

				mainColor = BLUE;
 80049c6:	4b19      	ldr	r3, [pc, #100]	; (8004a2c <mainPage+0x104>)
 80049c8:	22ff      	movs	r2, #255	; 0xff
 80049ca:	801a      	strh	r2, [r3, #0]

				break;
 80049cc:	e00b      	b.n	80049e6 <mainPage+0xbe>

			case STRONG_BASE:

				main_pH_status = STRONG_BASE;
 80049ce:	4b16      	ldr	r3, [pc, #88]	; (8004a28 <mainPage+0x100>)
 80049d0:	2201      	movs	r2, #1
 80049d2:	701a      	strb	r2, [r3, #0]

				fillScreen(DARK_BLUE);
 80049d4:	201f      	movs	r0, #31
 80049d6:	f7fe ff45 	bl	8003864 <fillScreen>
				mainPage_graphics();
 80049da:	f000 f94f 	bl	8004c7c <mainPage_graphics>

				mainColor = DARK_BLUE;
 80049de:	4b13      	ldr	r3, [pc, #76]	; (8004a2c <mainPage+0x104>)
 80049e0:	221f      	movs	r2, #31
 80049e2:	801a      	strh	r2, [r3, #0]

				break;
 80049e4:	46c0      	nop			; (mov r8, r8)

	}

	char pHstring[6];

	floatToString(pH_current, pHstring);
 80049e6:	4b14      	ldr	r3, [pc, #80]	; (8004a38 <mainPage+0x110>)
 80049e8:	681b      	ldr	r3, [r3, #0]
 80049ea:	2408      	movs	r4, #8
 80049ec:	193a      	adds	r2, r7, r4
 80049ee:	0011      	movs	r1, r2
 80049f0:	1c18      	adds	r0, r3, #0
 80049f2:	f000 fc15 	bl	8005220 <floatToString>

	ST7735_SetRotation(1);
 80049f6:	2001      	movs	r0, #1
 80049f8:	f7ff f8a8 	bl	8003b4c <ST7735_SetRotation>
	ST7735_WriteString(40, 50, pHstring, Font_16x26, WHITE, mainColor);
 80049fc:	4b0b      	ldr	r3, [pc, #44]	; (8004a2c <mainPage+0x104>)
 80049fe:	881a      	ldrh	r2, [r3, #0]
 8004a00:	4b0e      	ldr	r3, [pc, #56]	; (8004a3c <mainPage+0x114>)
 8004a02:	1938      	adds	r0, r7, r4
 8004a04:	9202      	str	r2, [sp, #8]
 8004a06:	4a0e      	ldr	r2, [pc, #56]	; (8004a40 <mainPage+0x118>)
 8004a08:	9201      	str	r2, [sp, #4]
 8004a0a:	466a      	mov	r2, sp
 8004a0c:	6859      	ldr	r1, [r3, #4]
 8004a0e:	6011      	str	r1, [r2, #0]
 8004a10:	681b      	ldr	r3, [r3, #0]
 8004a12:	0002      	movs	r2, r0
 8004a14:	2132      	movs	r1, #50	; 0x32
 8004a16:	2028      	movs	r0, #40	; 0x28
 8004a18:	f7ff fa0c 	bl	8003e34 <ST7735_WriteString>

}
 8004a1c:	46c0      	nop			; (mov r8, r8)
 8004a1e:	46bd      	mov	sp, r7
 8004a20:	b005      	add	sp, #20
 8004a22:	bd90      	pop	{r4, r7, pc}
 8004a24:	20000021 	.word	0x20000021
 8004a28:	20000188 	.word	0x20000188
 8004a2c:	20000022 	.word	0x20000022
 8004a30:	fffff800 	.word	0xfffff800
 8004a34:	0000ffe0 	.word	0x0000ffe0
 8004a38:	2000001c 	.word	0x2000001c
 8004a3c:	20000010 	.word	0x20000010
 8004a40:	0000ffff 	.word	0x0000ffff

08004a44 <softwareCalibPage>:
 *  @ Description; user reach this page from
 *  @ the main page. Here it is performed the
 *  @ two points probe calibration
 */
void softwareCalibPage(uint8_t updatePage)
{
 8004a44:	b580      	push	{r7, lr}
 8004a46:	b082      	sub	sp, #8
 8004a48:	af00      	add	r7, sp, #0
 8004a4a:	0002      	movs	r2, r0
 8004a4c:	1dfb      	adds	r3, r7, #7
 8004a4e:	701a      	strb	r2, [r3, #0]


	if(updatePage == 1)
 8004a50:	1dfb      	adds	r3, r7, #7
 8004a52:	781b      	ldrb	r3, [r3, #0]
 8004a54:	2b01      	cmp	r3, #1
 8004a56:	d105      	bne.n	8004a64 <softwareCalibPage+0x20>
	{

		fillScreen(BLACK);
 8004a58:	2000      	movs	r0, #0
 8004a5a:	f7fe ff03 	bl	8003864 <fillScreen>
		softwareCalibPage_graphics();
 8004a5e:	f000 f91b 	bl	8004c98 <softwareCalibPage_graphics>

		return;
 8004a62:	46c0      	nop			; (mov r8, r8)

	}

}
 8004a64:	46bd      	mov	sp, r7
 8004a66:	b002      	add	sp, #8
 8004a68:	bd80      	pop	{r7, pc}
	...

08004a6c <joysticHandler>:


/**************** PRIVATE FUNCTIONS ******************/

static uint8_t joysticHandler(ELEMENT *element)
{
 8004a6c:	b580      	push	{r7, lr}
 8004a6e:	b082      	sub	sp, #8
 8004a70:	af00      	add	r7, sp, #0
 8004a72:	6078      	str	r0, [r7, #4]

	static uint8_t joystick_old = REST;


	if(HAL_GPIO_ReadPin(UP_GPIO_Port, UP_Pin))
 8004a74:	2380      	movs	r3, #128	; 0x80
 8004a76:	019b      	lsls	r3, r3, #6
 8004a78:	4a34      	ldr	r2, [pc, #208]	; (8004b4c <joysticHandler+0xe0>)
 8004a7a:	0019      	movs	r1, r3
 8004a7c:	0010      	movs	r0, r2
 8004a7e:	f001 faa5 	bl	8005fcc <HAL_GPIO_ReadPin>
 8004a82:	1e03      	subs	r3, r0, #0
 8004a84:	d003      	beq.n	8004a8e <joysticHandler+0x22>
		joystick = UP;
 8004a86:	4b32      	ldr	r3, [pc, #200]	; (8004b50 <joysticHandler+0xe4>)
 8004a88:	2201      	movs	r2, #1
 8004a8a:	701a      	strb	r2, [r3, #0]
 8004a8c:	e034      	b.n	8004af8 <joysticHandler+0x8c>
	else if(HAL_GPIO_ReadPin(DOWN_GPIO_Port, DOWN_Pin))
 8004a8e:	2380      	movs	r3, #128	; 0x80
 8004a90:	01db      	lsls	r3, r3, #7
 8004a92:	4a2e      	ldr	r2, [pc, #184]	; (8004b4c <joysticHandler+0xe0>)
 8004a94:	0019      	movs	r1, r3
 8004a96:	0010      	movs	r0, r2
 8004a98:	f001 fa98 	bl	8005fcc <HAL_GPIO_ReadPin>
 8004a9c:	1e03      	subs	r3, r0, #0
 8004a9e:	d003      	beq.n	8004aa8 <joysticHandler+0x3c>
		joystick = DOWN;
 8004aa0:	4b2b      	ldr	r3, [pc, #172]	; (8004b50 <joysticHandler+0xe4>)
 8004aa2:	2202      	movs	r2, #2
 8004aa4:	701a      	strb	r2, [r3, #0]
 8004aa6:	e027      	b.n	8004af8 <joysticHandler+0x8c>
	else if(HAL_GPIO_ReadPin(LEFT_GPIO_Port, LEFT_Pin))
 8004aa8:	2390      	movs	r3, #144	; 0x90
 8004aaa:	05db      	lsls	r3, r3, #23
 8004aac:	2101      	movs	r1, #1
 8004aae:	0018      	movs	r0, r3
 8004ab0:	f001 fa8c 	bl	8005fcc <HAL_GPIO_ReadPin>
 8004ab4:	1e03      	subs	r3, r0, #0
 8004ab6:	d003      	beq.n	8004ac0 <joysticHandler+0x54>
		joystick = LEFT;
 8004ab8:	4b25      	ldr	r3, [pc, #148]	; (8004b50 <joysticHandler+0xe4>)
 8004aba:	2203      	movs	r2, #3
 8004abc:	701a      	strb	r2, [r3, #0]
 8004abe:	e01b      	b.n	8004af8 <joysticHandler+0x8c>
	else if(HAL_GPIO_ReadPin(RIGHT_GPIO_Port, RIGHT))
 8004ac0:	2390      	movs	r3, #144	; 0x90
 8004ac2:	05db      	lsls	r3, r3, #23
 8004ac4:	2104      	movs	r1, #4
 8004ac6:	0018      	movs	r0, r3
 8004ac8:	f001 fa80 	bl	8005fcc <HAL_GPIO_ReadPin>
 8004acc:	1e03      	subs	r3, r0, #0
 8004ace:	d003      	beq.n	8004ad8 <joysticHandler+0x6c>
		joystick = RIGHT;
 8004ad0:	4b1f      	ldr	r3, [pc, #124]	; (8004b50 <joysticHandler+0xe4>)
 8004ad2:	2204      	movs	r2, #4
 8004ad4:	701a      	strb	r2, [r3, #0]
 8004ad6:	e00f      	b.n	8004af8 <joysticHandler+0x8c>
	else if(HAL_GPIO_ReadPin(SEL_GPIO_Port, SEL_Pin))
 8004ad8:	2380      	movs	r3, #128	; 0x80
 8004ada:	021b      	lsls	r3, r3, #8
 8004adc:	4a1b      	ldr	r2, [pc, #108]	; (8004b4c <joysticHandler+0xe0>)
 8004ade:	0019      	movs	r1, r3
 8004ae0:	0010      	movs	r0, r2
 8004ae2:	f001 fa73 	bl	8005fcc <HAL_GPIO_ReadPin>
 8004ae6:	1e03      	subs	r3, r0, #0
 8004ae8:	d003      	beq.n	8004af2 <joysticHandler+0x86>
		joystick = CENTER;
 8004aea:	4b19      	ldr	r3, [pc, #100]	; (8004b50 <joysticHandler+0xe4>)
 8004aec:	2205      	movs	r2, #5
 8004aee:	701a      	strb	r2, [r3, #0]
 8004af0:	e002      	b.n	8004af8 <joysticHandler+0x8c>
	else
		joystick = REST;
 8004af2:	4b17      	ldr	r3, [pc, #92]	; (8004b50 <joysticHandler+0xe4>)
 8004af4:	2200      	movs	r2, #0
 8004af6:	701a      	strb	r2, [r3, #0]

	if(( ( joystick == UP ) || ( joystick == RIGHT ) ) && ( joystick_old == REST ))
 8004af8:	4b15      	ldr	r3, [pc, #84]	; (8004b50 <joysticHandler+0xe4>)
 8004afa:	781b      	ldrb	r3, [r3, #0]
 8004afc:	2b01      	cmp	r3, #1
 8004afe:	d003      	beq.n	8004b08 <joysticHandler+0x9c>
 8004b00:	4b13      	ldr	r3, [pc, #76]	; (8004b50 <joysticHandler+0xe4>)
 8004b02:	781b      	ldrb	r3, [r3, #0]
 8004b04:	2b04      	cmp	r3, #4
 8004b06:	d11b      	bne.n	8004b40 <joysticHandler+0xd4>
 8004b08:	4b12      	ldr	r3, [pc, #72]	; (8004b54 <joysticHandler+0xe8>)
 8004b0a:	781b      	ldrb	r3, [r3, #0]
 8004b0c:	2b00      	cmp	r3, #0
 8004b0e:	d117      	bne.n	8004b40 <joysticHandler+0xd4>

	if(( ( joystick == DOWN ) || ( joystick == LEFT ) ) && ( joystick_old == REST ))
 8004b10:	4b0f      	ldr	r3, [pc, #60]	; (8004b50 <joysticHandler+0xe4>)
 8004b12:	781b      	ldrb	r3, [r3, #0]
 8004b14:	2b02      	cmp	r3, #2
 8004b16:	d003      	beq.n	8004b20 <joysticHandler+0xb4>
 8004b18:	4b0d      	ldr	r3, [pc, #52]	; (8004b50 <joysticHandler+0xe4>)
 8004b1a:	781b      	ldrb	r3, [r3, #0]
 8004b1c:	2b03      	cmp	r3, #3
 8004b1e:	d10f      	bne.n	8004b40 <joysticHandler+0xd4>
 8004b20:	4b0c      	ldr	r3, [pc, #48]	; (8004b54 <joysticHandler+0xe8>)
 8004b22:	781b      	ldrb	r3, [r3, #0]
 8004b24:	2b00      	cmp	r3, #0
 8004b26:	d10b      	bne.n	8004b40 <joysticHandler+0xd4>

	if(( joystick == CENTER ) && ( joystick_old == REST ))
 8004b28:	4b09      	ldr	r3, [pc, #36]	; (8004b50 <joysticHandler+0xe4>)
 8004b2a:	781b      	ldrb	r3, [r3, #0]
 8004b2c:	2b05      	cmp	r3, #5
 8004b2e:	d107      	bne.n	8004b40 <joysticHandler+0xd4>
 8004b30:	4b08      	ldr	r3, [pc, #32]	; (8004b54 <joysticHandler+0xe8>)
 8004b32:	781b      	ldrb	r3, [r3, #0]
 8004b34:	2b00      	cmp	r3, #0
 8004b36:	d103      	bne.n	8004b40 <joysticHandler+0xd4>


	joystick_old = joystick;
 8004b38:	4b05      	ldr	r3, [pc, #20]	; (8004b50 <joysticHandler+0xe4>)
 8004b3a:	781a      	ldrb	r2, [r3, #0]
 8004b3c:	4b05      	ldr	r3, [pc, #20]	; (8004b54 <joysticHandler+0xe8>)
 8004b3e:	701a      	strb	r2, [r3, #0]


	// Start element action

}
 8004b40:	46c0      	nop			; (mov r8, r8)
 8004b42:	0018      	movs	r0, r3
 8004b44:	46bd      	mov	sp, r7
 8004b46:	b002      	add	sp, #8
 8004b48:	bd80      	pop	{r7, pc}
 8004b4a:	46c0      	nop			; (mov r8, r8)
 8004b4c:	48000800 	.word	0x48000800
 8004b50:	200000fc 	.word	0x200000fc
 8004b54:	20000189 	.word	0x20000189

08004b58 <processStatus_update>:


static uint8_t processStatus_update(void)
{
 8004b58:	b580      	push	{r7, lr}
 8004b5a:	af00      	add	r7, sp, #0

	static PROCESS_STATUS local_process_status = IDLE_PROCESS;


	if(HAL_GPIO_ReadPin(OPAMP_CALIB_GPIO_Port, OPAMP_CALIB_Pin) == 0)
 8004b5c:	2380      	movs	r3, #128	; 0x80
 8004b5e:	015b      	lsls	r3, r3, #5
 8004b60:	4a15      	ldr	r2, [pc, #84]	; (8004bb8 <processStatus_update+0x60>)
 8004b62:	0019      	movs	r1, r3
 8004b64:	0010      	movs	r0, r2
 8004b66:	f001 fa31 	bl	8005fcc <HAL_GPIO_ReadPin>
 8004b6a:	1e03      	subs	r3, r0, #0
 8004b6c:	d103      	bne.n	8004b76 <processStatus_update+0x1e>
		process_status = CIRCUIT_CALIBRATION;
 8004b6e:	4b13      	ldr	r3, [pc, #76]	; (8004bbc <processStatus_update+0x64>)
 8004b70:	2202      	movs	r2, #2
 8004b72:	701a      	strb	r2, [r3, #0]
 8004b74:	e002      	b.n	8004b7c <processStatus_update+0x24>
	else
		process_status = MAIN_PROCESS;
 8004b76:	4b11      	ldr	r3, [pc, #68]	; (8004bbc <processStatus_update+0x64>)
 8004b78:	2201      	movs	r2, #1
 8004b7a:	701a      	strb	r2, [r3, #0]

	if(local_process_status != process_status)
 8004b7c:	4b10      	ldr	r3, [pc, #64]	; (8004bc0 <processStatus_update+0x68>)
 8004b7e:	781a      	ldrb	r2, [r3, #0]
 8004b80:	4b0e      	ldr	r3, [pc, #56]	; (8004bbc <processStatus_update+0x64>)
 8004b82:	781b      	ldrb	r3, [r3, #0]
 8004b84:	429a      	cmp	r2, r3
 8004b86:	d00f      	beq.n	8004ba8 <processStatus_update+0x50>
	{

		local_process_status = process_status;
 8004b88:	4b0c      	ldr	r3, [pc, #48]	; (8004bbc <processStatus_update+0x64>)
 8004b8a:	781a      	ldrb	r2, [r3, #0]
 8004b8c:	4b0c      	ldr	r3, [pc, #48]	; (8004bc0 <processStatus_update+0x68>)
 8004b8e:	701a      	strb	r2, [r3, #0]


		if(process_status == CIRCUIT_CALIBRATION)
 8004b90:	4b0a      	ldr	r3, [pc, #40]	; (8004bbc <processStatus_update+0x64>)
 8004b92:	781b      	ldrb	r3, [r3, #0]
 8004b94:	2b02      	cmp	r3, #2
 8004b96:	d105      	bne.n	8004ba4 <processStatus_update+0x4c>
		{

			elements = swCalibElement;
 8004b98:	4b0a      	ldr	r3, [pc, #40]	; (8004bc4 <processStatus_update+0x6c>)
 8004b9a:	4a0b      	ldr	r2, [pc, #44]	; (8004bc8 <processStatus_update+0x70>)
 8004b9c:	601a      	str	r2, [r3, #0]
			elementIndex = 0;
 8004b9e:	4b0b      	ldr	r3, [pc, #44]	; (8004bcc <processStatus_update+0x74>)
 8004ba0:	2200      	movs	r2, #0
 8004ba2:	701a      	strb	r2, [r3, #0]

		}

		return 1;
 8004ba4:	2301      	movs	r3, #1
 8004ba6:	e004      	b.n	8004bb2 <processStatus_update+0x5a>

	}
	else
	{

		local_process_status = process_status;
 8004ba8:	4b04      	ldr	r3, [pc, #16]	; (8004bbc <processStatus_update+0x64>)
 8004baa:	781a      	ldrb	r2, [r3, #0]
 8004bac:	4b04      	ldr	r3, [pc, #16]	; (8004bc0 <processStatus_update+0x68>)
 8004bae:	701a      	strb	r2, [r3, #0]
		return 0;
 8004bb0:	2300      	movs	r3, #0

	}

}
 8004bb2:	0018      	movs	r0, r3
 8004bb4:	46bd      	mov	sp, r7
 8004bb6:	bd80      	pop	{r7, pc}
 8004bb8:	48000400 	.word	0x48000400
 8004bbc:	20000020 	.word	0x20000020
 8004bc0:	2000018a 	.word	0x2000018a
 8004bc4:	20000100 	.word	0x20000100
 8004bc8:	20000104 	.word	0x20000104
 8004bcc:	20000164 	.word	0x20000164

08004bd0 <pHStatus_update>:


static void pHStatus_update(void)
{
 8004bd0:	b580      	push	{r7, lr}
 8004bd2:	af00      	add	r7, sp, #0

	if(pH_current >= STRONG_BASE_THR)
 8004bd4:	4b23      	ldr	r3, [pc, #140]	; (8004c64 <pHStatus_update+0x94>)
 8004bd6:	681b      	ldr	r3, [r3, #0]
 8004bd8:	4923      	ldr	r1, [pc, #140]	; (8004c68 <pHStatus_update+0x98>)
 8004bda:	1c18      	adds	r0, r3, #0
 8004bdc:	f7fb fc38 	bl	8000450 <__aeabi_fcmpge>
 8004be0:	1e03      	subs	r3, r0, #0
 8004be2:	d003      	beq.n	8004bec <pHStatus_update+0x1c>
		pH_status = STRONG_BASE;
 8004be4:	4b21      	ldr	r3, [pc, #132]	; (8004c6c <pHStatus_update+0x9c>)
 8004be6:	2201      	movs	r2, #1
 8004be8:	701a      	strb	r2, [r3, #0]
	else if(pH_current <= STRONG_ACID_THR)
		pH_status = STRONG_ACID;
	else
		pH_status = NEUTRAL;

}
 8004bea:	e037      	b.n	8004c5c <pHStatus_update+0x8c>
	else if(( pH_current > BASE_THR ) && ( pH_current < STRONG_BASE_THR ))
 8004bec:	4b1d      	ldr	r3, [pc, #116]	; (8004c64 <pHStatus_update+0x94>)
 8004bee:	681b      	ldr	r3, [r3, #0]
 8004bf0:	491f      	ldr	r1, [pc, #124]	; (8004c70 <pHStatus_update+0xa0>)
 8004bf2:	1c18      	adds	r0, r3, #0
 8004bf4:	f7fb fc22 	bl	800043c <__aeabi_fcmpgt>
 8004bf8:	1e03      	subs	r3, r0, #0
 8004bfa:	d00b      	beq.n	8004c14 <pHStatus_update+0x44>
 8004bfc:	4b19      	ldr	r3, [pc, #100]	; (8004c64 <pHStatus_update+0x94>)
 8004bfe:	681b      	ldr	r3, [r3, #0]
 8004c00:	4919      	ldr	r1, [pc, #100]	; (8004c68 <pHStatus_update+0x98>)
 8004c02:	1c18      	adds	r0, r3, #0
 8004c04:	f7fb fc06 	bl	8000414 <__aeabi_fcmplt>
 8004c08:	1e03      	subs	r3, r0, #0
 8004c0a:	d003      	beq.n	8004c14 <pHStatus_update+0x44>
		pH_status = BASE;
 8004c0c:	4b17      	ldr	r3, [pc, #92]	; (8004c6c <pHStatus_update+0x9c>)
 8004c0e:	2202      	movs	r2, #2
 8004c10:	701a      	strb	r2, [r3, #0]
 8004c12:	e023      	b.n	8004c5c <pHStatus_update+0x8c>
	else if(( pH_current > STRONG_ACID_THR ) && ( pH_current < ACID_THR ))
 8004c14:	4b13      	ldr	r3, [pc, #76]	; (8004c64 <pHStatus_update+0x94>)
 8004c16:	681b      	ldr	r3, [r3, #0]
 8004c18:	4916      	ldr	r1, [pc, #88]	; (8004c74 <pHStatus_update+0xa4>)
 8004c1a:	1c18      	adds	r0, r3, #0
 8004c1c:	f7fb fc0e 	bl	800043c <__aeabi_fcmpgt>
 8004c20:	1e03      	subs	r3, r0, #0
 8004c22:	d00b      	beq.n	8004c3c <pHStatus_update+0x6c>
 8004c24:	4b0f      	ldr	r3, [pc, #60]	; (8004c64 <pHStatus_update+0x94>)
 8004c26:	681b      	ldr	r3, [r3, #0]
 8004c28:	4913      	ldr	r1, [pc, #76]	; (8004c78 <pHStatus_update+0xa8>)
 8004c2a:	1c18      	adds	r0, r3, #0
 8004c2c:	f7fb fbf2 	bl	8000414 <__aeabi_fcmplt>
 8004c30:	1e03      	subs	r3, r0, #0
 8004c32:	d003      	beq.n	8004c3c <pHStatus_update+0x6c>
		pH_status = ACID;
 8004c34:	4b0d      	ldr	r3, [pc, #52]	; (8004c6c <pHStatus_update+0x9c>)
 8004c36:	2204      	movs	r2, #4
 8004c38:	701a      	strb	r2, [r3, #0]
 8004c3a:	e00f      	b.n	8004c5c <pHStatus_update+0x8c>
	else if(pH_current <= STRONG_ACID_THR)
 8004c3c:	4b09      	ldr	r3, [pc, #36]	; (8004c64 <pHStatus_update+0x94>)
 8004c3e:	681b      	ldr	r3, [r3, #0]
 8004c40:	490c      	ldr	r1, [pc, #48]	; (8004c74 <pHStatus_update+0xa4>)
 8004c42:	1c18      	adds	r0, r3, #0
 8004c44:	f7fb fbf0 	bl	8000428 <__aeabi_fcmple>
 8004c48:	1e03      	subs	r3, r0, #0
 8004c4a:	d003      	beq.n	8004c54 <pHStatus_update+0x84>
		pH_status = STRONG_ACID;
 8004c4c:	4b07      	ldr	r3, [pc, #28]	; (8004c6c <pHStatus_update+0x9c>)
 8004c4e:	2205      	movs	r2, #5
 8004c50:	701a      	strb	r2, [r3, #0]
}
 8004c52:	e003      	b.n	8004c5c <pHStatus_update+0x8c>
		pH_status = NEUTRAL;
 8004c54:	4b05      	ldr	r3, [pc, #20]	; (8004c6c <pHStatus_update+0x9c>)
 8004c56:	2203      	movs	r2, #3
 8004c58:	701a      	strb	r2, [r3, #0]
}
 8004c5a:	e7ff      	b.n	8004c5c <pHStatus_update+0x8c>
 8004c5c:	46c0      	nop			; (mov r8, r8)
 8004c5e:	46bd      	mov	sp, r7
 8004c60:	bd80      	pop	{r7, pc}
 8004c62:	46c0      	nop			; (mov r8, r8)
 8004c64:	2000001c 	.word	0x2000001c
 8004c68:	41280000 	.word	0x41280000
 8004c6c:	20000021 	.word	0x20000021
 8004c70:	41080000 	.word	0x41080000
 8004c74:	40600000 	.word	0x40600000
 8004c78:	40b00000 	.word	0x40b00000

08004c7c <mainPage_graphics>:


static void mainPage_graphics(void)
{
 8004c7c:	b580      	push	{r7, lr}
 8004c7e:	af00      	add	r7, sp, #0

	// 1. Title
	pageTitle_graphics("Current pH", MAIN_PAGE);
 8004c80:	4b04      	ldr	r3, [pc, #16]	; (8004c94 <mainPage_graphics+0x18>)
 8004c82:	210a      	movs	r1, #10
 8004c84:	0018      	movs	r0, r3
 8004c86:	f000 f87f 	bl	8004d88 <pageTitle_graphics>

	// 2. Color scale
	colorBar_graphics();
 8004c8a:	f000 f919 	bl	8004ec0 <colorBar_graphics>

}
 8004c8e:	46c0      	nop			; (mov r8, r8)
 8004c90:	46bd      	mov	sp, r7
 8004c92:	bd80      	pop	{r7, pc}
 8004c94:	08007098 	.word	0x08007098

08004c98 <softwareCalibPage_graphics>:

}


static void softwareCalibPage_graphics(void)
{
 8004c98:	b590      	push	{r4, r7, lr}
 8004c9a:	b08f      	sub	sp, #60	; 0x3c
 8004c9c:	af04      	add	r7, sp, #16

	// 1. Title
	pageTitle_graphics("SW calibration", SOFTWARE_CALIBRATION_PAGE);
 8004c9e:	4b31      	ldr	r3, [pc, #196]	; (8004d64 <softwareCalibPage_graphics+0xcc>)
 8004ca0:	211e      	movs	r1, #30
 8004ca2:	0018      	movs	r0, r3
 8004ca4:	f000 f870 	bl	8004d88 <pageTitle_graphics>

	// 2. Timer
	char sTimer[] = {'3', '0'};
 8004ca8:	2424      	movs	r4, #36	; 0x24
 8004caa:	193b      	adds	r3, r7, r4
 8004cac:	4a2e      	ldr	r2, [pc, #184]	; (8004d68 <softwareCalibPage_graphics+0xd0>)
 8004cae:	801a      	strh	r2, [r3, #0]
	ST7735_WriteString(5, 35, "TIMER", Font_11x18, WHITE, BLACK);
 8004cb0:	4b2e      	ldr	r3, [pc, #184]	; (8004d6c <softwareCalibPage_graphics+0xd4>)
 8004cb2:	482f      	ldr	r0, [pc, #188]	; (8004d70 <softwareCalibPage_graphics+0xd8>)
 8004cb4:	2200      	movs	r2, #0
 8004cb6:	9202      	str	r2, [sp, #8]
 8004cb8:	4a2e      	ldr	r2, [pc, #184]	; (8004d74 <softwareCalibPage_graphics+0xdc>)
 8004cba:	9201      	str	r2, [sp, #4]
 8004cbc:	466a      	mov	r2, sp
 8004cbe:	6859      	ldr	r1, [r3, #4]
 8004cc0:	6011      	str	r1, [r2, #0]
 8004cc2:	681b      	ldr	r3, [r3, #0]
 8004cc4:	0002      	movs	r2, r0
 8004cc6:	2123      	movs	r1, #35	; 0x23
 8004cc8:	2005      	movs	r0, #5
 8004cca:	f7ff f8b3 	bl	8003e34 <ST7735_WriteString>
	ST7735_WriteString(20, 55, sTimer, Font_11x18, WHITE, BLACK);
 8004cce:	4b27      	ldr	r3, [pc, #156]	; (8004d6c <softwareCalibPage_graphics+0xd4>)
 8004cd0:	1938      	adds	r0, r7, r4
 8004cd2:	2200      	movs	r2, #0
 8004cd4:	9202      	str	r2, [sp, #8]
 8004cd6:	4a27      	ldr	r2, [pc, #156]	; (8004d74 <softwareCalibPage_graphics+0xdc>)
 8004cd8:	9201      	str	r2, [sp, #4]
 8004cda:	466a      	mov	r2, sp
 8004cdc:	6859      	ldr	r1, [r3, #4]
 8004cde:	6011      	str	r1, [r2, #0]
 8004ce0:	681b      	ldr	r3, [r3, #0]
 8004ce2:	0002      	movs	r2, r0
 8004ce4:	2137      	movs	r1, #55	; 0x37
 8004ce6:	2014      	movs	r0, #20
 8004ce8:	f7ff f8a4 	bl	8003e34 <ST7735_WriteString>

	// 3. Point number
	ST7735_WriteString(60, 98, "PT.1", Font_11x18, WHITE, BLACK);
 8004cec:	4b1f      	ldr	r3, [pc, #124]	; (8004d6c <softwareCalibPage_graphics+0xd4>)
 8004cee:	4822      	ldr	r0, [pc, #136]	; (8004d78 <softwareCalibPage_graphics+0xe0>)
 8004cf0:	2200      	movs	r2, #0
 8004cf2:	9202      	str	r2, [sp, #8]
 8004cf4:	4a1f      	ldr	r2, [pc, #124]	; (8004d74 <softwareCalibPage_graphics+0xdc>)
 8004cf6:	9201      	str	r2, [sp, #4]
 8004cf8:	466a      	mov	r2, sp
 8004cfa:	6859      	ldr	r1, [r3, #4]
 8004cfc:	6011      	str	r1, [r2, #0]
 8004cfe:	681b      	ldr	r3, [r3, #0]
 8004d00:	0002      	movs	r2, r0
 8004d02:	2162      	movs	r1, #98	; 0x62
 8004d04:	203c      	movs	r0, #60	; 0x3c
 8004d06:	f7ff f895 	bl	8003e34 <ST7735_WriteString>

	// 4. pH buffer
	swCalibElement[0] = createEditNumBox(PH_BUFFER_TEXT_POSX, PH_BUFFER_TEXT_POSY, "pH BUFF", BLACK, 7, BLACK);
 8004d0a:	4c1c      	ldr	r4, [pc, #112]	; (8004d7c <softwareCalibPage_graphics+0xe4>)
 8004d0c:	0038      	movs	r0, r7
 8004d0e:	4b1c      	ldr	r3, [pc, #112]	; (8004d80 <softwareCalibPage_graphics+0xe8>)
 8004d10:	2200      	movs	r2, #0
 8004d12:	9202      	str	r2, [sp, #8]
 8004d14:	2207      	movs	r2, #7
 8004d16:	9201      	str	r2, [sp, #4]
 8004d18:	2200      	movs	r2, #0
 8004d1a:	9200      	str	r2, [sp, #0]
 8004d1c:	2223      	movs	r2, #35	; 0x23
 8004d1e:	2150      	movs	r1, #80	; 0x50
 8004d20:	f7ff fa60 	bl	80041e4 <createEditNumBox>
 8004d24:	003a      	movs	r2, r7
 8004d26:	0023      	movs	r3, r4
 8004d28:	ca13      	ldmia	r2!, {r0, r1, r4}
 8004d2a:	c313      	stmia	r3!, {r0, r1, r4}
 8004d2c:	ca13      	ldmia	r2!, {r0, r1, r4}
 8004d2e:	c313      	stmia	r3!, {r0, r1, r4}
 8004d30:	ca03      	ldmia	r2!, {r0, r1}
 8004d32:	c303      	stmia	r3!, {r0, r1}

	// 5. Buttons
	swCalibElement[1] = createButton(PH_BUFFER_START_BTN_POSX, PH_BUFFER_START_BTN_POSY, "START/STOP", RED);
 8004d34:	4c11      	ldr	r4, [pc, #68]	; (8004d7c <softwareCalibPage_graphics+0xe4>)
 8004d36:	0038      	movs	r0, r7
 8004d38:	4a12      	ldr	r2, [pc, #72]	; (8004d84 <softwareCalibPage_graphics+0xec>)
 8004d3a:	23f8      	movs	r3, #248	; 0xf8
 8004d3c:	021b      	lsls	r3, r3, #8
 8004d3e:	9300      	str	r3, [sp, #0]
 8004d40:	0013      	movs	r3, r2
 8004d42:	2250      	movs	r2, #80	; 0x50
 8004d44:	2150      	movs	r1, #80	; 0x50
 8004d46:	f7ff f9b7 	bl	80040b8 <createButton>
 8004d4a:	003a      	movs	r2, r7
 8004d4c:	0023      	movs	r3, r4
 8004d4e:	3320      	adds	r3, #32
 8004d50:	ca13      	ldmia	r2!, {r0, r1, r4}
 8004d52:	c313      	stmia	r3!, {r0, r1, r4}
 8004d54:	ca13      	ldmia	r2!, {r0, r1, r4}
 8004d56:	c313      	stmia	r3!, {r0, r1, r4}
 8004d58:	ca03      	ldmia	r2!, {r0, r1}
 8004d5a:	c303      	stmia	r3!, {r0, r1}

}
 8004d5c:	46c0      	nop			; (mov r8, r8)
 8004d5e:	46bd      	mov	sp, r7
 8004d60:	b00b      	add	sp, #44	; 0x2c
 8004d62:	bd90      	pop	{r4, r7, pc}
 8004d64:	080070b4 	.word	0x080070b4
 8004d68:	00003033 	.word	0x00003033
 8004d6c:	20000008 	.word	0x20000008
 8004d70:	080070c4 	.word	0x080070c4
 8004d74:	0000ffff 	.word	0x0000ffff
 8004d78:	080070cc 	.word	0x080070cc
 8004d7c:	20000104 	.word	0x20000104
 8004d80:	080070d4 	.word	0x080070d4
 8004d84:	080070dc 	.word	0x080070dc

08004d88 <pageTitle_graphics>:

static void pageTitle_graphics(const char *title, uint8_t page)
{
 8004d88:	b590      	push	{r4, r7, lr}
 8004d8a:	b089      	sub	sp, #36	; 0x24
 8004d8c:	af04      	add	r7, sp, #16
 8004d8e:	6078      	str	r0, [r7, #4]
 8004d90:	000a      	movs	r2, r1
 8004d92:	1cfb      	adds	r3, r7, #3
 8004d94:	701a      	strb	r2, [r3, #0]
	 *   \						   /
	 *	  \-----------------------/
	 */


	uint8_t offset = 0;
 8004d96:	210f      	movs	r1, #15
 8004d98:	187b      	adds	r3, r7, r1
 8004d9a:	2200      	movs	r2, #0
 8004d9c:	701a      	strb	r2, [r3, #0]


	if(page == MAIN_PAGE)
 8004d9e:	1cfb      	adds	r3, r7, #3
 8004da0:	781b      	ldrb	r3, [r3, #0]
 8004da2:	2b0a      	cmp	r3, #10
 8004da4:	d103      	bne.n	8004dae <pageTitle_graphics+0x26>
		offset = 0;
 8004da6:	187b      	adds	r3, r7, r1
 8004da8:	2200      	movs	r2, #0
 8004daa:	701a      	strb	r2, [r3, #0]
 8004dac:	e015      	b.n	8004dda <pageTitle_graphics+0x52>
	else if(page == CIRCUIT_CALIBRATION_PAGE)
 8004dae:	1cfb      	adds	r3, r7, #3
 8004db0:	781b      	ldrb	r3, [r3, #0]
 8004db2:	2b14      	cmp	r3, #20
 8004db4:	d104      	bne.n	8004dc0 <pageTitle_graphics+0x38>
		offset = 13;
 8004db6:	230f      	movs	r3, #15
 8004db8:	18fb      	adds	r3, r7, r3
 8004dba:	220d      	movs	r2, #13
 8004dbc:	701a      	strb	r2, [r3, #0]
 8004dbe:	e00c      	b.n	8004dda <pageTitle_graphics+0x52>
	else if(page == SOFTWARE_CALIBRATION_PAGE)
 8004dc0:	1cfb      	adds	r3, r7, #3
 8004dc2:	781b      	ldrb	r3, [r3, #0]
 8004dc4:	2b1e      	cmp	r3, #30
 8004dc6:	d104      	bne.n	8004dd2 <pageTitle_graphics+0x4a>
		offset = 13;
 8004dc8:	230f      	movs	r3, #15
 8004dca:	18fb      	adds	r3, r7, r3
 8004dcc:	220d      	movs	r2, #13
 8004dce:	701a      	strb	r2, [r3, #0]
 8004dd0:	e003      	b.n	8004dda <pageTitle_graphics+0x52>
	else
		offset = 0;
 8004dd2:	230f      	movs	r3, #15
 8004dd4:	18fb      	adds	r3, r7, r3
 8004dd6:	2200      	movs	r2, #0
 8004dd8:	701a      	strb	r2, [r3, #0]

	ST7735_SetRotation(1);
 8004dda:	2001      	movs	r0, #1
 8004ddc:	f7fe feb6 	bl	8003b4c <ST7735_SetRotation>

	fillTriangle(30-offset, 0, 50-offset, 0, 50-offset, 20, MAIN_COLOR);
 8004de0:	240f      	movs	r4, #15
 8004de2:	193b      	adds	r3, r7, r4
 8004de4:	781b      	ldrb	r3, [r3, #0]
 8004de6:	b29b      	uxth	r3, r3
 8004de8:	221e      	movs	r2, #30
 8004dea:	1ad3      	subs	r3, r2, r3
 8004dec:	b29b      	uxth	r3, r3
 8004dee:	b218      	sxth	r0, r3
 8004df0:	193b      	adds	r3, r7, r4
 8004df2:	781b      	ldrb	r3, [r3, #0]
 8004df4:	b29b      	uxth	r3, r3
 8004df6:	2232      	movs	r2, #50	; 0x32
 8004df8:	1ad3      	subs	r3, r2, r3
 8004dfa:	b29b      	uxth	r3, r3
 8004dfc:	b219      	sxth	r1, r3
 8004dfe:	193b      	adds	r3, r7, r4
 8004e00:	781b      	ldrb	r3, [r3, #0]
 8004e02:	b29b      	uxth	r3, r3
 8004e04:	2232      	movs	r2, #50	; 0x32
 8004e06:	1ad3      	subs	r3, r2, r3
 8004e08:	b29b      	uxth	r3, r3
 8004e0a:	b21b      	sxth	r3, r3
 8004e0c:	22c3      	movs	r2, #195	; 0xc3
 8004e0e:	0112      	lsls	r2, r2, #4
 8004e10:	9202      	str	r2, [sp, #8]
 8004e12:	2214      	movs	r2, #20
 8004e14:	9201      	str	r2, [sp, #4]
 8004e16:	9300      	str	r3, [sp, #0]
 8004e18:	2300      	movs	r3, #0
 8004e1a:	000a      	movs	r2, r1
 8004e1c:	2100      	movs	r1, #0
 8004e1e:	f7fe faef 	bl	8003400 <fillTriangle>
	fillTriangle(110+offset, 0, 130+offset, 0, 110+offset, 20, MAIN_COLOR);
 8004e22:	193b      	adds	r3, r7, r4
 8004e24:	781b      	ldrb	r3, [r3, #0]
 8004e26:	b29b      	uxth	r3, r3
 8004e28:	336e      	adds	r3, #110	; 0x6e
 8004e2a:	b29b      	uxth	r3, r3
 8004e2c:	b218      	sxth	r0, r3
 8004e2e:	193b      	adds	r3, r7, r4
 8004e30:	781b      	ldrb	r3, [r3, #0]
 8004e32:	b29b      	uxth	r3, r3
 8004e34:	3382      	adds	r3, #130	; 0x82
 8004e36:	b29b      	uxth	r3, r3
 8004e38:	b219      	sxth	r1, r3
 8004e3a:	193b      	adds	r3, r7, r4
 8004e3c:	781b      	ldrb	r3, [r3, #0]
 8004e3e:	b29b      	uxth	r3, r3
 8004e40:	336e      	adds	r3, #110	; 0x6e
 8004e42:	b29b      	uxth	r3, r3
 8004e44:	b21b      	sxth	r3, r3
 8004e46:	22c3      	movs	r2, #195	; 0xc3
 8004e48:	0112      	lsls	r2, r2, #4
 8004e4a:	9202      	str	r2, [sp, #8]
 8004e4c:	2214      	movs	r2, #20
 8004e4e:	9201      	str	r2, [sp, #4]
 8004e50:	9300      	str	r3, [sp, #0]
 8004e52:	2300      	movs	r3, #0
 8004e54:	000a      	movs	r2, r1
 8004e56:	2100      	movs	r1, #0
 8004e58:	f7fe fad2 	bl	8003400 <fillTriangle>
    fillRect(50-offset, 0, 60+(2*offset), 21, MAIN_COLOR);
 8004e5c:	193b      	adds	r3, r7, r4
 8004e5e:	781b      	ldrb	r3, [r3, #0]
 8004e60:	b29b      	uxth	r3, r3
 8004e62:	2232      	movs	r2, #50	; 0x32
 8004e64:	1ad3      	subs	r3, r2, r3
 8004e66:	b29b      	uxth	r3, r3
 8004e68:	b218      	sxth	r0, r3
 8004e6a:	193b      	adds	r3, r7, r4
 8004e6c:	781b      	ldrb	r3, [r3, #0]
 8004e6e:	331e      	adds	r3, #30
 8004e70:	b29b      	uxth	r3, r3
 8004e72:	18db      	adds	r3, r3, r3
 8004e74:	b29b      	uxth	r3, r3
 8004e76:	b21a      	sxth	r2, r3
 8004e78:	23c3      	movs	r3, #195	; 0xc3
 8004e7a:	011b      	lsls	r3, r3, #4
 8004e7c:	9300      	str	r3, [sp, #0]
 8004e7e:	2315      	movs	r3, #21
 8004e80:	2100      	movs	r1, #0
 8004e82:	f7fd fc51 	bl	8002728 <fillRect>

    ST7735_WriteString(45-offset, 3, title, Font_7x10, WHITE, MAIN_COLOR);
 8004e86:	193b      	adds	r3, r7, r4
 8004e88:	781b      	ldrb	r3, [r3, #0]
 8004e8a:	b29b      	uxth	r3, r3
 8004e8c:	222d      	movs	r2, #45	; 0x2d
 8004e8e:	1ad3      	subs	r3, r2, r3
 8004e90:	b298      	uxth	r0, r3
 8004e92:	4b09      	ldr	r3, [pc, #36]	; (8004eb8 <pageTitle_graphics+0x130>)
 8004e94:	687c      	ldr	r4, [r7, #4]
 8004e96:	22c3      	movs	r2, #195	; 0xc3
 8004e98:	0112      	lsls	r2, r2, #4
 8004e9a:	9202      	str	r2, [sp, #8]
 8004e9c:	4a07      	ldr	r2, [pc, #28]	; (8004ebc <pageTitle_graphics+0x134>)
 8004e9e:	9201      	str	r2, [sp, #4]
 8004ea0:	466a      	mov	r2, sp
 8004ea2:	6859      	ldr	r1, [r3, #4]
 8004ea4:	6011      	str	r1, [r2, #0]
 8004ea6:	681b      	ldr	r3, [r3, #0]
 8004ea8:	0022      	movs	r2, r4
 8004eaa:	2103      	movs	r1, #3
 8004eac:	f7fe ffc2 	bl	8003e34 <ST7735_WriteString>

}
 8004eb0:	46c0      	nop			; (mov r8, r8)
 8004eb2:	46bd      	mov	sp, r7
 8004eb4:	b005      	add	sp, #20
 8004eb6:	bd90      	pop	{r4, r7, pc}
 8004eb8:	20000000 	.word	0x20000000
 8004ebc:	0000ffff 	.word	0x0000ffff

08004ec0 <colorBar_graphics>:

static void colorBar_graphics(void)
{
 8004ec0:	b580      	push	{r7, lr}
 8004ec2:	b084      	sub	sp, #16
 8004ec4:	af02      	add	r7, sp, #8
	 * |________|	0
	 *
	 */


	ST7735_SetRotation(1);
 8004ec6:	2001      	movs	r0, #1
 8004ec8:	f7fe fe40 	bl	8003b4c <ST7735_SetRotation>

	uint8_t x = 120;
 8004ecc:	1dfb      	adds	r3, r7, #7
 8004ece:	2278      	movs	r2, #120	; 0x78
 8004ed0:	701a      	strb	r2, [r3, #0]
	uint8_t y = 100;
 8004ed2:	1dbb      	adds	r3, r7, #6
 8004ed4:	2264      	movs	r2, #100	; 0x64
 8004ed6:	701a      	strb	r2, [r3, #0]

	drawRect(x, y-80, 40, 20, BLACK);
 8004ed8:	1dfb      	adds	r3, r7, #7
 8004eda:	781b      	ldrb	r3, [r3, #0]
 8004edc:	b218      	sxth	r0, r3
 8004ede:	1dbb      	adds	r3, r7, #6
 8004ee0:	781b      	ldrb	r3, [r3, #0]
 8004ee2:	b29b      	uxth	r3, r3
 8004ee4:	3b50      	subs	r3, #80	; 0x50
 8004ee6:	b29b      	uxth	r3, r3
 8004ee8:	b219      	sxth	r1, r3
 8004eea:	2300      	movs	r3, #0
 8004eec:	9300      	str	r3, [sp, #0]
 8004eee:	2314      	movs	r3, #20
 8004ef0:	2228      	movs	r2, #40	; 0x28
 8004ef2:	f7fe f82f 	bl	8002f54 <drawRect>
	drawRect(x, y-60, 40, 20, BLACK);
 8004ef6:	1dfb      	adds	r3, r7, #7
 8004ef8:	781b      	ldrb	r3, [r3, #0]
 8004efa:	b218      	sxth	r0, r3
 8004efc:	1dbb      	adds	r3, r7, #6
 8004efe:	781b      	ldrb	r3, [r3, #0]
 8004f00:	b29b      	uxth	r3, r3
 8004f02:	3b3c      	subs	r3, #60	; 0x3c
 8004f04:	b29b      	uxth	r3, r3
 8004f06:	b219      	sxth	r1, r3
 8004f08:	2300      	movs	r3, #0
 8004f0a:	9300      	str	r3, [sp, #0]
 8004f0c:	2314      	movs	r3, #20
 8004f0e:	2228      	movs	r2, #40	; 0x28
 8004f10:	f7fe f820 	bl	8002f54 <drawRect>
	drawRect(x, y-40, 40, 20, BLACK);
 8004f14:	1dfb      	adds	r3, r7, #7
 8004f16:	781b      	ldrb	r3, [r3, #0]
 8004f18:	b218      	sxth	r0, r3
 8004f1a:	1dbb      	adds	r3, r7, #6
 8004f1c:	781b      	ldrb	r3, [r3, #0]
 8004f1e:	b29b      	uxth	r3, r3
 8004f20:	3b28      	subs	r3, #40	; 0x28
 8004f22:	b29b      	uxth	r3, r3
 8004f24:	b219      	sxth	r1, r3
 8004f26:	2300      	movs	r3, #0
 8004f28:	9300      	str	r3, [sp, #0]
 8004f2a:	2314      	movs	r3, #20
 8004f2c:	2228      	movs	r2, #40	; 0x28
 8004f2e:	f7fe f811 	bl	8002f54 <drawRect>
	drawRect(x, y-20, 40, 20, BLACK);
 8004f32:	1dfb      	adds	r3, r7, #7
 8004f34:	781b      	ldrb	r3, [r3, #0]
 8004f36:	b218      	sxth	r0, r3
 8004f38:	1dbb      	adds	r3, r7, #6
 8004f3a:	781b      	ldrb	r3, [r3, #0]
 8004f3c:	b29b      	uxth	r3, r3
 8004f3e:	3b14      	subs	r3, #20
 8004f40:	b29b      	uxth	r3, r3
 8004f42:	b219      	sxth	r1, r3
 8004f44:	2300      	movs	r3, #0
 8004f46:	9300      	str	r3, [sp, #0]
 8004f48:	2314      	movs	r3, #20
 8004f4a:	2228      	movs	r2, #40	; 0x28
 8004f4c:	f7fe f802 	bl	8002f54 <drawRect>
	drawRect(x, y, 40, 20, BLACK);
 8004f50:	1dfb      	adds	r3, r7, #7
 8004f52:	781b      	ldrb	r3, [r3, #0]
 8004f54:	b218      	sxth	r0, r3
 8004f56:	1dbb      	adds	r3, r7, #6
 8004f58:	781b      	ldrb	r3, [r3, #0]
 8004f5a:	b219      	sxth	r1, r3
 8004f5c:	2300      	movs	r3, #0
 8004f5e:	9300      	str	r3, [sp, #0]
 8004f60:	2314      	movs	r3, #20
 8004f62:	2228      	movs	r2, #40	; 0x28
 8004f64:	f7fd fff6 	bl	8002f54 <drawRect>

	fillRect(x+1, y-80, 39, 19, DARK_BLUE);
 8004f68:	1dfb      	adds	r3, r7, #7
 8004f6a:	781b      	ldrb	r3, [r3, #0]
 8004f6c:	b29b      	uxth	r3, r3
 8004f6e:	3301      	adds	r3, #1
 8004f70:	b29b      	uxth	r3, r3
 8004f72:	b218      	sxth	r0, r3
 8004f74:	1dbb      	adds	r3, r7, #6
 8004f76:	781b      	ldrb	r3, [r3, #0]
 8004f78:	b29b      	uxth	r3, r3
 8004f7a:	3b50      	subs	r3, #80	; 0x50
 8004f7c:	b29b      	uxth	r3, r3
 8004f7e:	b219      	sxth	r1, r3
 8004f80:	231f      	movs	r3, #31
 8004f82:	9300      	str	r3, [sp, #0]
 8004f84:	2313      	movs	r3, #19
 8004f86:	2227      	movs	r2, #39	; 0x27
 8004f88:	f7fd fbce 	bl	8002728 <fillRect>
	fillRect(x+1, y-60, 39, 19, BLUE);
 8004f8c:	1dfb      	adds	r3, r7, #7
 8004f8e:	781b      	ldrb	r3, [r3, #0]
 8004f90:	b29b      	uxth	r3, r3
 8004f92:	3301      	adds	r3, #1
 8004f94:	b29b      	uxth	r3, r3
 8004f96:	b218      	sxth	r0, r3
 8004f98:	1dbb      	adds	r3, r7, #6
 8004f9a:	781b      	ldrb	r3, [r3, #0]
 8004f9c:	b29b      	uxth	r3, r3
 8004f9e:	3b3c      	subs	r3, #60	; 0x3c
 8004fa0:	b29b      	uxth	r3, r3
 8004fa2:	b219      	sxth	r1, r3
 8004fa4:	23ff      	movs	r3, #255	; 0xff
 8004fa6:	9300      	str	r3, [sp, #0]
 8004fa8:	2313      	movs	r3, #19
 8004faa:	2227      	movs	r2, #39	; 0x27
 8004fac:	f7fd fbbc 	bl	8002728 <fillRect>
	fillRect(x+1, y-40, 39, 19, GREEN);
 8004fb0:	1dfb      	adds	r3, r7, #7
 8004fb2:	781b      	ldrb	r3, [r3, #0]
 8004fb4:	b29b      	uxth	r3, r3
 8004fb6:	3301      	adds	r3, #1
 8004fb8:	b29b      	uxth	r3, r3
 8004fba:	b218      	sxth	r0, r3
 8004fbc:	1dbb      	adds	r3, r7, #6
 8004fbe:	781b      	ldrb	r3, [r3, #0]
 8004fc0:	b29b      	uxth	r3, r3
 8004fc2:	3b28      	subs	r3, #40	; 0x28
 8004fc4:	b29b      	uxth	r3, r3
 8004fc6:	b219      	sxth	r1, r3
 8004fc8:	23fc      	movs	r3, #252	; 0xfc
 8004fca:	00db      	lsls	r3, r3, #3
 8004fcc:	9300      	str	r3, [sp, #0]
 8004fce:	2313      	movs	r3, #19
 8004fd0:	2227      	movs	r2, #39	; 0x27
 8004fd2:	f7fd fba9 	bl	8002728 <fillRect>
	fillRect(x+1, y-20, 39, 19, YELLOW);
 8004fd6:	1dfb      	adds	r3, r7, #7
 8004fd8:	781b      	ldrb	r3, [r3, #0]
 8004fda:	b29b      	uxth	r3, r3
 8004fdc:	3301      	adds	r3, #1
 8004fde:	b29b      	uxth	r3, r3
 8004fe0:	b218      	sxth	r0, r3
 8004fe2:	1dbb      	adds	r3, r7, #6
 8004fe4:	781b      	ldrb	r3, [r3, #0]
 8004fe6:	b29b      	uxth	r3, r3
 8004fe8:	3b14      	subs	r3, #20
 8004fea:	b29b      	uxth	r3, r3
 8004fec:	b219      	sxth	r1, r3
 8004fee:	4b0d      	ldr	r3, [pc, #52]	; (8005024 <colorBar_graphics+0x164>)
 8004ff0:	9300      	str	r3, [sp, #0]
 8004ff2:	2313      	movs	r3, #19
 8004ff4:	2227      	movs	r2, #39	; 0x27
 8004ff6:	f7fd fb97 	bl	8002728 <fillRect>
	fillRect(x+1, y, 39, 19, RED);
 8004ffa:	1dfb      	adds	r3, r7, #7
 8004ffc:	781b      	ldrb	r3, [r3, #0]
 8004ffe:	b29b      	uxth	r3, r3
 8005000:	3301      	adds	r3, #1
 8005002:	b29b      	uxth	r3, r3
 8005004:	b218      	sxth	r0, r3
 8005006:	1dbb      	adds	r3, r7, #6
 8005008:	781b      	ldrb	r3, [r3, #0]
 800500a:	b219      	sxth	r1, r3
 800500c:	23f8      	movs	r3, #248	; 0xf8
 800500e:	021b      	lsls	r3, r3, #8
 8005010:	9300      	str	r3, [sp, #0]
 8005012:	2313      	movs	r3, #19
 8005014:	2227      	movs	r2, #39	; 0x27
 8005016:	f7fd fb87 	bl	8002728 <fillRect>

}
 800501a:	46c0      	nop			; (mov r8, r8)
 800501c:	46bd      	mov	sp, r7
 800501e:	b002      	add	sp, #8
 8005020:	bd80      	pop	{r7, pc}
 8005022:	46c0      	nop			; (mov r8, r8)
 8005024:	0000ffe0 	.word	0x0000ffe0

08005028 <HAL_MspInit>:
/* USER CODE END 0 */
/**
  * Initializes the Global MSP.
  */
void HAL_MspInit(void)
{
 8005028:	b580      	push	{r7, lr}
 800502a:	b082      	sub	sp, #8
 800502c:	af00      	add	r7, sp, #0
  /* USER CODE BEGIN MspInit 0 */

  /* USER CODE END MspInit 0 */

  __HAL_RCC_SYSCFG_CLK_ENABLE();
 800502e:	4b0f      	ldr	r3, [pc, #60]	; (800506c <HAL_MspInit+0x44>)
 8005030:	699a      	ldr	r2, [r3, #24]
 8005032:	4b0e      	ldr	r3, [pc, #56]	; (800506c <HAL_MspInit+0x44>)
 8005034:	2101      	movs	r1, #1
 8005036:	430a      	orrs	r2, r1
 8005038:	619a      	str	r2, [r3, #24]
 800503a:	4b0c      	ldr	r3, [pc, #48]	; (800506c <HAL_MspInit+0x44>)
 800503c:	699b      	ldr	r3, [r3, #24]
 800503e:	2201      	movs	r2, #1
 8005040:	4013      	ands	r3, r2
 8005042:	607b      	str	r3, [r7, #4]
 8005044:	687b      	ldr	r3, [r7, #4]
  __HAL_RCC_PWR_CLK_ENABLE();
 8005046:	4b09      	ldr	r3, [pc, #36]	; (800506c <HAL_MspInit+0x44>)
 8005048:	69da      	ldr	r2, [r3, #28]
 800504a:	4b08      	ldr	r3, [pc, #32]	; (800506c <HAL_MspInit+0x44>)
 800504c:	2180      	movs	r1, #128	; 0x80
 800504e:	0549      	lsls	r1, r1, #21
 8005050:	430a      	orrs	r2, r1
 8005052:	61da      	str	r2, [r3, #28]
 8005054:	4b05      	ldr	r3, [pc, #20]	; (800506c <HAL_MspInit+0x44>)
 8005056:	69da      	ldr	r2, [r3, #28]
 8005058:	2380      	movs	r3, #128	; 0x80
 800505a:	055b      	lsls	r3, r3, #21
 800505c:	4013      	ands	r3, r2
 800505e:	603b      	str	r3, [r7, #0]
 8005060:	683b      	ldr	r3, [r7, #0]
  /* System interrupt init*/

  /* USER CODE BEGIN MspInit 1 */

  /* USER CODE END MspInit 1 */
}
 8005062:	46c0      	nop			; (mov r8, r8)
 8005064:	46bd      	mov	sp, r7
 8005066:	b002      	add	sp, #8
 8005068:	bd80      	pop	{r7, pc}
 800506a:	46c0      	nop			; (mov r8, r8)
 800506c:	40021000 	.word	0x40021000

08005070 <HAL_ADC_MspInit>:
* This function configures the hardware resources used in this example
* @param hadc: ADC handle pointer
* @retval None
*/
void HAL_ADC_MspInit(ADC_HandleTypeDef* hadc)
{
 8005070:	b590      	push	{r4, r7, lr}
 8005072:	b08b      	sub	sp, #44	; 0x2c
 8005074:	af00      	add	r7, sp, #0
 8005076:	6078      	str	r0, [r7, #4]
  GPIO_InitTypeDef GPIO_InitStruct = {0};
 8005078:	2414      	movs	r4, #20
 800507a:	193b      	adds	r3, r7, r4
 800507c:	0018      	movs	r0, r3
 800507e:	2314      	movs	r3, #20
 8005080:	001a      	movs	r2, r3
 8005082:	2100      	movs	r1, #0
 8005084:	f001 ffae 	bl	8006fe4 <memset>
  if(hadc->Instance==ADC1)
 8005088:	687b      	ldr	r3, [r7, #4]
 800508a:	681b      	ldr	r3, [r3, #0]
 800508c:	4a18      	ldr	r2, [pc, #96]	; (80050f0 <HAL_ADC_MspInit+0x80>)
 800508e:	4293      	cmp	r3, r2
 8005090:	d12a      	bne.n	80050e8 <HAL_ADC_MspInit+0x78>
  {
  /* USER CODE BEGIN ADC1_MspInit 0 */

  /* USER CODE END ADC1_MspInit 0 */
    /* Peripheral clock enable */
    __HAL_RCC_ADC1_CLK_ENABLE();
 8005092:	4b18      	ldr	r3, [pc, #96]	; (80050f4 <HAL_ADC_MspInit+0x84>)
 8005094:	699a      	ldr	r2, [r3, #24]
 8005096:	4b17      	ldr	r3, [pc, #92]	; (80050f4 <HAL_ADC_MspInit+0x84>)
 8005098:	2180      	movs	r1, #128	; 0x80
 800509a:	0089      	lsls	r1, r1, #2
 800509c:	430a      	orrs	r2, r1
 800509e:	619a      	str	r2, [r3, #24]
 80050a0:	4b14      	ldr	r3, [pc, #80]	; (80050f4 <HAL_ADC_MspInit+0x84>)
 80050a2:	699a      	ldr	r2, [r3, #24]
 80050a4:	2380      	movs	r3, #128	; 0x80
 80050a6:	009b      	lsls	r3, r3, #2
 80050a8:	4013      	ands	r3, r2
 80050aa:	613b      	str	r3, [r7, #16]
 80050ac:	693b      	ldr	r3, [r7, #16]

    __HAL_RCC_GPIOB_CLK_ENABLE();
 80050ae:	4b11      	ldr	r3, [pc, #68]	; (80050f4 <HAL_ADC_MspInit+0x84>)
 80050b0:	695a      	ldr	r2, [r3, #20]
 80050b2:	4b10      	ldr	r3, [pc, #64]	; (80050f4 <HAL_ADC_MspInit+0x84>)
 80050b4:	2180      	movs	r1, #128	; 0x80
 80050b6:	02c9      	lsls	r1, r1, #11
 80050b8:	430a      	orrs	r2, r1
 80050ba:	615a      	str	r2, [r3, #20]
 80050bc:	4b0d      	ldr	r3, [pc, #52]	; (80050f4 <HAL_ADC_MspInit+0x84>)
 80050be:	695a      	ldr	r2, [r3, #20]
 80050c0:	2380      	movs	r3, #128	; 0x80
 80050c2:	02db      	lsls	r3, r3, #11
 80050c4:	4013      	ands	r3, r2
 80050c6:	60fb      	str	r3, [r7, #12]
 80050c8:	68fb      	ldr	r3, [r7, #12]
    /**ADC GPIO Configuration
    PB0     ------> ADC_IN8
    */
    GPIO_InitStruct.Pin = ADC1_IN8_Pin;
 80050ca:	193b      	adds	r3, r7, r4
 80050cc:	2201      	movs	r2, #1
 80050ce:	601a      	str	r2, [r3, #0]
    GPIO_InitStruct.Mode = GPIO_MODE_ANALOG;
 80050d0:	193b      	adds	r3, r7, r4
 80050d2:	2203      	movs	r2, #3
 80050d4:	605a      	str	r2, [r3, #4]
    GPIO_InitStruct.Pull = GPIO_NOPULL;
 80050d6:	193b      	adds	r3, r7, r4
 80050d8:	2200      	movs	r2, #0
 80050da:	609a      	str	r2, [r3, #8]
    HAL_GPIO_Init(ADC1_IN8_GPIO_Port, &GPIO_InitStruct);
 80050dc:	193b      	adds	r3, r7, r4
 80050de:	4a06      	ldr	r2, [pc, #24]	; (80050f8 <HAL_ADC_MspInit+0x88>)
 80050e0:	0019      	movs	r1, r3
 80050e2:	0010      	movs	r0, r2
 80050e4:	f000 fe02 	bl	8005cec <HAL_GPIO_Init>
  /* USER CODE BEGIN ADC1_MspInit 1 */

  /* USER CODE END ADC1_MspInit 1 */
  }

}
 80050e8:	46c0      	nop			; (mov r8, r8)
 80050ea:	46bd      	mov	sp, r7
 80050ec:	b00b      	add	sp, #44	; 0x2c
 80050ee:	bd90      	pop	{r4, r7, pc}
 80050f0:	40012400 	.word	0x40012400
 80050f4:	40021000 	.word	0x40021000
 80050f8:	48000400 	.word	0x48000400

080050fc <HAL_SPI_MspInit>:
* This function configures the hardware resources used in this example
* @param hspi: SPI handle pointer
* @retval None
*/
void HAL_SPI_MspInit(SPI_HandleTypeDef* hspi)
{
 80050fc:	b590      	push	{r4, r7, lr}
 80050fe:	b08b      	sub	sp, #44	; 0x2c
 8005100:	af00      	add	r7, sp, #0
 8005102:	6078      	str	r0, [r7, #4]
  GPIO_InitTypeDef GPIO_InitStruct = {0};
 8005104:	2414      	movs	r4, #20
 8005106:	193b      	adds	r3, r7, r4
 8005108:	0018      	movs	r0, r3
 800510a:	2314      	movs	r3, #20
 800510c:	001a      	movs	r2, r3
 800510e:	2100      	movs	r1, #0
 8005110:	f001 ff68 	bl	8006fe4 <memset>
  if(hspi->Instance==SPI1)
 8005114:	687b      	ldr	r3, [r7, #4]
 8005116:	681b      	ldr	r3, [r3, #0]
 8005118:	4a1c      	ldr	r2, [pc, #112]	; (800518c <HAL_SPI_MspInit+0x90>)
 800511a:	4293      	cmp	r3, r2
 800511c:	d132      	bne.n	8005184 <HAL_SPI_MspInit+0x88>
  {
  /* USER CODE BEGIN SPI1_MspInit 0 */

  /* USER CODE END SPI1_MspInit 0 */
    /* Peripheral clock enable */
    __HAL_RCC_SPI1_CLK_ENABLE();
 800511e:	4b1c      	ldr	r3, [pc, #112]	; (8005190 <HAL_SPI_MspInit+0x94>)
 8005120:	699a      	ldr	r2, [r3, #24]
 8005122:	4b1b      	ldr	r3, [pc, #108]	; (8005190 <HAL_SPI_MspInit+0x94>)
 8005124:	2180      	movs	r1, #128	; 0x80
 8005126:	0149      	lsls	r1, r1, #5
 8005128:	430a      	orrs	r2, r1
 800512a:	619a      	str	r2, [r3, #24]
 800512c:	4b18      	ldr	r3, [pc, #96]	; (8005190 <HAL_SPI_MspInit+0x94>)
 800512e:	699a      	ldr	r2, [r3, #24]
 8005130:	2380      	movs	r3, #128	; 0x80
 8005132:	015b      	lsls	r3, r3, #5
 8005134:	4013      	ands	r3, r2
 8005136:	613b      	str	r3, [r7, #16]
 8005138:	693b      	ldr	r3, [r7, #16]

    __HAL_RCC_GPIOA_CLK_ENABLE();
 800513a:	4b15      	ldr	r3, [pc, #84]	; (8005190 <HAL_SPI_MspInit+0x94>)
 800513c:	695a      	ldr	r2, [r3, #20]
 800513e:	4b14      	ldr	r3, [pc, #80]	; (8005190 <HAL_SPI_MspInit+0x94>)
 8005140:	2180      	movs	r1, #128	; 0x80
 8005142:	0289      	lsls	r1, r1, #10
 8005144:	430a      	orrs	r2, r1
 8005146:	615a      	str	r2, [r3, #20]
 8005148:	4b11      	ldr	r3, [pc, #68]	; (8005190 <HAL_SPI_MspInit+0x94>)
 800514a:	695a      	ldr	r2, [r3, #20]
 800514c:	2380      	movs	r3, #128	; 0x80
 800514e:	029b      	lsls	r3, r3, #10
 8005150:	4013      	ands	r3, r2
 8005152:	60fb      	str	r3, [r7, #12]
 8005154:	68fb      	ldr	r3, [r7, #12]
    /**SPI1 GPIO Configuration
    PA5     ------> SPI1_SCK
    PA6     ------> SPI1_MISO
    PA7     ------> SPI1_MOSI
    */
    GPIO_InitStruct.Pin = GPIO_PIN_5|GPIO_PIN_6|GPIO_PIN_7;
 8005156:	0021      	movs	r1, r4
 8005158:	187b      	adds	r3, r7, r1
 800515a:	22e0      	movs	r2, #224	; 0xe0
 800515c:	601a      	str	r2, [r3, #0]
    GPIO_InitStruct.Mode = GPIO_MODE_AF_PP;
 800515e:	187b      	adds	r3, r7, r1
 8005160:	2202      	movs	r2, #2
 8005162:	605a      	str	r2, [r3, #4]
    GPIO_InitStruct.Pull = GPIO_NOPULL;
 8005164:	187b      	adds	r3, r7, r1
 8005166:	2200      	movs	r2, #0
 8005168:	609a      	str	r2, [r3, #8]
    GPIO_InitStruct.Speed = GPIO_SPEED_FREQ_HIGH;
 800516a:	187b      	adds	r3, r7, r1
 800516c:	2203      	movs	r2, #3
 800516e:	60da      	str	r2, [r3, #12]
    GPIO_InitStruct.Alternate = GPIO_AF0_SPI1;
 8005170:	187b      	adds	r3, r7, r1
 8005172:	2200      	movs	r2, #0
 8005174:	611a      	str	r2, [r3, #16]
    HAL_GPIO_Init(GPIOA, &GPIO_InitStruct);
 8005176:	187a      	adds	r2, r7, r1
 8005178:	2390      	movs	r3, #144	; 0x90
 800517a:	05db      	lsls	r3, r3, #23
 800517c:	0011      	movs	r1, r2
 800517e:	0018      	movs	r0, r3
 8005180:	f000 fdb4 	bl	8005cec <HAL_GPIO_Init>
  /* USER CODE BEGIN SPI1_MspInit 1 */

  /* USER CODE END SPI1_MspInit 1 */
  }

}
 8005184:	46c0      	nop			; (mov r8, r8)
 8005186:	46bd      	mov	sp, r7
 8005188:	b00b      	add	sp, #44	; 0x2c
 800518a:	bd90      	pop	{r4, r7, pc}
 800518c:	40013000 	.word	0x40013000
 8005190:	40021000 	.word	0x40021000

08005194 <NMI_Handler>:
/******************************************************************************/
/**
  * @brief This function handles Non maskable interrupt.
  */
void NMI_Handler(void)
{
 8005194:	b580      	push	{r7, lr}
 8005196:	af00      	add	r7, sp, #0
  /* USER CODE BEGIN NonMaskableInt_IRQn 0 */

  /* USER CODE END NonMaskableInt_IRQn 0 */
  /* USER CODE BEGIN NonMaskableInt_IRQn 1 */
  while (1)
 8005198:	e7fe      	b.n	8005198 <NMI_Handler+0x4>

0800519a <HardFault_Handler>:

/**
  * @brief This function handles Hard fault interrupt.
  */
void HardFault_Handler(void)
{
 800519a:	b580      	push	{r7, lr}
 800519c:	af00      	add	r7, sp, #0
  /* USER CODE BEGIN HardFault_IRQn 0 */

  /* USER CODE END HardFault_IRQn 0 */
  while (1)
 800519e:	e7fe      	b.n	800519e <HardFault_Handler+0x4>

080051a0 <SVC_Handler>:

/**
  * @brief This function handles System service call via SWI instruction.
  */
void SVC_Handler(void)
{
 80051a0:	b580      	push	{r7, lr}
 80051a2:	af00      	add	r7, sp, #0

  /* USER CODE END SVC_IRQn 0 */
  /* USER CODE BEGIN SVC_IRQn 1 */

  /* USER CODE END SVC_IRQn 1 */
}
 80051a4:	46c0      	nop			; (mov r8, r8)
 80051a6:	46bd      	mov	sp, r7
 80051a8:	bd80      	pop	{r7, pc}

080051aa <PendSV_Handler>:

/**
  * @brief This function handles Pendable request for system service.
  */
void PendSV_Handler(void)
{
 80051aa:	b580      	push	{r7, lr}
 80051ac:	af00      	add	r7, sp, #0

  /* USER CODE END PendSV_IRQn 0 */
  /* USER CODE BEGIN PendSV_IRQn 1 */

  /* USER CODE END PendSV_IRQn 1 */
}
 80051ae:	46c0      	nop			; (mov r8, r8)
 80051b0:	46bd      	mov	sp, r7
 80051b2:	bd80      	pop	{r7, pc}

080051b4 <SysTick_Handler>:

/**
  * @brief This function handles System tick timer.
  */
void SysTick_Handler(void)
{
 80051b4:	b580      	push	{r7, lr}
 80051b6:	af00      	add	r7, sp, #0
  /* USER CODE BEGIN SysTick_IRQn 0 */

  /* USER CODE END SysTick_IRQn 0 */
  HAL_IncTick();
 80051b8:	f000 f980 	bl	80054bc <HAL_IncTick>
  /* USER CODE BEGIN SysTick_IRQn 1 */

  /* USER CODE END SysTick_IRQn 1 */
}
 80051bc:	46c0      	nop			; (mov r8, r8)
 80051be:	46bd      	mov	sp, r7
 80051c0:	bd80      	pop	{r7, pc}

080051c2 <SystemInit>:
  * @brief  Setup the microcontroller system
  * @param  None
  * @retval None
  */
void SystemInit(void)
{
 80051c2:	b580      	push	{r7, lr}
 80051c4:	af00      	add	r7, sp, #0
                         before branch to main program. This call is made inside
                         the "startup_stm32f0xx.s" file.
                         User can setups the default system clock (System clock source, PLL Multiplier
                         and Divider factors, AHB/APBx prescalers and Flash settings).
   */
}
 80051c6:	46c0      	nop			; (mov r8, r8)
 80051c8:	46bd      	mov	sp, r7
 80051ca:	bd80      	pop	{r7, pc}

080051cc <getTimeMs>:
/*
 *	@ Function; getDelayms
 *  @ Return; uint32_t -> current time in ms
 */
uint32_t getTimeMs(void)
{
 80051cc:	b5b0      	push	{r4, r5, r7, lr}
 80051ce:	af00      	add	r7, sp, #0

	// Tick frequency is by default 1kHz (1ms period)
	return ( HAL_GetTick() * HAL_GetTickFreq() );
 80051d0:	f000 f986 	bl	80054e0 <HAL_GetTick>
 80051d4:	0004      	movs	r4, r0
 80051d6:	f000 f98d 	bl	80054f4 <HAL_GetTickFreq>
 80051da:	0003      	movs	r3, r0
 80051dc:	4363      	muls	r3, r4

}
 80051de:	0018      	movs	r0, r3
 80051e0:	46bd      	mov	sp, r7
 80051e2:	bdb0      	pop	{r4, r5, r7, pc}

080051e4 <getDelayMs>:
 *	@ Function; getDelayms
 * 	@ Par1; uint32_t timeStamp -> captured time
 *  @ Return; uint32_t tDiff -> time elapsed since timeStamp in ms
 */
uint32_t getDelayMs(uint32_t timeStamp)
{
 80051e4:	b590      	push	{r4, r7, lr}
 80051e6:	b085      	sub	sp, #20
 80051e8:	af00      	add	r7, sp, #0
 80051ea:	6078      	str	r0, [r7, #4]

	uint32_t tDiff;
	uint32_t currentTime;

	currentTime = ( getTimeMs() * HAL_GetTickFreq() );
 80051ec:	f7ff ffee 	bl	80051cc <getTimeMs>
 80051f0:	0004      	movs	r4, r0
 80051f2:	f000 f97f 	bl	80054f4 <HAL_GetTickFreq>
 80051f6:	0003      	movs	r3, r0
 80051f8:	4363      	muls	r3, r4
 80051fa:	60bb      	str	r3, [r7, #8]

	if(currentTime >= timeStamp)
 80051fc:	68ba      	ldr	r2, [r7, #8]
 80051fe:	687b      	ldr	r3, [r7, #4]
 8005200:	429a      	cmp	r2, r3
 8005202:	d304      	bcc.n	800520e <getDelayMs+0x2a>
		tDiff = currentTime - timeStamp;
 8005204:	68ba      	ldr	r2, [r7, #8]
 8005206:	687b      	ldr	r3, [r7, #4]
 8005208:	1ad3      	subs	r3, r2, r3
 800520a:	60fb      	str	r3, [r7, #12]
 800520c:	e003      	b.n	8005216 <getDelayMs+0x32>
	else
		tDiff = timeStamp - currentTime;
 800520e:	687a      	ldr	r2, [r7, #4]
 8005210:	68bb      	ldr	r3, [r7, #8]
 8005212:	1ad3      	subs	r3, r2, r3
 8005214:	60fb      	str	r3, [r7, #12]

	return tDiff;
 8005216:	68fb      	ldr	r3, [r7, #12]

}
 8005218:	0018      	movs	r0, r3
 800521a:	46bd      	mov	sp, r7
 800521c:	b005      	add	sp, #20
 800521e:	bd90      	pop	{r4, r7, pc}

08005220 <floatToString>:
 *	@ Description; converts a float number into a string
 * 	@ Par1; float f -> float number
 * 	@ Par2; char *s -> string
 */
void floatToString(float f, char *s)
{
 8005220:	b5b0      	push	{r4, r5, r7, lr}
 8005222:	b084      	sub	sp, #16
 8005224:	af00      	add	r7, sp, #0
 8005226:	6078      	str	r0, [r7, #4]
 8005228:	6039      	str	r1, [r7, #0]

	uint16_t ui16Temp = (uint16_t)( f * 100 );
 800522a:	496a      	ldr	r1, [pc, #424]	; (80053d4 <floatToString+0x1b4>)
 800522c:	6878      	ldr	r0, [r7, #4]
 800522e:	f7fb fc9b 	bl	8000b68 <__aeabi_fmul>
 8005232:	1c03      	adds	r3, r0, #0
 8005234:	250e      	movs	r5, #14
 8005236:	197c      	adds	r4, r7, r5
 8005238:	1c18      	adds	r0, r3, #0
 800523a:	f7fb f913 	bl	8000464 <__aeabi_f2uiz>
 800523e:	0003      	movs	r3, r0
 8005240:	8023      	strh	r3, [r4, #0]

	if(ui16Temp >= 1000)
 8005242:	197b      	adds	r3, r7, r5
 8005244:	881a      	ldrh	r2, [r3, #0]
 8005246:	23fa      	movs	r3, #250	; 0xfa
 8005248:	009b      	lsls	r3, r3, #2
 800524a:	429a      	cmp	r2, r3
 800524c:	d36d      	bcc.n	800532a <floatToString+0x10a>
	{

		s[5] = 0;
 800524e:	683b      	ldr	r3, [r7, #0]
 8005250:	3305      	adds	r3, #5
 8005252:	2200      	movs	r2, #0
 8005254:	701a      	strb	r2, [r3, #0]

		s[0] = (uint8_t)( ui16Temp / 1000 ) + 0x30;
 8005256:	197b      	adds	r3, r7, r5
 8005258:	881b      	ldrh	r3, [r3, #0]
 800525a:	22fa      	movs	r2, #250	; 0xfa
 800525c:	0091      	lsls	r1, r2, #2
 800525e:	0018      	movs	r0, r3
 8005260:	f7fa ff50 	bl	8000104 <__udivsi3>
 8005264:	0003      	movs	r3, r0
 8005266:	b29b      	uxth	r3, r3
 8005268:	b2db      	uxtb	r3, r3
 800526a:	3330      	adds	r3, #48	; 0x30
 800526c:	b2da      	uxtb	r2, r3
 800526e:	683b      	ldr	r3, [r7, #0]
 8005270:	701a      	strb	r2, [r3, #0]
		s[1] = (uint8_t)( ( ui16Temp - ( ( ui16Temp / 1000 ) * 1000 ) ) / 100 ) + 0x30;
 8005272:	197b      	adds	r3, r7, r5
 8005274:	881c      	ldrh	r4, [r3, #0]
 8005276:	197b      	adds	r3, r7, r5
 8005278:	881b      	ldrh	r3, [r3, #0]
 800527a:	22fa      	movs	r2, #250	; 0xfa
 800527c:	0091      	lsls	r1, r2, #2
 800527e:	0018      	movs	r0, r3
 8005280:	f7fa ff40 	bl	8000104 <__udivsi3>
 8005284:	0003      	movs	r3, r0
 8005286:	b29b      	uxth	r3, r3
 8005288:	001a      	movs	r2, r3
 800528a:	0013      	movs	r3, r2
 800528c:	059b      	lsls	r3, r3, #22
 800528e:	1a9b      	subs	r3, r3, r2
 8005290:	019b      	lsls	r3, r3, #6
 8005292:	189b      	adds	r3, r3, r2
 8005294:	005b      	lsls	r3, r3, #1
 8005296:	189b      	adds	r3, r3, r2
 8005298:	00db      	lsls	r3, r3, #3
 800529a:	18e3      	adds	r3, r4, r3
 800529c:	2164      	movs	r1, #100	; 0x64
 800529e:	0018      	movs	r0, r3
 80052a0:	f7fa ffba 	bl	8000218 <__divsi3>
 80052a4:	0003      	movs	r3, r0
 80052a6:	b2da      	uxtb	r2, r3
 80052a8:	683b      	ldr	r3, [r7, #0]
 80052aa:	3301      	adds	r3, #1
 80052ac:	3230      	adds	r2, #48	; 0x30
 80052ae:	b2d2      	uxtb	r2, r2
 80052b0:	701a      	strb	r2, [r3, #0]
		s[2] = '.';
 80052b2:	683b      	ldr	r3, [r7, #0]
 80052b4:	3302      	adds	r3, #2
 80052b6:	222e      	movs	r2, #46	; 0x2e
 80052b8:	701a      	strb	r2, [r3, #0]
		s[3] = (uint8_t)( ( ui16Temp - ( ( ui16Temp / 100 ) * 100 ) ) / 10 ) + 0x30;
 80052ba:	197b      	adds	r3, r7, r5
 80052bc:	881c      	ldrh	r4, [r3, #0]
 80052be:	197b      	adds	r3, r7, r5
 80052c0:	881b      	ldrh	r3, [r3, #0]
 80052c2:	2164      	movs	r1, #100	; 0x64
 80052c4:	0018      	movs	r0, r3
 80052c6:	f7fa ff1d 	bl	8000104 <__udivsi3>
 80052ca:	0003      	movs	r3, r0
 80052cc:	b29b      	uxth	r3, r3
 80052ce:	001a      	movs	r2, r3
 80052d0:	0013      	movs	r3, r2
 80052d2:	065b      	lsls	r3, r3, #25
 80052d4:	1a9b      	subs	r3, r3, r2
 80052d6:	009b      	lsls	r3, r3, #2
 80052d8:	189b      	adds	r3, r3, r2
 80052da:	00db      	lsls	r3, r3, #3
 80052dc:	1a9b      	subs	r3, r3, r2
 80052de:	009b      	lsls	r3, r3, #2
 80052e0:	18e3      	adds	r3, r4, r3
 80052e2:	210a      	movs	r1, #10
 80052e4:	0018      	movs	r0, r3
 80052e6:	f7fa ff97 	bl	8000218 <__divsi3>
 80052ea:	0003      	movs	r3, r0
 80052ec:	b2da      	uxtb	r2, r3
 80052ee:	683b      	ldr	r3, [r7, #0]
 80052f0:	3303      	adds	r3, #3
 80052f2:	3230      	adds	r2, #48	; 0x30
 80052f4:	b2d2      	uxtb	r2, r2
 80052f6:	701a      	strb	r2, [r3, #0]
		s[4] = (uint8_t)( ui16Temp - ( ( ui16Temp / 10 ) * 10 ) ) + 0x30;
 80052f8:	197b      	adds	r3, r7, r5
 80052fa:	881b      	ldrh	r3, [r3, #0]
 80052fc:	b2dc      	uxtb	r4, r3
 80052fe:	197b      	adds	r3, r7, r5
 8005300:	881b      	ldrh	r3, [r3, #0]
 8005302:	210a      	movs	r1, #10
 8005304:	0018      	movs	r0, r3
 8005306:	f7fa fefd 	bl	8000104 <__udivsi3>
 800530a:	0003      	movs	r3, r0
 800530c:	b29b      	uxth	r3, r3
 800530e:	b2db      	uxtb	r3, r3
 8005310:	1c1a      	adds	r2, r3, #0
 8005312:	0092      	lsls	r2, r2, #2
 8005314:	18d3      	adds	r3, r2, r3
 8005316:	18db      	adds	r3, r3, r3
 8005318:	b2db      	uxtb	r3, r3
 800531a:	1ae3      	subs	r3, r4, r3
 800531c:	b2da      	uxtb	r2, r3
 800531e:	683b      	ldr	r3, [r7, #0]
 8005320:	3304      	adds	r3, #4
 8005322:	3230      	adds	r2, #48	; 0x30
 8005324:	b2d2      	uxtb	r2, r2
 8005326:	701a      	strb	r2, [r3, #0]
		s[2] = (uint8_t)( ( ui16Temp - ( ( ui16Temp / 100 ) * 100 ) ) / 10 ) + 0x30;
		s[3] = (uint8_t)( ui16Temp - ( ( ui16Temp / 10 ) * 10 ) ) + 0x30;

	}

}
 8005328:	e050      	b.n	80053cc <floatToString+0x1ac>
		s[5] = 0;
 800532a:	683b      	ldr	r3, [r7, #0]
 800532c:	3305      	adds	r3, #5
 800532e:	2200      	movs	r2, #0
 8005330:	701a      	strb	r2, [r3, #0]
		s[4] = 0;
 8005332:	683b      	ldr	r3, [r7, #0]
 8005334:	3304      	adds	r3, #4
 8005336:	2200      	movs	r2, #0
 8005338:	701a      	strb	r2, [r3, #0]
		s[0] = (uint8_t)( ui16Temp / 100 ) + 0x30;
 800533a:	250e      	movs	r5, #14
 800533c:	197b      	adds	r3, r7, r5
 800533e:	881b      	ldrh	r3, [r3, #0]
 8005340:	2164      	movs	r1, #100	; 0x64
 8005342:	0018      	movs	r0, r3
 8005344:	f7fa fede 	bl	8000104 <__udivsi3>
 8005348:	0003      	movs	r3, r0
 800534a:	b29b      	uxth	r3, r3
 800534c:	b2db      	uxtb	r3, r3
 800534e:	3330      	adds	r3, #48	; 0x30
 8005350:	b2da      	uxtb	r2, r3
 8005352:	683b      	ldr	r3, [r7, #0]
 8005354:	701a      	strb	r2, [r3, #0]
		s[1] = '.';
 8005356:	683b      	ldr	r3, [r7, #0]
 8005358:	3301      	adds	r3, #1
 800535a:	222e      	movs	r2, #46	; 0x2e
 800535c:	701a      	strb	r2, [r3, #0]
		s[2] = (uint8_t)( ( ui16Temp - ( ( ui16Temp / 100 ) * 100 ) ) / 10 ) + 0x30;
 800535e:	197b      	adds	r3, r7, r5
 8005360:	881c      	ldrh	r4, [r3, #0]
 8005362:	197b      	adds	r3, r7, r5
 8005364:	881b      	ldrh	r3, [r3, #0]
 8005366:	2164      	movs	r1, #100	; 0x64
 8005368:	0018      	movs	r0, r3
 800536a:	f7fa fecb 	bl	8000104 <__udivsi3>
 800536e:	0003      	movs	r3, r0
 8005370:	b29b      	uxth	r3, r3
 8005372:	001a      	movs	r2, r3
 8005374:	0013      	movs	r3, r2
 8005376:	065b      	lsls	r3, r3, #25
 8005378:	1a9b      	subs	r3, r3, r2
 800537a:	009b      	lsls	r3, r3, #2
 800537c:	189b      	adds	r3, r3, r2
 800537e:	00db      	lsls	r3, r3, #3
 8005380:	1a9b      	subs	r3, r3, r2
 8005382:	009b      	lsls	r3, r3, #2
 8005384:	18e3      	adds	r3, r4, r3
 8005386:	210a      	movs	r1, #10
 8005388:	0018      	movs	r0, r3
 800538a:	f7fa ff45 	bl	8000218 <__divsi3>
 800538e:	0003      	movs	r3, r0
 8005390:	b2da      	uxtb	r2, r3
 8005392:	683b      	ldr	r3, [r7, #0]
 8005394:	3302      	adds	r3, #2
 8005396:	3230      	adds	r2, #48	; 0x30
 8005398:	b2d2      	uxtb	r2, r2
 800539a:	701a      	strb	r2, [r3, #0]
		s[3] = (uint8_t)( ui16Temp - ( ( ui16Temp / 10 ) * 10 ) ) + 0x30;
 800539c:	197b      	adds	r3, r7, r5
 800539e:	881b      	ldrh	r3, [r3, #0]
 80053a0:	b2dc      	uxtb	r4, r3
 80053a2:	197b      	adds	r3, r7, r5
 80053a4:	881b      	ldrh	r3, [r3, #0]
 80053a6:	210a      	movs	r1, #10
 80053a8:	0018      	movs	r0, r3
 80053aa:	f7fa feab 	bl	8000104 <__udivsi3>
 80053ae:	0003      	movs	r3, r0
 80053b0:	b29b      	uxth	r3, r3
 80053b2:	b2db      	uxtb	r3, r3
 80053b4:	1c1a      	adds	r2, r3, #0
 80053b6:	0092      	lsls	r2, r2, #2
 80053b8:	18d3      	adds	r3, r2, r3
 80053ba:	18db      	adds	r3, r3, r3
 80053bc:	b2db      	uxtb	r3, r3
 80053be:	1ae3      	subs	r3, r4, r3
 80053c0:	b2da      	uxtb	r2, r3
 80053c2:	683b      	ldr	r3, [r7, #0]
 80053c4:	3303      	adds	r3, #3
 80053c6:	3230      	adds	r2, #48	; 0x30
 80053c8:	b2d2      	uxtb	r2, r2
 80053ca:	701a      	strb	r2, [r3, #0]
}
 80053cc:	46c0      	nop			; (mov r8, r8)
 80053ce:	46bd      	mov	sp, r7
 80053d0:	b004      	add	sp, #16
 80053d2:	bdb0      	pop	{r4, r5, r7, pc}
 80053d4:	42c80000 	.word	0x42c80000

080053d8 <Reset_Handler>:

  .section .text.Reset_Handler
  .weak Reset_Handler
  .type Reset_Handler, %function
Reset_Handler:
  ldr   r0, =_estack
 80053d8:	480d      	ldr	r0, [pc, #52]	; (8005410 <LoopForever+0x2>)
  mov   sp, r0          /* set stack pointer */
 80053da:	4685      	mov	sp, r0
  
/* Call the clock system initialization function.*/
  bl  SystemInit
 80053dc:	f7ff fef1 	bl	80051c2 <SystemInit>

/* Copy the data segment initializers from flash to SRAM */
  ldr r0, =_sdata
 80053e0:	480c      	ldr	r0, [pc, #48]	; (8005414 <LoopForever+0x6>)
  ldr r1, =_edata
 80053e2:	490d      	ldr	r1, [pc, #52]	; (8005418 <LoopForever+0xa>)
  ldr r2, =_sidata
 80053e4:	4a0d      	ldr	r2, [pc, #52]	; (800541c <LoopForever+0xe>)
  movs r3, #0
 80053e6:	2300      	movs	r3, #0
  b LoopCopyDataInit
 80053e8:	e002      	b.n	80053f0 <LoopCopyDataInit>

080053ea <CopyDataInit>:

CopyDataInit:
  ldr r4, [r2, r3]
 80053ea:	58d4      	ldr	r4, [r2, r3]
  str r4, [r0, r3]
 80053ec:	50c4      	str	r4, [r0, r3]
  adds r3, r3, #4
 80053ee:	3304      	adds	r3, #4

080053f0 <LoopCopyDataInit>:

LoopCopyDataInit:
  adds r4, r0, r3
 80053f0:	18c4      	adds	r4, r0, r3
  cmp r4, r1
 80053f2:	428c      	cmp	r4, r1
  bcc CopyDataInit
 80053f4:	d3f9      	bcc.n	80053ea <CopyDataInit>
  
/* Zero fill the bss segment. */
  ldr r2, =_sbss
 80053f6:	4a0a      	ldr	r2, [pc, #40]	; (8005420 <LoopForever+0x12>)
  ldr r4, =_ebss
 80053f8:	4c0a      	ldr	r4, [pc, #40]	; (8005424 <LoopForever+0x16>)
  movs r3, #0
 80053fa:	2300      	movs	r3, #0
  b LoopFillZerobss
 80053fc:	e001      	b.n	8005402 <LoopFillZerobss>

080053fe <FillZerobss>:

FillZerobss:
  str  r3, [r2]
 80053fe:	6013      	str	r3, [r2, #0]
  adds r2, r2, #4
 8005400:	3204      	adds	r2, #4

08005402 <LoopFillZerobss>:

LoopFillZerobss:
  cmp r2, r4
 8005402:	42a2      	cmp	r2, r4
  bcc FillZerobss
 8005404:	d3fb      	bcc.n	80053fe <FillZerobss>

/* Call static constructors */
  bl __libc_init_array
 8005406:	f001 fdf5 	bl	8006ff4 <__libc_init_array>
/* Call the application's entry point.*/
  bl main
 800540a:	f7fe ff87 	bl	800431c <main>

0800540e <LoopForever>:

LoopForever:
    b LoopForever
 800540e:	e7fe      	b.n	800540e <LoopForever>
  ldr   r0, =_estack
 8005410:	20008000 	.word	0x20008000
  ldr r0, =_sdata
 8005414:	20000000 	.word	0x20000000
  ldr r1, =_edata
 8005418:	20000030 	.word	0x20000030
  ldr r2, =_sidata
 800541c:	08009a28 	.word	0x08009a28
  ldr r2, =_sbss
 8005420:	20000030 	.word	0x20000030
  ldr r4, =_ebss
 8005424:	20000190 	.word	0x20000190

08005428 <ADC1_IRQHandler>:
 * @retval : None
*/
    .section .text.Default_Handler,"ax",%progbits
Default_Handler:
Infinite_Loop:
  b Infinite_Loop
 8005428:	e7fe      	b.n	8005428 <ADC1_IRQHandler>
	...

0800542c <HAL_Init>:
  *       In the default implementation,Systick is used as source of time base.
  *       The tick variable is incremented each 1ms in its ISR.
  * @retval HAL status
  */
HAL_StatusTypeDef HAL_Init(void)
{
 800542c:	b580      	push	{r7, lr}
 800542e:	af00      	add	r7, sp, #0
  /* Configure Flash prefetch */ 
#if (PREFETCH_ENABLE != 0)
  __HAL_FLASH_PREFETCH_BUFFER_ENABLE();
 8005430:	4b07      	ldr	r3, [pc, #28]	; (8005450 <HAL_Init+0x24>)
 8005432:	681a      	ldr	r2, [r3, #0]
 8005434:	4b06      	ldr	r3, [pc, #24]	; (8005450 <HAL_Init+0x24>)
 8005436:	2110      	movs	r1, #16
 8005438:	430a      	orrs	r2, r1
 800543a:	601a      	str	r2, [r3, #0]
#endif /* PREFETCH_ENABLE */

  /* Use systick as time base source and configure 1ms tick (default clock after Reset is HSI) */

  HAL_InitTick(TICK_INT_PRIORITY);
 800543c:	2003      	movs	r0, #3
 800543e:	f000 f809 	bl	8005454 <HAL_InitTick>

  /* Init the low level hardware */
  HAL_MspInit();
 8005442:	f7ff fdf1 	bl	8005028 <HAL_MspInit>

  /* Return function status */
  return HAL_OK;
 8005446:	2300      	movs	r3, #0
}
 8005448:	0018      	movs	r0, r3
 800544a:	46bd      	mov	sp, r7
 800544c:	bd80      	pop	{r7, pc}
 800544e:	46c0      	nop			; (mov r8, r8)
 8005450:	40022000 	.word	0x40022000

08005454 <HAL_InitTick>:
  *       implementation  in user file.
  * @param TickPriority Tick interrupt priority.
  * @retval HAL status
  */
__weak HAL_StatusTypeDef HAL_InitTick(uint32_t TickPriority)
{
 8005454:	b590      	push	{r4, r7, lr}
 8005456:	b083      	sub	sp, #12
 8005458:	af00      	add	r7, sp, #0
 800545a:	6078      	str	r0, [r7, #4]
  /*Configure the SysTick to have interrupt in 1ms time basis*/
  if (HAL_SYSTICK_Config(SystemCoreClock / (1000U / uwTickFreq)) > 0U)
 800545c:	4b14      	ldr	r3, [pc, #80]	; (80054b0 <HAL_InitTick+0x5c>)
 800545e:	681c      	ldr	r4, [r3, #0]
 8005460:	4b14      	ldr	r3, [pc, #80]	; (80054b4 <HAL_InitTick+0x60>)
 8005462:	781b      	ldrb	r3, [r3, #0]
 8005464:	0019      	movs	r1, r3
 8005466:	23fa      	movs	r3, #250	; 0xfa
 8005468:	0098      	lsls	r0, r3, #2
 800546a:	f7fa fe4b 	bl	8000104 <__udivsi3>
 800546e:	0003      	movs	r3, r0
 8005470:	0019      	movs	r1, r3
 8005472:	0020      	movs	r0, r4
 8005474:	f7fa fe46 	bl	8000104 <__udivsi3>
 8005478:	0003      	movs	r3, r0
 800547a:	0018      	movs	r0, r3
 800547c:	f000 fc29 	bl	8005cd2 <HAL_SYSTICK_Config>
 8005480:	1e03      	subs	r3, r0, #0
 8005482:	d001      	beq.n	8005488 <HAL_InitTick+0x34>
  {
    return HAL_ERROR;
 8005484:	2301      	movs	r3, #1
 8005486:	e00f      	b.n	80054a8 <HAL_InitTick+0x54>
  }

  /* Configure the SysTick IRQ priority */
  if (TickPriority < (1UL << __NVIC_PRIO_BITS))
 8005488:	687b      	ldr	r3, [r7, #4]
 800548a:	2b03      	cmp	r3, #3
 800548c:	d80b      	bhi.n	80054a6 <HAL_InitTick+0x52>
  {
    HAL_NVIC_SetPriority(SysTick_IRQn, TickPriority, 0U);
 800548e:	6879      	ldr	r1, [r7, #4]
 8005490:	2301      	movs	r3, #1
 8005492:	425b      	negs	r3, r3
 8005494:	2200      	movs	r2, #0
 8005496:	0018      	movs	r0, r3
 8005498:	f000 fc06 	bl	8005ca8 <HAL_NVIC_SetPriority>
    uwTickPrio = TickPriority;
 800549c:	4b06      	ldr	r3, [pc, #24]	; (80054b8 <HAL_InitTick+0x64>)
 800549e:	687a      	ldr	r2, [r7, #4]
 80054a0:	601a      	str	r2, [r3, #0]
  {
    return HAL_ERROR;
  }

   /* Return function status */
  return HAL_OK;
 80054a2:	2300      	movs	r3, #0
 80054a4:	e000      	b.n	80054a8 <HAL_InitTick+0x54>
    return HAL_ERROR;
 80054a6:	2301      	movs	r3, #1
}
 80054a8:	0018      	movs	r0, r3
 80054aa:	46bd      	mov	sp, r7
 80054ac:	b003      	add	sp, #12
 80054ae:	bd90      	pop	{r4, r7, pc}
 80054b0:	20000024 	.word	0x20000024
 80054b4:	2000002c 	.word	0x2000002c
 80054b8:	20000028 	.word	0x20000028

080054bc <HAL_IncTick>:
  * @note This function is declared as __weak to be overwritten in case of other 
  *       implementations in user file.
  * @retval None
  */
__weak void HAL_IncTick(void)
{
 80054bc:	b580      	push	{r7, lr}
 80054be:	af00      	add	r7, sp, #0
  uwTick += uwTickFreq;
 80054c0:	4b05      	ldr	r3, [pc, #20]	; (80054d8 <HAL_IncTick+0x1c>)
 80054c2:	781b      	ldrb	r3, [r3, #0]
 80054c4:	001a      	movs	r2, r3
 80054c6:	4b05      	ldr	r3, [pc, #20]	; (80054dc <HAL_IncTick+0x20>)
 80054c8:	681b      	ldr	r3, [r3, #0]
 80054ca:	18d2      	adds	r2, r2, r3
 80054cc:	4b03      	ldr	r3, [pc, #12]	; (80054dc <HAL_IncTick+0x20>)
 80054ce:	601a      	str	r2, [r3, #0]
}
 80054d0:	46c0      	nop			; (mov r8, r8)
 80054d2:	46bd      	mov	sp, r7
 80054d4:	bd80      	pop	{r7, pc}
 80054d6:	46c0      	nop			; (mov r8, r8)
 80054d8:	2000002c 	.word	0x2000002c
 80054dc:	2000018c 	.word	0x2000018c

080054e0 <HAL_GetTick>:
  * @note   This function is declared as __weak  to be overwritten  in case of other 
  *       implementations in user file.
  * @retval tick value
  */
__weak uint32_t HAL_GetTick(void)
{
 80054e0:	b580      	push	{r7, lr}
 80054e2:	af00      	add	r7, sp, #0
  return uwTick;
 80054e4:	4b02      	ldr	r3, [pc, #8]	; (80054f0 <HAL_GetTick+0x10>)
 80054e6:	681b      	ldr	r3, [r3, #0]
}
 80054e8:	0018      	movs	r0, r3
 80054ea:	46bd      	mov	sp, r7
 80054ec:	bd80      	pop	{r7, pc}
 80054ee:	46c0      	nop			; (mov r8, r8)
 80054f0:	2000018c 	.word	0x2000018c

080054f4 <HAL_GetTickFreq>:
  * @brief return tick frequency.
  * @retval Tick frequency.
  *         Value of @ref HAL_TickFreqTypeDef.
  */
HAL_TickFreqTypeDef HAL_GetTickFreq(void)
{
 80054f4:	b580      	push	{r7, lr}
 80054f6:	af00      	add	r7, sp, #0
  return uwTickFreq;
 80054f8:	4b02      	ldr	r3, [pc, #8]	; (8005504 <HAL_GetTickFreq+0x10>)
 80054fa:	781b      	ldrb	r3, [r3, #0]
}
 80054fc:	0018      	movs	r0, r3
 80054fe:	46bd      	mov	sp, r7
 8005500:	bd80      	pop	{r7, pc}
 8005502:	46c0      	nop			; (mov r8, r8)
 8005504:	2000002c 	.word	0x2000002c

08005508 <HAL_Delay>:
  *       implementations in user file.
  * @param Delay specifies the delay time length, in milliseconds.
  * @retval None
  */
__weak void HAL_Delay(uint32_t Delay)
{
 8005508:	b580      	push	{r7, lr}
 800550a:	b084      	sub	sp, #16
 800550c:	af00      	add	r7, sp, #0
 800550e:	6078      	str	r0, [r7, #4]
  uint32_t tickstart = HAL_GetTick();
 8005510:	f7ff ffe6 	bl	80054e0 <HAL_GetTick>
 8005514:	0003      	movs	r3, r0
 8005516:	60bb      	str	r3, [r7, #8]
  uint32_t wait = Delay;
 8005518:	687b      	ldr	r3, [r7, #4]
 800551a:	60fb      	str	r3, [r7, #12]
  
  /* Add a freq to guarantee minimum wait */
  if (wait < HAL_MAX_DELAY)
 800551c:	68fb      	ldr	r3, [r7, #12]
 800551e:	3301      	adds	r3, #1
 8005520:	d005      	beq.n	800552e <HAL_Delay+0x26>
  {
    wait += (uint32_t)(uwTickFreq);
 8005522:	4b0a      	ldr	r3, [pc, #40]	; (800554c <HAL_Delay+0x44>)
 8005524:	781b      	ldrb	r3, [r3, #0]
 8005526:	001a      	movs	r2, r3
 8005528:	68fb      	ldr	r3, [r7, #12]
 800552a:	189b      	adds	r3, r3, r2
 800552c:	60fb      	str	r3, [r7, #12]
  }
  
  while((HAL_GetTick() - tickstart) < wait)
 800552e:	46c0      	nop			; (mov r8, r8)
 8005530:	f7ff ffd6 	bl	80054e0 <HAL_GetTick>
 8005534:	0002      	movs	r2, r0
 8005536:	68bb      	ldr	r3, [r7, #8]
 8005538:	1ad3      	subs	r3, r2, r3
 800553a:	68fa      	ldr	r2, [r7, #12]
 800553c:	429a      	cmp	r2, r3
 800553e:	d8f7      	bhi.n	8005530 <HAL_Delay+0x28>
  {
  }
}
 8005540:	46c0      	nop			; (mov r8, r8)
 8005542:	46c0      	nop			; (mov r8, r8)
 8005544:	46bd      	mov	sp, r7
 8005546:	b004      	add	sp, #16
 8005548:	bd80      	pop	{r7, pc}
 800554a:	46c0      	nop			; (mov r8, r8)
 800554c:	2000002c 	.word	0x2000002c

08005550 <HAL_ADC_Init>:
  *         of structure "ADC_InitTypeDef".
  * @param  hadc ADC handle
  * @retval HAL status
  */
HAL_StatusTypeDef HAL_ADC_Init(ADC_HandleTypeDef* hadc)
{
 8005550:	b580      	push	{r7, lr}
 8005552:	b084      	sub	sp, #16
 8005554:	af00      	add	r7, sp, #0
 8005556:	6078      	str	r0, [r7, #4]
  HAL_StatusTypeDef tmp_hal_status = HAL_OK;
 8005558:	230f      	movs	r3, #15
 800555a:	18fb      	adds	r3, r7, r3
 800555c:	2200      	movs	r2, #0
 800555e:	701a      	strb	r2, [r3, #0]
  uint32_t tmpCFGR1 = 0U;
 8005560:	2300      	movs	r3, #0
 8005562:	60bb      	str	r3, [r7, #8]

  /* Check ADC handle */
  if(hadc == NULL)
 8005564:	687b      	ldr	r3, [r7, #4]
 8005566:	2b00      	cmp	r3, #0
 8005568:	d101      	bne.n	800556e <HAL_ADC_Init+0x1e>
  {
    return HAL_ERROR;
 800556a:	2301      	movs	r3, #1
 800556c:	e125      	b.n	80057ba <HAL_ADC_Init+0x26a>
  /* Refer to header of this file for more details on clock enabling procedure*/
  
  /* Actions performed only if ADC is coming from state reset:                */
  /* - Initialization of ADC MSP                                              */
  /* - ADC voltage regulator enable                                           */
  if (hadc->State == HAL_ADC_STATE_RESET)
 800556e:	687b      	ldr	r3, [r7, #4]
 8005570:	6b9b      	ldr	r3, [r3, #56]	; 0x38
 8005572:	2b00      	cmp	r3, #0
 8005574:	d10a      	bne.n	800558c <HAL_ADC_Init+0x3c>
  {
    /* Initialize ADC error code */
    ADC_CLEAR_ERRORCODE(hadc);
 8005576:	687b      	ldr	r3, [r7, #4]
 8005578:	2200      	movs	r2, #0
 800557a:	63da      	str	r2, [r3, #60]	; 0x3c
    
    /* Allocate lock resource and initialize it */
    hadc->Lock = HAL_UNLOCKED;
 800557c:	687b      	ldr	r3, [r7, #4]
 800557e:	2234      	movs	r2, #52	; 0x34
 8005580:	2100      	movs	r1, #0
 8005582:	5499      	strb	r1, [r3, r2]
    
    /* Init the low level hardware */
    hadc->MspInitCallback(hadc);
#else
    /* Init the low level hardware */
    HAL_ADC_MspInit(hadc);
 8005584:	687b      	ldr	r3, [r7, #4]
 8005586:	0018      	movs	r0, r3
 8005588:	f7ff fd72 	bl	8005070 <HAL_ADC_MspInit>
  /* Configuration of ADC parameters if previous preliminary actions are      */ 
  /* correctly completed.                                                     */
  /* and if there is no conversion on going on regular group (ADC can be      */ 
  /* enabled anyway, in case of call of this function to update a parameter   */
  /* on the fly).                                                             */
  if (HAL_IS_BIT_CLR(hadc->State, HAL_ADC_STATE_ERROR_INTERNAL) &&
 800558c:	687b      	ldr	r3, [r7, #4]
 800558e:	6b9b      	ldr	r3, [r3, #56]	; 0x38
 8005590:	2210      	movs	r2, #16
 8005592:	4013      	ands	r3, r2
 8005594:	d000      	beq.n	8005598 <HAL_ADC_Init+0x48>
 8005596:	e103      	b.n	80057a0 <HAL_ADC_Init+0x250>
 8005598:	230f      	movs	r3, #15
 800559a:	18fb      	adds	r3, r7, r3
 800559c:	781b      	ldrb	r3, [r3, #0]
 800559e:	2b00      	cmp	r3, #0
 80055a0:	d000      	beq.n	80055a4 <HAL_ADC_Init+0x54>
 80055a2:	e0fd      	b.n	80057a0 <HAL_ADC_Init+0x250>
      (tmp_hal_status == HAL_OK)                                &&
      (ADC_IS_CONVERSION_ONGOING_REGULAR(hadc) == RESET)          )
 80055a4:	687b      	ldr	r3, [r7, #4]
 80055a6:	681b      	ldr	r3, [r3, #0]
 80055a8:	689b      	ldr	r3, [r3, #8]
 80055aa:	2204      	movs	r2, #4
 80055ac:	4013      	ands	r3, r2
      (tmp_hal_status == HAL_OK)                                &&
 80055ae:	d000      	beq.n	80055b2 <HAL_ADC_Init+0x62>
 80055b0:	e0f6      	b.n	80057a0 <HAL_ADC_Init+0x250>
  {
    /* Set ADC state */
    ADC_STATE_CLR_SET(hadc->State,
 80055b2:	687b      	ldr	r3, [r7, #4]
 80055b4:	6b9b      	ldr	r3, [r3, #56]	; 0x38
 80055b6:	4a83      	ldr	r2, [pc, #524]	; (80057c4 <HAL_ADC_Init+0x274>)
 80055b8:	4013      	ands	r3, r2
 80055ba:	2202      	movs	r2, #2
 80055bc:	431a      	orrs	r2, r3
 80055be:	687b      	ldr	r3, [r7, #4]
 80055c0:	639a      	str	r2, [r3, #56]	; 0x38
    /* Parameters update conditioned to ADC state:                            */
    /* Parameters that can be updated only when ADC is disabled:              */
    /*  - ADC clock mode                                                      */
    /*  - ADC clock prescaler                                                 */
    /*  - ADC resolution                                                      */
    if (ADC_IS_ENABLE(hadc) == RESET)
 80055c2:	687b      	ldr	r3, [r7, #4]
 80055c4:	681b      	ldr	r3, [r3, #0]
 80055c6:	689b      	ldr	r3, [r3, #8]
 80055c8:	2203      	movs	r2, #3
 80055ca:	4013      	ands	r3, r2
 80055cc:	2b01      	cmp	r3, #1
 80055ce:	d112      	bne.n	80055f6 <HAL_ADC_Init+0xa6>
 80055d0:	687b      	ldr	r3, [r7, #4]
 80055d2:	681b      	ldr	r3, [r3, #0]
 80055d4:	681b      	ldr	r3, [r3, #0]
 80055d6:	2201      	movs	r2, #1
 80055d8:	4013      	ands	r3, r2
 80055da:	2b01      	cmp	r3, #1
 80055dc:	d009      	beq.n	80055f2 <HAL_ADC_Init+0xa2>
 80055de:	687b      	ldr	r3, [r7, #4]
 80055e0:	681b      	ldr	r3, [r3, #0]
 80055e2:	68da      	ldr	r2, [r3, #12]
 80055e4:	2380      	movs	r3, #128	; 0x80
 80055e6:	021b      	lsls	r3, r3, #8
 80055e8:	401a      	ands	r2, r3
 80055ea:	2380      	movs	r3, #128	; 0x80
 80055ec:	021b      	lsls	r3, r3, #8
 80055ee:	429a      	cmp	r2, r3
 80055f0:	d101      	bne.n	80055f6 <HAL_ADC_Init+0xa6>
 80055f2:	2301      	movs	r3, #1
 80055f4:	e000      	b.n	80055f8 <HAL_ADC_Init+0xa8>
 80055f6:	2300      	movs	r3, #0
 80055f8:	2b00      	cmp	r3, #0
 80055fa:	d116      	bne.n	800562a <HAL_ADC_Init+0xda>
      /* parameters):                                                         */
      /*   - internal measurement paths: Vbat, temperature sensor, Vref       */
      /*     (set into HAL_ADC_ConfigChannel() )                              */
     
      /* Configuration of ADC resolution                                      */
      MODIFY_REG(hadc->Instance->CFGR1,
 80055fc:	687b      	ldr	r3, [r7, #4]
 80055fe:	681b      	ldr	r3, [r3, #0]
 8005600:	68db      	ldr	r3, [r3, #12]
 8005602:	2218      	movs	r2, #24
 8005604:	4393      	bics	r3, r2
 8005606:	0019      	movs	r1, r3
 8005608:	687b      	ldr	r3, [r7, #4]
 800560a:	689a      	ldr	r2, [r3, #8]
 800560c:	687b      	ldr	r3, [r7, #4]
 800560e:	681b      	ldr	r3, [r3, #0]
 8005610:	430a      	orrs	r2, r1
 8005612:	60da      	str	r2, [r3, #12]
                 ADC_CFGR1_RES        ,
                 hadc->Init.Resolution );
      
      /* Configuration of ADC clock mode: clock source AHB or HSI with        */
      /* selectable prescaler                                                 */
      MODIFY_REG(hadc->Instance->CFGR2    ,
 8005614:	687b      	ldr	r3, [r7, #4]
 8005616:	681b      	ldr	r3, [r3, #0]
 8005618:	691b      	ldr	r3, [r3, #16]
 800561a:	009b      	lsls	r3, r3, #2
 800561c:	0899      	lsrs	r1, r3, #2
 800561e:	687b      	ldr	r3, [r7, #4]
 8005620:	685a      	ldr	r2, [r3, #4]
 8005622:	687b      	ldr	r3, [r7, #4]
 8005624:	681b      	ldr	r3, [r3, #0]
 8005626:	430a      	orrs	r2, r1
 8005628:	611a      	str	r2, [r3, #16]
    /*  - external trigger polarity                                           */
    /*  - data alignment                                                      */
    /*  - resolution                                                          */
    /*  - scan direction                                                      */
    /*  - DMA continuous request                                              */
    hadc->Instance->CFGR1 &= ~( ADC_CFGR1_DISCEN  |
 800562a:	687b      	ldr	r3, [r7, #4]
 800562c:	681b      	ldr	r3, [r3, #0]
 800562e:	68da      	ldr	r2, [r3, #12]
 8005630:	687b      	ldr	r3, [r7, #4]
 8005632:	681b      	ldr	r3, [r3, #0]
 8005634:	4964      	ldr	r1, [pc, #400]	; (80057c8 <HAL_ADC_Init+0x278>)
 8005636:	400a      	ands	r2, r1
 8005638:	60da      	str	r2, [r3, #12]
                                ADC_CFGR1_EXTEN   |
                                ADC_CFGR1_ALIGN   |
                                ADC_CFGR1_SCANDIR |
                                ADC_CFGR1_DMACFG   );

    tmpCFGR1 |= (ADC_CFGR1_AUTOWAIT((uint32_t)hadc->Init.LowPowerAutoWait)        |
 800563a:	687b      	ldr	r3, [r7, #4]
 800563c:	7e1b      	ldrb	r3, [r3, #24]
 800563e:	039a      	lsls	r2, r3, #14
                 ADC_CFGR1_AUTOOFF((uint32_t)hadc->Init.LowPowerAutoPowerOff)     |
 8005640:	687b      	ldr	r3, [r7, #4]
 8005642:	7e5b      	ldrb	r3, [r3, #25]
 8005644:	03db      	lsls	r3, r3, #15
    tmpCFGR1 |= (ADC_CFGR1_AUTOWAIT((uint32_t)hadc->Init.LowPowerAutoWait)        |
 8005646:	431a      	orrs	r2, r3
                 ADC_CFGR1_CONTINUOUS((uint32_t)hadc->Init.ContinuousConvMode)    |
 8005648:	687b      	ldr	r3, [r7, #4]
 800564a:	7e9b      	ldrb	r3, [r3, #26]
 800564c:	035b      	lsls	r3, r3, #13
                 ADC_CFGR1_AUTOOFF((uint32_t)hadc->Init.LowPowerAutoPowerOff)     |
 800564e:	431a      	orrs	r2, r3
                 ADC_CFGR1_OVERRUN(hadc->Init.Overrun)                            |
 8005650:	687b      	ldr	r3, [r7, #4]
 8005652:	6a9b      	ldr	r3, [r3, #40]	; 0x28
 8005654:	2b01      	cmp	r3, #1
 8005656:	d002      	beq.n	800565e <HAL_ADC_Init+0x10e>
 8005658:	2380      	movs	r3, #128	; 0x80
 800565a:	015b      	lsls	r3, r3, #5
 800565c:	e000      	b.n	8005660 <HAL_ADC_Init+0x110>
 800565e:	2300      	movs	r3, #0
                 ADC_CFGR1_CONTINUOUS((uint32_t)hadc->Init.ContinuousConvMode)    |
 8005660:	431a      	orrs	r2, r3
                 hadc->Init.DataAlign                                             |
 8005662:	687b      	ldr	r3, [r7, #4]
 8005664:	68db      	ldr	r3, [r3, #12]
                 ADC_CFGR1_OVERRUN(hadc->Init.Overrun)                            |
 8005666:	431a      	orrs	r2, r3
                 ADC_SCANDIR(hadc->Init.ScanConvMode)                             |
 8005668:	687b      	ldr	r3, [r7, #4]
 800566a:	691b      	ldr	r3, [r3, #16]
 800566c:	2b02      	cmp	r3, #2
 800566e:	d101      	bne.n	8005674 <HAL_ADC_Init+0x124>
 8005670:	2304      	movs	r3, #4
 8005672:	e000      	b.n	8005676 <HAL_ADC_Init+0x126>
 8005674:	2300      	movs	r3, #0
                 hadc->Init.DataAlign                                             |
 8005676:	431a      	orrs	r2, r3
                 ADC_CFGR1_DMACONTREQ((uint32_t)hadc->Init.DMAContinuousRequests)  );
 8005678:	687b      	ldr	r3, [r7, #4]
 800567a:	2124      	movs	r1, #36	; 0x24
 800567c:	5c5b      	ldrb	r3, [r3, r1]
 800567e:	005b      	lsls	r3, r3, #1
                 ADC_SCANDIR(hadc->Init.ScanConvMode)                             |
 8005680:	4313      	orrs	r3, r2
    tmpCFGR1 |= (ADC_CFGR1_AUTOWAIT((uint32_t)hadc->Init.LowPowerAutoWait)        |
 8005682:	68ba      	ldr	r2, [r7, #8]
 8005684:	4313      	orrs	r3, r2
 8005686:	60bb      	str	r3, [r7, #8]
    
    /* Enable discontinuous mode only if continuous mode is disabled */
    if (hadc->Init.DiscontinuousConvMode == ENABLE)
 8005688:	687b      	ldr	r3, [r7, #4]
 800568a:	7edb      	ldrb	r3, [r3, #27]
 800568c:	2b01      	cmp	r3, #1
 800568e:	d115      	bne.n	80056bc <HAL_ADC_Init+0x16c>
    {
      if (hadc->Init.ContinuousConvMode == DISABLE)
 8005690:	687b      	ldr	r3, [r7, #4]
 8005692:	7e9b      	ldrb	r3, [r3, #26]
 8005694:	2b00      	cmp	r3, #0
 8005696:	d105      	bne.n	80056a4 <HAL_ADC_Init+0x154>
      {
        /* Enable the selected ADC group regular discontinuous mode */
        tmpCFGR1 |= ADC_CFGR1_DISCEN;
 8005698:	68bb      	ldr	r3, [r7, #8]
 800569a:	2280      	movs	r2, #128	; 0x80
 800569c:	0252      	lsls	r2, r2, #9
 800569e:	4313      	orrs	r3, r2
 80056a0:	60bb      	str	r3, [r7, #8]
 80056a2:	e00b      	b.n	80056bc <HAL_ADC_Init+0x16c>
        /* ADC regular group discontinuous was intended to be enabled,        */
        /* but ADC regular group modes continuous and sequencer discontinuous */
        /* cannot be enabled simultaneously.                                  */
        
        /* Update ADC state machine to error */
        SET_BIT(hadc->State, HAL_ADC_STATE_ERROR_CONFIG);
 80056a4:	687b      	ldr	r3, [r7, #4]
 80056a6:	6b9b      	ldr	r3, [r3, #56]	; 0x38
 80056a8:	2220      	movs	r2, #32
 80056aa:	431a      	orrs	r2, r3
 80056ac:	687b      	ldr	r3, [r7, #4]
 80056ae:	639a      	str	r2, [r3, #56]	; 0x38
        
        /* Set ADC error code to ADC IP internal error */
        SET_BIT(hadc->ErrorCode, HAL_ADC_ERROR_INTERNAL);
 80056b0:	687b      	ldr	r3, [r7, #4]
 80056b2:	6bdb      	ldr	r3, [r3, #60]	; 0x3c
 80056b4:	2201      	movs	r2, #1
 80056b6:	431a      	orrs	r2, r3
 80056b8:	687b      	ldr	r3, [r7, #4]
 80056ba:	63da      	str	r2, [r3, #60]	; 0x3c
    /* Enable external trigger if trigger selection is different of software  */
    /* start.                                                                 */
    /* Note: This configuration keeps the hardware feature of parameter       */
    /*       ExternalTrigConvEdge "trigger edge none" equivalent to           */
    /*       software start.                                                  */
    if (hadc->Init.ExternalTrigConv != ADC_SOFTWARE_START)
 80056bc:	687b      	ldr	r3, [r7, #4]
 80056be:	69da      	ldr	r2, [r3, #28]
 80056c0:	23c2      	movs	r3, #194	; 0xc2
 80056c2:	33ff      	adds	r3, #255	; 0xff
 80056c4:	429a      	cmp	r2, r3
 80056c6:	d007      	beq.n	80056d8 <HAL_ADC_Init+0x188>
    {
      tmpCFGR1 |= ( hadc->Init.ExternalTrigConv    |
 80056c8:	687b      	ldr	r3, [r7, #4]
 80056ca:	69da      	ldr	r2, [r3, #28]
                    hadc->Init.ExternalTrigConvEdge );
 80056cc:	687b      	ldr	r3, [r7, #4]
 80056ce:	6a1b      	ldr	r3, [r3, #32]
      tmpCFGR1 |= ( hadc->Init.ExternalTrigConv    |
 80056d0:	4313      	orrs	r3, r2
 80056d2:	68ba      	ldr	r2, [r7, #8]
 80056d4:	4313      	orrs	r3, r2
 80056d6:	60bb      	str	r3, [r7, #8]
    }
    
    /* Update ADC configuration register with previous settings */
    hadc->Instance->CFGR1 |= tmpCFGR1;
 80056d8:	687b      	ldr	r3, [r7, #4]
 80056da:	681b      	ldr	r3, [r3, #0]
 80056dc:	68d9      	ldr	r1, [r3, #12]
 80056de:	687b      	ldr	r3, [r7, #4]
 80056e0:	681b      	ldr	r3, [r3, #0]
 80056e2:	68ba      	ldr	r2, [r7, #8]
 80056e4:	430a      	orrs	r2, r1
 80056e6:	60da      	str	r2, [r3, #12]
    /* Management of parameters "SamplingTimeCommon" and "SamplingTime"       */
    /* (obsolete): sampling time set in this function if parameter            */
    /*  "SamplingTimeCommon" has been set to a valid sampling time.           */
    /* Otherwise, sampling time is set into ADC channel initialization        */
    /* structure with parameter "SamplingTime" (obsolete).                    */
    if (IS_ADC_SAMPLE_TIME(hadc->Init.SamplingTimeCommon))
 80056e8:	687b      	ldr	r3, [r7, #4]
 80056ea:	6ada      	ldr	r2, [r3, #44]	; 0x2c
 80056ec:	2380      	movs	r3, #128	; 0x80
 80056ee:	055b      	lsls	r3, r3, #21
 80056f0:	429a      	cmp	r2, r3
 80056f2:	d01b      	beq.n	800572c <HAL_ADC_Init+0x1dc>
 80056f4:	687b      	ldr	r3, [r7, #4]
 80056f6:	6adb      	ldr	r3, [r3, #44]	; 0x2c
 80056f8:	2b01      	cmp	r3, #1
 80056fa:	d017      	beq.n	800572c <HAL_ADC_Init+0x1dc>
 80056fc:	687b      	ldr	r3, [r7, #4]
 80056fe:	6adb      	ldr	r3, [r3, #44]	; 0x2c
 8005700:	2b02      	cmp	r3, #2
 8005702:	d013      	beq.n	800572c <HAL_ADC_Init+0x1dc>
 8005704:	687b      	ldr	r3, [r7, #4]
 8005706:	6adb      	ldr	r3, [r3, #44]	; 0x2c
 8005708:	2b03      	cmp	r3, #3
 800570a:	d00f      	beq.n	800572c <HAL_ADC_Init+0x1dc>
 800570c:	687b      	ldr	r3, [r7, #4]
 800570e:	6adb      	ldr	r3, [r3, #44]	; 0x2c
 8005710:	2b04      	cmp	r3, #4
 8005712:	d00b      	beq.n	800572c <HAL_ADC_Init+0x1dc>
 8005714:	687b      	ldr	r3, [r7, #4]
 8005716:	6adb      	ldr	r3, [r3, #44]	; 0x2c
 8005718:	2b05      	cmp	r3, #5
 800571a:	d007      	beq.n	800572c <HAL_ADC_Init+0x1dc>
 800571c:	687b      	ldr	r3, [r7, #4]
 800571e:	6adb      	ldr	r3, [r3, #44]	; 0x2c
 8005720:	2b06      	cmp	r3, #6
 8005722:	d003      	beq.n	800572c <HAL_ADC_Init+0x1dc>
 8005724:	687b      	ldr	r3, [r7, #4]
 8005726:	6adb      	ldr	r3, [r3, #44]	; 0x2c
 8005728:	2b07      	cmp	r3, #7
 800572a:	d112      	bne.n	8005752 <HAL_ADC_Init+0x202>
    {
      /* Channel sampling time configuration */
      /* Clear the old sample time */
      hadc->Instance->SMPR &= ~(ADC_SMPR_SMP);
 800572c:	687b      	ldr	r3, [r7, #4]
 800572e:	681b      	ldr	r3, [r3, #0]
 8005730:	695a      	ldr	r2, [r3, #20]
 8005732:	687b      	ldr	r3, [r7, #4]
 8005734:	681b      	ldr	r3, [r3, #0]
 8005736:	2107      	movs	r1, #7
 8005738:	438a      	bics	r2, r1
 800573a:	615a      	str	r2, [r3, #20]
      
      /* Set the new sample time */
      hadc->Instance->SMPR |= ADC_SMPR_SET(hadc->Init.SamplingTimeCommon);
 800573c:	687b      	ldr	r3, [r7, #4]
 800573e:	681b      	ldr	r3, [r3, #0]
 8005740:	6959      	ldr	r1, [r3, #20]
 8005742:	687b      	ldr	r3, [r7, #4]
 8005744:	6adb      	ldr	r3, [r3, #44]	; 0x2c
 8005746:	2207      	movs	r2, #7
 8005748:	401a      	ands	r2, r3
 800574a:	687b      	ldr	r3, [r7, #4]
 800574c:	681b      	ldr	r3, [r3, #0]
 800574e:	430a      	orrs	r2, r1
 8005750:	615a      	str	r2, [r3, #20]
    /* Check back that ADC registers have effectively been configured to      */
    /* ensure of no potential problem of ADC core IP clocking.                */
    /* Check through register CFGR1 (excluding analog watchdog configuration: */
    /* set into separate dedicated function, and bits of ADC resolution set   */
    /* out of temporary variable 'tmpCFGR1').                                 */
    if ((hadc->Instance->CFGR1 & ~(ADC_CFGR1_AWDCH | ADC_CFGR1_AWDEN | ADC_CFGR1_AWDSGL | ADC_CFGR1_RES))
 8005752:	687b      	ldr	r3, [r7, #4]
 8005754:	681b      	ldr	r3, [r3, #0]
 8005756:	68db      	ldr	r3, [r3, #12]
 8005758:	4a1c      	ldr	r2, [pc, #112]	; (80057cc <HAL_ADC_Init+0x27c>)
 800575a:	4013      	ands	r3, r2
 800575c:	68ba      	ldr	r2, [r7, #8]
 800575e:	429a      	cmp	r2, r3
 8005760:	d10b      	bne.n	800577a <HAL_ADC_Init+0x22a>
         == tmpCFGR1)
    {
      /* Set ADC error code to none */
      ADC_CLEAR_ERRORCODE(hadc);
 8005762:	687b      	ldr	r3, [r7, #4]
 8005764:	2200      	movs	r2, #0
 8005766:	63da      	str	r2, [r3, #60]	; 0x3c
      
      /* Set the ADC state */
      ADC_STATE_CLR_SET(hadc->State,
 8005768:	687b      	ldr	r3, [r7, #4]
 800576a:	6b9b      	ldr	r3, [r3, #56]	; 0x38
 800576c:	2203      	movs	r2, #3
 800576e:	4393      	bics	r3, r2
 8005770:	2201      	movs	r2, #1
 8005772:	431a      	orrs	r2, r3
 8005774:	687b      	ldr	r3, [r7, #4]
 8005776:	639a      	str	r2, [r3, #56]	; 0x38
    if ((hadc->Instance->CFGR1 & ~(ADC_CFGR1_AWDCH | ADC_CFGR1_AWDEN | ADC_CFGR1_AWDSGL | ADC_CFGR1_RES))
 8005778:	e01c      	b.n	80057b4 <HAL_ADC_Init+0x264>
                        HAL_ADC_STATE_READY);
    }
    else
    {
      /* Update ADC state machine to error */
      ADC_STATE_CLR_SET(hadc->State,
 800577a:	687b      	ldr	r3, [r7, #4]
 800577c:	6b9b      	ldr	r3, [r3, #56]	; 0x38
 800577e:	2212      	movs	r2, #18
 8005780:	4393      	bics	r3, r2
 8005782:	2210      	movs	r2, #16
 8005784:	431a      	orrs	r2, r3
 8005786:	687b      	ldr	r3, [r7, #4]
 8005788:	639a      	str	r2, [r3, #56]	; 0x38
                        HAL_ADC_STATE_BUSY_INTERNAL,
                        HAL_ADC_STATE_ERROR_INTERNAL);
      
      /* Set ADC error code to ADC IP internal error */
      SET_BIT(hadc->ErrorCode, HAL_ADC_ERROR_INTERNAL);
 800578a:	687b      	ldr	r3, [r7, #4]
 800578c:	6bdb      	ldr	r3, [r3, #60]	; 0x3c
 800578e:	2201      	movs	r2, #1
 8005790:	431a      	orrs	r2, r3
 8005792:	687b      	ldr	r3, [r7, #4]
 8005794:	63da      	str	r2, [r3, #60]	; 0x3c
      
      tmp_hal_status = HAL_ERROR;
 8005796:	230f      	movs	r3, #15
 8005798:	18fb      	adds	r3, r7, r3
 800579a:	2201      	movs	r2, #1
 800579c:	701a      	strb	r2, [r3, #0]
    if ((hadc->Instance->CFGR1 & ~(ADC_CFGR1_AWDCH | ADC_CFGR1_AWDEN | ADC_CFGR1_AWDSGL | ADC_CFGR1_RES))
 800579e:	e009      	b.n	80057b4 <HAL_ADC_Init+0x264>
  
  }
  else
  {
    /* Update ADC state machine to error */
    SET_BIT(hadc->State, HAL_ADC_STATE_ERROR_INTERNAL);
 80057a0:	687b      	ldr	r3, [r7, #4]
 80057a2:	6b9b      	ldr	r3, [r3, #56]	; 0x38
 80057a4:	2210      	movs	r2, #16
 80057a6:	431a      	orrs	r2, r3
 80057a8:	687b      	ldr	r3, [r7, #4]
 80057aa:	639a      	str	r2, [r3, #56]	; 0x38
        
    tmp_hal_status = HAL_ERROR;
 80057ac:	230f      	movs	r3, #15
 80057ae:	18fb      	adds	r3, r7, r3
 80057b0:	2201      	movs	r2, #1
 80057b2:	701a      	strb	r2, [r3, #0]
  }
  
  /* Return function status */
  return tmp_hal_status;
 80057b4:	230f      	movs	r3, #15
 80057b6:	18fb      	adds	r3, r7, r3
 80057b8:	781b      	ldrb	r3, [r3, #0]
}
 80057ba:	0018      	movs	r0, r3
 80057bc:	46bd      	mov	sp, r7
 80057be:	b004      	add	sp, #16
 80057c0:	bd80      	pop	{r7, pc}
 80057c2:	46c0      	nop			; (mov r8, r8)
 80057c4:	fffffefd 	.word	0xfffffefd
 80057c8:	fffe0219 	.word	0xfffe0219
 80057cc:	833fffe7 	.word	0x833fffe7

080057d0 <HAL_ADC_Start>:
  *         Interruptions enabled in this function: None.
  * @param  hadc ADC handle
  * @retval HAL status
  */
HAL_StatusTypeDef HAL_ADC_Start(ADC_HandleTypeDef* hadc)
{
 80057d0:	b590      	push	{r4, r7, lr}
 80057d2:	b085      	sub	sp, #20
 80057d4:	af00      	add	r7, sp, #0
 80057d6:	6078      	str	r0, [r7, #4]
  HAL_StatusTypeDef tmp_hal_status = HAL_OK;
 80057d8:	230f      	movs	r3, #15
 80057da:	18fb      	adds	r3, r7, r3
 80057dc:	2200      	movs	r2, #0
 80057de:	701a      	strb	r2, [r3, #0]

  /* Check the parameters */
  assert_param(IS_ADC_ALL_INSTANCE(hadc->Instance));

  /* Perform ADC enable and conversion start if no conversion is on going */
  if (ADC_IS_CONVERSION_ONGOING_REGULAR(hadc) == RESET)
 80057e0:	687b      	ldr	r3, [r7, #4]
 80057e2:	681b      	ldr	r3, [r3, #0]
 80057e4:	689b      	ldr	r3, [r3, #8]
 80057e6:	2204      	movs	r2, #4
 80057e8:	4013      	ands	r3, r2
 80057ea:	d138      	bne.n	800585e <HAL_ADC_Start+0x8e>
  {
    /* Process locked */
    __HAL_LOCK(hadc);
 80057ec:	687b      	ldr	r3, [r7, #4]
 80057ee:	2234      	movs	r2, #52	; 0x34
 80057f0:	5c9b      	ldrb	r3, [r3, r2]
 80057f2:	2b01      	cmp	r3, #1
 80057f4:	d101      	bne.n	80057fa <HAL_ADC_Start+0x2a>
 80057f6:	2302      	movs	r3, #2
 80057f8:	e038      	b.n	800586c <HAL_ADC_Start+0x9c>
 80057fa:	687b      	ldr	r3, [r7, #4]
 80057fc:	2234      	movs	r2, #52	; 0x34
 80057fe:	2101      	movs	r1, #1
 8005800:	5499      	strb	r1, [r3, r2]
      
    /* Enable the ADC peripheral */
    /* If low power mode AutoPowerOff is enabled, power-on/off phases are     */
    /* performed automatically by hardware.                                   */
    if (hadc->Init.LowPowerAutoPowerOff != ENABLE)
 8005802:	687b      	ldr	r3, [r7, #4]
 8005804:	7e5b      	ldrb	r3, [r3, #25]
 8005806:	2b01      	cmp	r3, #1
 8005808:	d007      	beq.n	800581a <HAL_ADC_Start+0x4a>
    {
      tmp_hal_status = ADC_Enable(hadc);
 800580a:	230f      	movs	r3, #15
 800580c:	18fc      	adds	r4, r7, r3
 800580e:	687b      	ldr	r3, [r7, #4]
 8005810:	0018      	movs	r0, r3
 8005812:	f000 f933 	bl	8005a7c <ADC_Enable>
 8005816:	0003      	movs	r3, r0
 8005818:	7023      	strb	r3, [r4, #0]
    }
    
    /* Start conversion if ADC is effectively enabled */
    if (tmp_hal_status == HAL_OK)
 800581a:	230f      	movs	r3, #15
 800581c:	18fb      	adds	r3, r7, r3
 800581e:	781b      	ldrb	r3, [r3, #0]
 8005820:	2b00      	cmp	r3, #0
 8005822:	d120      	bne.n	8005866 <HAL_ADC_Start+0x96>
    {
      /* Set ADC state                                                        */
      /* - Clear state bitfield related to regular group conversion results   */
      /* - Set state bitfield related to regular operation                    */
      ADC_STATE_CLR_SET(hadc->State,
 8005824:	687b      	ldr	r3, [r7, #4]
 8005826:	6b9b      	ldr	r3, [r3, #56]	; 0x38
 8005828:	4a12      	ldr	r2, [pc, #72]	; (8005874 <HAL_ADC_Start+0xa4>)
 800582a:	4013      	ands	r3, r2
 800582c:	2280      	movs	r2, #128	; 0x80
 800582e:	0052      	lsls	r2, r2, #1
 8005830:	431a      	orrs	r2, r3
 8005832:	687b      	ldr	r3, [r7, #4]
 8005834:	639a      	str	r2, [r3, #56]	; 0x38
                        HAL_ADC_STATE_READY | HAL_ADC_STATE_REG_EOC | HAL_ADC_STATE_REG_OVR | HAL_ADC_STATE_REG_EOSMP,
                        HAL_ADC_STATE_REG_BUSY);
      
      /* Reset ADC all error code fields */
      ADC_CLEAR_ERRORCODE(hadc);
 8005836:	687b      	ldr	r3, [r7, #4]
 8005838:	2200      	movs	r2, #0
 800583a:	63da      	str	r2, [r3, #60]	; 0x3c
      
      /* Process unlocked */
      /* Unlock before starting ADC conversions: in case of potential         */
      /* interruption, to let the process to ADC IRQ Handler.                 */
      __HAL_UNLOCK(hadc);
 800583c:	687b      	ldr	r3, [r7, #4]
 800583e:	2234      	movs	r2, #52	; 0x34
 8005840:	2100      	movs	r1, #0
 8005842:	5499      	strb	r1, [r3, r2]
      
      /* Clear regular group conversion flag and overrun flag */
      /* (To ensure of no unknown state from potential previous ADC           */
      /* operations)                                                          */
      __HAL_ADC_CLEAR_FLAG(hadc, (ADC_FLAG_EOC | ADC_FLAG_EOS | ADC_FLAG_OVR));
 8005844:	687b      	ldr	r3, [r7, #4]
 8005846:	681b      	ldr	r3, [r3, #0]
 8005848:	221c      	movs	r2, #28
 800584a:	601a      	str	r2, [r3, #0]
      
      /* Enable conversion of regular group.                                  */
      /* If software start has been selected, conversion starts immediately.  */
      /* If external trigger has been selected, conversion will start at next */
      /* trigger event.                                                       */
      hadc->Instance->CR |= ADC_CR_ADSTART;
 800584c:	687b      	ldr	r3, [r7, #4]
 800584e:	681b      	ldr	r3, [r3, #0]
 8005850:	689a      	ldr	r2, [r3, #8]
 8005852:	687b      	ldr	r3, [r7, #4]
 8005854:	681b      	ldr	r3, [r3, #0]
 8005856:	2104      	movs	r1, #4
 8005858:	430a      	orrs	r2, r1
 800585a:	609a      	str	r2, [r3, #8]
 800585c:	e003      	b.n	8005866 <HAL_ADC_Start+0x96>
    }
  }
  else
  {
    tmp_hal_status = HAL_BUSY;
 800585e:	230f      	movs	r3, #15
 8005860:	18fb      	adds	r3, r7, r3
 8005862:	2202      	movs	r2, #2
 8005864:	701a      	strb	r2, [r3, #0]
  }
  
  /* Return function status */
  return tmp_hal_status;
 8005866:	230f      	movs	r3, #15
 8005868:	18fb      	adds	r3, r7, r3
 800586a:	781b      	ldrb	r3, [r3, #0]
}
 800586c:	0018      	movs	r0, r3
 800586e:	46bd      	mov	sp, r7
 8005870:	b005      	add	sp, #20
 8005872:	bd90      	pop	{r4, r7, pc}
 8005874:	fffff0fe 	.word	0xfffff0fe

08005878 <HAL_ADC_GetValue>:
  *         or @ref __HAL_ADC_CLEAR_FLAG(&hadc, ADC_FLAG_EOS).
  * @param  hadc ADC handle
  * @retval ADC group regular conversion data
  */
uint32_t HAL_ADC_GetValue(ADC_HandleTypeDef* hadc)
{
 8005878:	b580      	push	{r7, lr}
 800587a:	b082      	sub	sp, #8
 800587c:	af00      	add	r7, sp, #0
 800587e:	6078      	str	r0, [r7, #4]

  /* Note: EOC flag is not cleared here by software because automatically     */
  /*       cleared by hardware when reading register DR.                      */
  
  /* Return ADC converted value */ 
  return hadc->Instance->DR;
 8005880:	687b      	ldr	r3, [r7, #4]
 8005882:	681b      	ldr	r3, [r3, #0]
 8005884:	6c1b      	ldr	r3, [r3, #64]	; 0x40
}
 8005886:	0018      	movs	r0, r3
 8005888:	46bd      	mov	sp, r7
 800588a:	b002      	add	sp, #8
 800588c:	bd80      	pop	{r7, pc}
	...

08005890 <HAL_ADC_ConfigChannel>:
  * @param  hadc ADC handle
  * @param  sConfig Structure of ADC channel for regular group.
  * @retval HAL status
  */
HAL_StatusTypeDef HAL_ADC_ConfigChannel(ADC_HandleTypeDef* hadc, ADC_ChannelConfTypeDef* sConfig)
{
 8005890:	b580      	push	{r7, lr}
 8005892:	b084      	sub	sp, #16
 8005894:	af00      	add	r7, sp, #0
 8005896:	6078      	str	r0, [r7, #4]
 8005898:	6039      	str	r1, [r7, #0]
  HAL_StatusTypeDef tmp_hal_status = HAL_OK;
 800589a:	230f      	movs	r3, #15
 800589c:	18fb      	adds	r3, r7, r3
 800589e:	2200      	movs	r2, #0
 80058a0:	701a      	strb	r2, [r3, #0]
  __IO uint32_t wait_loop_index = 0U;
 80058a2:	2300      	movs	r3, #0
 80058a4:	60bb      	str	r3, [r7, #8]
  /* Check the parameters */
  assert_param(IS_ADC_ALL_INSTANCE(hadc->Instance));
  assert_param(IS_ADC_CHANNEL(sConfig->Channel));
  assert_param(IS_ADC_RANK(sConfig->Rank));
  
  if (! IS_ADC_SAMPLE_TIME(hadc->Init.SamplingTimeCommon))
 80058a6:	687b      	ldr	r3, [r7, #4]
 80058a8:	6ada      	ldr	r2, [r3, #44]	; 0x2c
 80058aa:	2380      	movs	r3, #128	; 0x80
 80058ac:	055b      	lsls	r3, r3, #21
 80058ae:	429a      	cmp	r2, r3
 80058b0:	d011      	beq.n	80058d6 <HAL_ADC_ConfigChannel+0x46>
 80058b2:	687b      	ldr	r3, [r7, #4]
 80058b4:	6adb      	ldr	r3, [r3, #44]	; 0x2c
 80058b6:	2b01      	cmp	r3, #1
 80058b8:	d00d      	beq.n	80058d6 <HAL_ADC_ConfigChannel+0x46>
 80058ba:	687b      	ldr	r3, [r7, #4]
 80058bc:	6adb      	ldr	r3, [r3, #44]	; 0x2c
 80058be:	2b02      	cmp	r3, #2
 80058c0:	d009      	beq.n	80058d6 <HAL_ADC_ConfigChannel+0x46>
 80058c2:	687b      	ldr	r3, [r7, #4]
 80058c4:	6adb      	ldr	r3, [r3, #44]	; 0x2c
 80058c6:	2b03      	cmp	r3, #3
 80058c8:	d005      	beq.n	80058d6 <HAL_ADC_ConfigChannel+0x46>
 80058ca:	687b      	ldr	r3, [r7, #4]
 80058cc:	6adb      	ldr	r3, [r3, #44]	; 0x2c
 80058ce:	2b04      	cmp	r3, #4
 80058d0:	d001      	beq.n	80058d6 <HAL_ADC_ConfigChannel+0x46>
 80058d2:	687b      	ldr	r3, [r7, #4]
 80058d4:	6adb      	ldr	r3, [r3, #44]	; 0x2c
  {
    assert_param(IS_ADC_SAMPLE_TIME(sConfig->SamplingTime));
  }
  
  /* Process locked */
  __HAL_LOCK(hadc);
 80058d6:	687b      	ldr	r3, [r7, #4]
 80058d8:	2234      	movs	r2, #52	; 0x34
 80058da:	5c9b      	ldrb	r3, [r3, r2]
 80058dc:	2b01      	cmp	r3, #1
 80058de:	d101      	bne.n	80058e4 <HAL_ADC_ConfigChannel+0x54>
 80058e0:	2302      	movs	r3, #2
 80058e2:	e0bb      	b.n	8005a5c <HAL_ADC_ConfigChannel+0x1cc>
 80058e4:	687b      	ldr	r3, [r7, #4]
 80058e6:	2234      	movs	r2, #52	; 0x34
 80058e8:	2101      	movs	r1, #1
 80058ea:	5499      	strb	r1, [r3, r2]
  /* Parameters that can be updated when ADC is disabled or enabled without   */
  /* conversion on going on regular group:                                    */
  /*  - Channel number                                                        */
  /*  - Channel sampling time                                                 */
  /*  - Management of internal measurement channels: VrefInt/TempSensor/Vbat  */
  if (ADC_IS_CONVERSION_ONGOING_REGULAR(hadc) == RESET)
 80058ec:	687b      	ldr	r3, [r7, #4]
 80058ee:	681b      	ldr	r3, [r3, #0]
 80058f0:	689b      	ldr	r3, [r3, #8]
 80058f2:	2204      	movs	r2, #4
 80058f4:	4013      	ands	r3, r2
 80058f6:	d000      	beq.n	80058fa <HAL_ADC_ConfigChannel+0x6a>
 80058f8:	e09f      	b.n	8005a3a <HAL_ADC_ConfigChannel+0x1aa>
  {
    /* Configure channel: depending on rank setting, add it or remove it from */
    /* ADC conversion sequencer.                                              */
    if (sConfig->Rank != ADC_RANK_NONE)
 80058fa:	683b      	ldr	r3, [r7, #0]
 80058fc:	685b      	ldr	r3, [r3, #4]
 80058fe:	4a59      	ldr	r2, [pc, #356]	; (8005a64 <HAL_ADC_ConfigChannel+0x1d4>)
 8005900:	4293      	cmp	r3, r2
 8005902:	d100      	bne.n	8005906 <HAL_ADC_ConfigChannel+0x76>
 8005904:	e077      	b.n	80059f6 <HAL_ADC_ConfigChannel+0x166>
    {
      /* Regular sequence configuration */
      /* Set the channel selection register from the selected channel */
      hadc->Instance->CHSELR |= ADC_CHSELR_CHANNEL(sConfig->Channel);
 8005906:	687b      	ldr	r3, [r7, #4]
 8005908:	681b      	ldr	r3, [r3, #0]
 800590a:	6a99      	ldr	r1, [r3, #40]	; 0x28
 800590c:	683b      	ldr	r3, [r7, #0]
 800590e:	681b      	ldr	r3, [r3, #0]
 8005910:	2201      	movs	r2, #1
 8005912:	409a      	lsls	r2, r3
 8005914:	687b      	ldr	r3, [r7, #4]
 8005916:	681b      	ldr	r3, [r3, #0]
 8005918:	430a      	orrs	r2, r1
 800591a:	629a      	str	r2, [r3, #40]	; 0x28
      /* Channel sampling time configuration */
      /* Management of parameters "SamplingTimeCommon" and "SamplingTime"     */
      /* (obsolete): sampling time set in this function with                  */
      /* parameter "SamplingTime" (obsolete) only if not already set into     */
      /* ADC initialization structure with parameter "SamplingTimeCommon".    */
      if (! IS_ADC_SAMPLE_TIME(hadc->Init.SamplingTimeCommon))
 800591c:	687b      	ldr	r3, [r7, #4]
 800591e:	6ada      	ldr	r2, [r3, #44]	; 0x2c
 8005920:	2380      	movs	r3, #128	; 0x80
 8005922:	055b      	lsls	r3, r3, #21
 8005924:	429a      	cmp	r2, r3
 8005926:	d037      	beq.n	8005998 <HAL_ADC_ConfigChannel+0x108>
 8005928:	687b      	ldr	r3, [r7, #4]
 800592a:	6adb      	ldr	r3, [r3, #44]	; 0x2c
 800592c:	2b01      	cmp	r3, #1
 800592e:	d033      	beq.n	8005998 <HAL_ADC_ConfigChannel+0x108>
 8005930:	687b      	ldr	r3, [r7, #4]
 8005932:	6adb      	ldr	r3, [r3, #44]	; 0x2c
 8005934:	2b02      	cmp	r3, #2
 8005936:	d02f      	beq.n	8005998 <HAL_ADC_ConfigChannel+0x108>
 8005938:	687b      	ldr	r3, [r7, #4]
 800593a:	6adb      	ldr	r3, [r3, #44]	; 0x2c
 800593c:	2b03      	cmp	r3, #3
 800593e:	d02b      	beq.n	8005998 <HAL_ADC_ConfigChannel+0x108>
 8005940:	687b      	ldr	r3, [r7, #4]
 8005942:	6adb      	ldr	r3, [r3, #44]	; 0x2c
 8005944:	2b04      	cmp	r3, #4
 8005946:	d027      	beq.n	8005998 <HAL_ADC_ConfigChannel+0x108>
 8005948:	687b      	ldr	r3, [r7, #4]
 800594a:	6adb      	ldr	r3, [r3, #44]	; 0x2c
 800594c:	2b05      	cmp	r3, #5
 800594e:	d023      	beq.n	8005998 <HAL_ADC_ConfigChannel+0x108>
 8005950:	687b      	ldr	r3, [r7, #4]
 8005952:	6adb      	ldr	r3, [r3, #44]	; 0x2c
 8005954:	2b06      	cmp	r3, #6
 8005956:	d01f      	beq.n	8005998 <HAL_ADC_ConfigChannel+0x108>
 8005958:	687b      	ldr	r3, [r7, #4]
 800595a:	6adb      	ldr	r3, [r3, #44]	; 0x2c
 800595c:	2b07      	cmp	r3, #7
 800595e:	d01b      	beq.n	8005998 <HAL_ADC_ConfigChannel+0x108>
      {
        /* Modify sampling time if needed (not needed in case of recurrence */
        /* for several channels programmed consecutively into the sequencer)  */
        if (sConfig->SamplingTime != ADC_GET_SAMPLINGTIME(hadc))
 8005960:	683b      	ldr	r3, [r7, #0]
 8005962:	689a      	ldr	r2, [r3, #8]
 8005964:	687b      	ldr	r3, [r7, #4]
 8005966:	681b      	ldr	r3, [r3, #0]
 8005968:	695b      	ldr	r3, [r3, #20]
 800596a:	2107      	movs	r1, #7
 800596c:	400b      	ands	r3, r1
 800596e:	429a      	cmp	r2, r3
 8005970:	d012      	beq.n	8005998 <HAL_ADC_ConfigChannel+0x108>
        {
          /* Channel sampling time configuration */
          /* Clear the old sample time */
          hadc->Instance->SMPR &= ~(ADC_SMPR_SMP);
 8005972:	687b      	ldr	r3, [r7, #4]
 8005974:	681b      	ldr	r3, [r3, #0]
 8005976:	695a      	ldr	r2, [r3, #20]
 8005978:	687b      	ldr	r3, [r7, #4]
 800597a:	681b      	ldr	r3, [r3, #0]
 800597c:	2107      	movs	r1, #7
 800597e:	438a      	bics	r2, r1
 8005980:	615a      	str	r2, [r3, #20]
          
          /* Set the new sample time */
          hadc->Instance->SMPR |= ADC_SMPR_SET(sConfig->SamplingTime);
 8005982:	687b      	ldr	r3, [r7, #4]
 8005984:	681b      	ldr	r3, [r3, #0]
 8005986:	6959      	ldr	r1, [r3, #20]
 8005988:	683b      	ldr	r3, [r7, #0]
 800598a:	689b      	ldr	r3, [r3, #8]
 800598c:	2207      	movs	r2, #7
 800598e:	401a      	ands	r2, r3
 8005990:	687b      	ldr	r3, [r7, #4]
 8005992:	681b      	ldr	r3, [r3, #0]
 8005994:	430a      	orrs	r2, r1
 8005996:	615a      	str	r2, [r3, #20]
      /* internal measurement paths enable: If internal channel selected,     */
      /* enable dedicated internal buffers and path.                          */
      /* Note: these internal measurement paths can be disabled using         */
      /*       HAL_ADC_DeInit() or removing the channel from sequencer with   */
      /*       channel configuration parameter "Rank".                        */
      if(ADC_IS_CHANNEL_INTERNAL(sConfig->Channel))
 8005998:	683b      	ldr	r3, [r7, #0]
 800599a:	681b      	ldr	r3, [r3, #0]
 800599c:	2b10      	cmp	r3, #16
 800599e:	d003      	beq.n	80059a8 <HAL_ADC_ConfigChannel+0x118>
 80059a0:	683b      	ldr	r3, [r7, #0]
 80059a2:	681b      	ldr	r3, [r3, #0]
 80059a4:	2b11      	cmp	r3, #17
 80059a6:	d152      	bne.n	8005a4e <HAL_ADC_ConfigChannel+0x1be>
      {
        /* If Channel_16 is selected, enable Temp. sensor measurement path. */
        /* If Channel_17 is selected, enable VREFINT measurement path. */
        /* If Channel_18 is selected, enable VBAT measurement path. */
        ADC->CCR |= ADC_CHANNEL_INTERNAL_PATH(sConfig->Channel);
 80059a8:	4b2f      	ldr	r3, [pc, #188]	; (8005a68 <HAL_ADC_ConfigChannel+0x1d8>)
 80059aa:	6819      	ldr	r1, [r3, #0]
 80059ac:	683b      	ldr	r3, [r7, #0]
 80059ae:	681b      	ldr	r3, [r3, #0]
 80059b0:	2b10      	cmp	r3, #16
 80059b2:	d102      	bne.n	80059ba <HAL_ADC_ConfigChannel+0x12a>
 80059b4:	2380      	movs	r3, #128	; 0x80
 80059b6:	041b      	lsls	r3, r3, #16
 80059b8:	e001      	b.n	80059be <HAL_ADC_ConfigChannel+0x12e>
 80059ba:	2380      	movs	r3, #128	; 0x80
 80059bc:	03db      	lsls	r3, r3, #15
 80059be:	4a2a      	ldr	r2, [pc, #168]	; (8005a68 <HAL_ADC_ConfigChannel+0x1d8>)
 80059c0:	430b      	orrs	r3, r1
 80059c2:	6013      	str	r3, [r2, #0]
        
        /* If Temp. sensor is selected, wait for stabilization delay */
        if (sConfig->Channel == ADC_CHANNEL_TEMPSENSOR)
 80059c4:	683b      	ldr	r3, [r7, #0]
 80059c6:	681b      	ldr	r3, [r3, #0]
 80059c8:	2b10      	cmp	r3, #16
 80059ca:	d140      	bne.n	8005a4e <HAL_ADC_ConfigChannel+0x1be>
        {
          /* Delay for temperature sensor stabilization time */
          /* Compute number of CPU cycles to wait for */
          wait_loop_index = (ADC_TEMPSENSOR_DELAY_US * (SystemCoreClock / 1000000U));
 80059cc:	4b27      	ldr	r3, [pc, #156]	; (8005a6c <HAL_ADC_ConfigChannel+0x1dc>)
 80059ce:	681b      	ldr	r3, [r3, #0]
 80059d0:	4927      	ldr	r1, [pc, #156]	; (8005a70 <HAL_ADC_ConfigChannel+0x1e0>)
 80059d2:	0018      	movs	r0, r3
 80059d4:	f7fa fb96 	bl	8000104 <__udivsi3>
 80059d8:	0003      	movs	r3, r0
 80059da:	001a      	movs	r2, r3
 80059dc:	0013      	movs	r3, r2
 80059de:	009b      	lsls	r3, r3, #2
 80059e0:	189b      	adds	r3, r3, r2
 80059e2:	005b      	lsls	r3, r3, #1
 80059e4:	60bb      	str	r3, [r7, #8]
          while(wait_loop_index != 0U)
 80059e6:	e002      	b.n	80059ee <HAL_ADC_ConfigChannel+0x15e>
          {
            wait_loop_index--;
 80059e8:	68bb      	ldr	r3, [r7, #8]
 80059ea:	3b01      	subs	r3, #1
 80059ec:	60bb      	str	r3, [r7, #8]
          while(wait_loop_index != 0U)
 80059ee:	68bb      	ldr	r3, [r7, #8]
 80059f0:	2b00      	cmp	r3, #0
 80059f2:	d1f9      	bne.n	80059e8 <HAL_ADC_ConfigChannel+0x158>
 80059f4:	e02b      	b.n	8005a4e <HAL_ADC_ConfigChannel+0x1be>
    }
    else
    {
      /* Regular sequence configuration */
      /* Reset the channel selection register from the selected channel */
      hadc->Instance->CHSELR &= ~ADC_CHSELR_CHANNEL(sConfig->Channel);
 80059f6:	687b      	ldr	r3, [r7, #4]
 80059f8:	681b      	ldr	r3, [r3, #0]
 80059fa:	6a9a      	ldr	r2, [r3, #40]	; 0x28
 80059fc:	683b      	ldr	r3, [r7, #0]
 80059fe:	681b      	ldr	r3, [r3, #0]
 8005a00:	2101      	movs	r1, #1
 8005a02:	4099      	lsls	r1, r3
 8005a04:	000b      	movs	r3, r1
 8005a06:	43d9      	mvns	r1, r3
 8005a08:	687b      	ldr	r3, [r7, #4]
 8005a0a:	681b      	ldr	r3, [r3, #0]
 8005a0c:	400a      	ands	r2, r1
 8005a0e:	629a      	str	r2, [r3, #40]	; 0x28
      
      /* Management of internal measurement channels: VrefInt/TempSensor/Vbat */
      /* internal measurement paths disable: If internal channel selected,    */
      /* disable dedicated internal buffers and path.                         */
      if(ADC_IS_CHANNEL_INTERNAL(sConfig->Channel))
 8005a10:	683b      	ldr	r3, [r7, #0]
 8005a12:	681b      	ldr	r3, [r3, #0]
 8005a14:	2b10      	cmp	r3, #16
 8005a16:	d003      	beq.n	8005a20 <HAL_ADC_ConfigChannel+0x190>
 8005a18:	683b      	ldr	r3, [r7, #0]
 8005a1a:	681b      	ldr	r3, [r3, #0]
 8005a1c:	2b11      	cmp	r3, #17
 8005a1e:	d116      	bne.n	8005a4e <HAL_ADC_ConfigChannel+0x1be>
      {
        /* If Channel_16 is selected, disable Temp. sensor measurement path. */
        /* If Channel_17 is selected, disable VREFINT measurement path. */
        /* If Channel_18 is selected, disable VBAT measurement path. */
        ADC->CCR &= ~ADC_CHANNEL_INTERNAL_PATH(sConfig->Channel);
 8005a20:	4b11      	ldr	r3, [pc, #68]	; (8005a68 <HAL_ADC_ConfigChannel+0x1d8>)
 8005a22:	6819      	ldr	r1, [r3, #0]
 8005a24:	683b      	ldr	r3, [r7, #0]
 8005a26:	681b      	ldr	r3, [r3, #0]
 8005a28:	2b10      	cmp	r3, #16
 8005a2a:	d101      	bne.n	8005a30 <HAL_ADC_ConfigChannel+0x1a0>
 8005a2c:	4a11      	ldr	r2, [pc, #68]	; (8005a74 <HAL_ADC_ConfigChannel+0x1e4>)
 8005a2e:	e000      	b.n	8005a32 <HAL_ADC_ConfigChannel+0x1a2>
 8005a30:	4a11      	ldr	r2, [pc, #68]	; (8005a78 <HAL_ADC_ConfigChannel+0x1e8>)
 8005a32:	4b0d      	ldr	r3, [pc, #52]	; (8005a68 <HAL_ADC_ConfigChannel+0x1d8>)
 8005a34:	400a      	ands	r2, r1
 8005a36:	601a      	str	r2, [r3, #0]
 8005a38:	e009      	b.n	8005a4e <HAL_ADC_ConfigChannel+0x1be>
  /* channel could be done on neither of the channel configuration structure  */
  /* parameters.                                                              */
  else
  {
    /* Update ADC state machine to error */
    SET_BIT(hadc->State, HAL_ADC_STATE_ERROR_CONFIG);
 8005a3a:	687b      	ldr	r3, [r7, #4]
 8005a3c:	6b9b      	ldr	r3, [r3, #56]	; 0x38
 8005a3e:	2220      	movs	r2, #32
 8005a40:	431a      	orrs	r2, r3
 8005a42:	687b      	ldr	r3, [r7, #4]
 8005a44:	639a      	str	r2, [r3, #56]	; 0x38
    
    tmp_hal_status = HAL_ERROR;
 8005a46:	230f      	movs	r3, #15
 8005a48:	18fb      	adds	r3, r7, r3
 8005a4a:	2201      	movs	r2, #1
 8005a4c:	701a      	strb	r2, [r3, #0]
  }
  
  /* Process unlocked */
  __HAL_UNLOCK(hadc);
 8005a4e:	687b      	ldr	r3, [r7, #4]
 8005a50:	2234      	movs	r2, #52	; 0x34
 8005a52:	2100      	movs	r1, #0
 8005a54:	5499      	strb	r1, [r3, r2]
  
  /* Return function status */
  return tmp_hal_status;
 8005a56:	230f      	movs	r3, #15
 8005a58:	18fb      	adds	r3, r7, r3
 8005a5a:	781b      	ldrb	r3, [r3, #0]
}
 8005a5c:	0018      	movs	r0, r3
 8005a5e:	46bd      	mov	sp, r7
 8005a60:	b004      	add	sp, #16
 8005a62:	bd80      	pop	{r7, pc}
 8005a64:	00001001 	.word	0x00001001
 8005a68:	40012708 	.word	0x40012708
 8005a6c:	20000024 	.word	0x20000024
 8005a70:	000f4240 	.word	0x000f4240
 8005a74:	ff7fffff 	.word	0xff7fffff
 8005a78:	ffbfffff 	.word	0xffbfffff

08005a7c <ADC_Enable>:
  *         "if (hadc->Init.LowPowerAutoPowerOff != ENABLE)".
  * @param  hadc ADC handle
  * @retval HAL status.
  */
static HAL_StatusTypeDef ADC_Enable(ADC_HandleTypeDef* hadc)
{
 8005a7c:	b580      	push	{r7, lr}
 8005a7e:	b084      	sub	sp, #16
 8005a80:	af00      	add	r7, sp, #0
 8005a82:	6078      	str	r0, [r7, #4]
  uint32_t tickstart = 0U;
 8005a84:	2300      	movs	r3, #0
 8005a86:	60fb      	str	r3, [r7, #12]
  __IO uint32_t wait_loop_index = 0U;
 8005a88:	2300      	movs	r3, #0
 8005a8a:	60bb      	str	r3, [r7, #8]
  
  /* ADC enable and wait for ADC ready (in case of ADC is disabled or         */
  /* enabling phase not yet completed: flag ADC ready not yet set).           */
  /* Timeout implemented to not be stuck if ADC cannot be enabled (possible   */
  /* causes: ADC clock not running, ...).                                     */
  if (ADC_IS_ENABLE(hadc) == RESET)
 8005a8c:	687b      	ldr	r3, [r7, #4]
 8005a8e:	681b      	ldr	r3, [r3, #0]
 8005a90:	689b      	ldr	r3, [r3, #8]
 8005a92:	2203      	movs	r2, #3
 8005a94:	4013      	ands	r3, r2
 8005a96:	2b01      	cmp	r3, #1
 8005a98:	d112      	bne.n	8005ac0 <ADC_Enable+0x44>
 8005a9a:	687b      	ldr	r3, [r7, #4]
 8005a9c:	681b      	ldr	r3, [r3, #0]
 8005a9e:	681b      	ldr	r3, [r3, #0]
 8005aa0:	2201      	movs	r2, #1
 8005aa2:	4013      	ands	r3, r2
 8005aa4:	2b01      	cmp	r3, #1
 8005aa6:	d009      	beq.n	8005abc <ADC_Enable+0x40>
 8005aa8:	687b      	ldr	r3, [r7, #4]
 8005aaa:	681b      	ldr	r3, [r3, #0]
 8005aac:	68da      	ldr	r2, [r3, #12]
 8005aae:	2380      	movs	r3, #128	; 0x80
 8005ab0:	021b      	lsls	r3, r3, #8
 8005ab2:	401a      	ands	r2, r3
 8005ab4:	2380      	movs	r3, #128	; 0x80
 8005ab6:	021b      	lsls	r3, r3, #8
 8005ab8:	429a      	cmp	r2, r3
 8005aba:	d101      	bne.n	8005ac0 <ADC_Enable+0x44>
 8005abc:	2301      	movs	r3, #1
 8005abe:	e000      	b.n	8005ac2 <ADC_Enable+0x46>
 8005ac0:	2300      	movs	r3, #0
 8005ac2:	2b00      	cmp	r3, #0
 8005ac4:	d152      	bne.n	8005b6c <ADC_Enable+0xf0>
  {
    /* Check if conditions to enable the ADC are fulfilled */
    if (ADC_ENABLING_CONDITIONS(hadc) == RESET)
 8005ac6:	687b      	ldr	r3, [r7, #4]
 8005ac8:	681b      	ldr	r3, [r3, #0]
 8005aca:	689b      	ldr	r3, [r3, #8]
 8005acc:	4a2a      	ldr	r2, [pc, #168]	; (8005b78 <ADC_Enable+0xfc>)
 8005ace:	4013      	ands	r3, r2
 8005ad0:	d00d      	beq.n	8005aee <ADC_Enable+0x72>
    {
      /* Update ADC state machine to error */
      SET_BIT(hadc->State, HAL_ADC_STATE_ERROR_INTERNAL);
 8005ad2:	687b      	ldr	r3, [r7, #4]
 8005ad4:	6b9b      	ldr	r3, [r3, #56]	; 0x38
 8005ad6:	2210      	movs	r2, #16
 8005ad8:	431a      	orrs	r2, r3
 8005ada:	687b      	ldr	r3, [r7, #4]
 8005adc:	639a      	str	r2, [r3, #56]	; 0x38
    
      /* Set ADC error code to ADC IP internal error */
      SET_BIT(hadc->ErrorCode, HAL_ADC_ERROR_INTERNAL);
 8005ade:	687b      	ldr	r3, [r7, #4]
 8005ae0:	6bdb      	ldr	r3, [r3, #60]	; 0x3c
 8005ae2:	2201      	movs	r2, #1
 8005ae4:	431a      	orrs	r2, r3
 8005ae6:	687b      	ldr	r3, [r7, #4]
 8005ae8:	63da      	str	r2, [r3, #60]	; 0x3c
      
      return HAL_ERROR;
 8005aea:	2301      	movs	r3, #1
 8005aec:	e03f      	b.n	8005b6e <ADC_Enable+0xf2>
    }
    
    /* Enable the ADC peripheral */
    __HAL_ADC_ENABLE(hadc);
 8005aee:	687b      	ldr	r3, [r7, #4]
 8005af0:	681b      	ldr	r3, [r3, #0]
 8005af2:	689a      	ldr	r2, [r3, #8]
 8005af4:	687b      	ldr	r3, [r7, #4]
 8005af6:	681b      	ldr	r3, [r3, #0]
 8005af8:	2101      	movs	r1, #1
 8005afa:	430a      	orrs	r2, r1
 8005afc:	609a      	str	r2, [r3, #8]
    
    /* Delay for ADC stabilization time */
    /* Compute number of CPU cycles to wait for */
    wait_loop_index = (ADC_STAB_DELAY_US * (SystemCoreClock / 1000000U));
 8005afe:	4b1f      	ldr	r3, [pc, #124]	; (8005b7c <ADC_Enable+0x100>)
 8005b00:	681b      	ldr	r3, [r3, #0]
 8005b02:	491f      	ldr	r1, [pc, #124]	; (8005b80 <ADC_Enable+0x104>)
 8005b04:	0018      	movs	r0, r3
 8005b06:	f7fa fafd 	bl	8000104 <__udivsi3>
 8005b0a:	0003      	movs	r3, r0
 8005b0c:	60bb      	str	r3, [r7, #8]
    while(wait_loop_index != 0U)
 8005b0e:	e002      	b.n	8005b16 <ADC_Enable+0x9a>
    {
      wait_loop_index--;
 8005b10:	68bb      	ldr	r3, [r7, #8]
 8005b12:	3b01      	subs	r3, #1
 8005b14:	60bb      	str	r3, [r7, #8]
    while(wait_loop_index != 0U)
 8005b16:	68bb      	ldr	r3, [r7, #8]
 8005b18:	2b00      	cmp	r3, #0
 8005b1a:	d1f9      	bne.n	8005b10 <ADC_Enable+0x94>
    }

    /* Get tick count */
    tickstart = HAL_GetTick();
 8005b1c:	f7ff fce0 	bl	80054e0 <HAL_GetTick>
 8005b20:	0003      	movs	r3, r0
 8005b22:	60fb      	str	r3, [r7, #12]
    
    /* Wait for ADC effectively enabled */
    while(__HAL_ADC_GET_FLAG(hadc, ADC_FLAG_RDY) == RESET)
 8005b24:	e01b      	b.n	8005b5e <ADC_Enable+0xe2>
    {
      if((HAL_GetTick() - tickstart) > ADC_ENABLE_TIMEOUT)
 8005b26:	f7ff fcdb 	bl	80054e0 <HAL_GetTick>
 8005b2a:	0002      	movs	r2, r0
 8005b2c:	68fb      	ldr	r3, [r7, #12]
 8005b2e:	1ad3      	subs	r3, r2, r3
 8005b30:	2b02      	cmp	r3, #2
 8005b32:	d914      	bls.n	8005b5e <ADC_Enable+0xe2>
      {
        /* New check to avoid false timeout detection in case of preemption */
        if(__HAL_ADC_GET_FLAG(hadc, ADC_FLAG_RDY) == RESET)
 8005b34:	687b      	ldr	r3, [r7, #4]
 8005b36:	681b      	ldr	r3, [r3, #0]
 8005b38:	681b      	ldr	r3, [r3, #0]
 8005b3a:	2201      	movs	r2, #1
 8005b3c:	4013      	ands	r3, r2
 8005b3e:	2b01      	cmp	r3, #1
 8005b40:	d00d      	beq.n	8005b5e <ADC_Enable+0xe2>
        {
          /* Update ADC state machine to error */
          SET_BIT(hadc->State, HAL_ADC_STATE_ERROR_INTERNAL);
 8005b42:	687b      	ldr	r3, [r7, #4]
 8005b44:	6b9b      	ldr	r3, [r3, #56]	; 0x38
 8005b46:	2210      	movs	r2, #16
 8005b48:	431a      	orrs	r2, r3
 8005b4a:	687b      	ldr	r3, [r7, #4]
 8005b4c:	639a      	str	r2, [r3, #56]	; 0x38

          /* Set ADC error code to ADC IP internal error */
          SET_BIT(hadc->ErrorCode, HAL_ADC_ERROR_INTERNAL);
 8005b4e:	687b      	ldr	r3, [r7, #4]
 8005b50:	6bdb      	ldr	r3, [r3, #60]	; 0x3c
 8005b52:	2201      	movs	r2, #1
 8005b54:	431a      	orrs	r2, r3
 8005b56:	687b      	ldr	r3, [r7, #4]
 8005b58:	63da      	str	r2, [r3, #60]	; 0x3c

          return HAL_ERROR;
 8005b5a:	2301      	movs	r3, #1
 8005b5c:	e007      	b.n	8005b6e <ADC_Enable+0xf2>
    while(__HAL_ADC_GET_FLAG(hadc, ADC_FLAG_RDY) == RESET)
 8005b5e:	687b      	ldr	r3, [r7, #4]
 8005b60:	681b      	ldr	r3, [r3, #0]
 8005b62:	681b      	ldr	r3, [r3, #0]
 8005b64:	2201      	movs	r2, #1
 8005b66:	4013      	ands	r3, r2
 8005b68:	2b01      	cmp	r3, #1
 8005b6a:	d1dc      	bne.n	8005b26 <ADC_Enable+0xaa>
      }
    }
  }
   
  /* Return HAL status */
  return HAL_OK;
 8005b6c:	2300      	movs	r3, #0
}
 8005b6e:	0018      	movs	r0, r3
 8005b70:	46bd      	mov	sp, r7
 8005b72:	b004      	add	sp, #16
 8005b74:	bd80      	pop	{r7, pc}
 8005b76:	46c0      	nop			; (mov r8, r8)
 8005b78:	80000017 	.word	0x80000017
 8005b7c:	20000024 	.word	0x20000024
 8005b80:	000f4240 	.word	0x000f4240

08005b84 <__NVIC_SetPriority>:
  \param [in]      IRQn  Interrupt number.
  \param [in]  priority  Priority to set.
  \note    The priority cannot be set for every processor exception.
 */
__STATIC_INLINE void __NVIC_SetPriority(IRQn_Type IRQn, uint32_t priority)
{
 8005b84:	b590      	push	{r4, r7, lr}
 8005b86:	b083      	sub	sp, #12
 8005b88:	af00      	add	r7, sp, #0
 8005b8a:	0002      	movs	r2, r0
 8005b8c:	6039      	str	r1, [r7, #0]
 8005b8e:	1dfb      	adds	r3, r7, #7
 8005b90:	701a      	strb	r2, [r3, #0]
  if ((int32_t)(IRQn) >= 0)
 8005b92:	1dfb      	adds	r3, r7, #7
 8005b94:	781b      	ldrb	r3, [r3, #0]
 8005b96:	2b7f      	cmp	r3, #127	; 0x7f
 8005b98:	d828      	bhi.n	8005bec <__NVIC_SetPriority+0x68>
  {
    NVIC->IP[_IP_IDX(IRQn)]  = ((uint32_t)(NVIC->IP[_IP_IDX(IRQn)]  & ~(0xFFUL << _BIT_SHIFT(IRQn))) |
 8005b9a:	4a2f      	ldr	r2, [pc, #188]	; (8005c58 <__NVIC_SetPriority+0xd4>)
 8005b9c:	1dfb      	adds	r3, r7, #7
 8005b9e:	781b      	ldrb	r3, [r3, #0]
 8005ba0:	b25b      	sxtb	r3, r3
 8005ba2:	089b      	lsrs	r3, r3, #2
 8005ba4:	33c0      	adds	r3, #192	; 0xc0
 8005ba6:	009b      	lsls	r3, r3, #2
 8005ba8:	589b      	ldr	r3, [r3, r2]
 8005baa:	1dfa      	adds	r2, r7, #7
 8005bac:	7812      	ldrb	r2, [r2, #0]
 8005bae:	0011      	movs	r1, r2
 8005bb0:	2203      	movs	r2, #3
 8005bb2:	400a      	ands	r2, r1
 8005bb4:	00d2      	lsls	r2, r2, #3
 8005bb6:	21ff      	movs	r1, #255	; 0xff
 8005bb8:	4091      	lsls	r1, r2
 8005bba:	000a      	movs	r2, r1
 8005bbc:	43d2      	mvns	r2, r2
 8005bbe:	401a      	ands	r2, r3
 8005bc0:	0011      	movs	r1, r2
       (((priority << (8U - __NVIC_PRIO_BITS)) & (uint32_t)0xFFUL) << _BIT_SHIFT(IRQn)));
 8005bc2:	683b      	ldr	r3, [r7, #0]
 8005bc4:	019b      	lsls	r3, r3, #6
 8005bc6:	22ff      	movs	r2, #255	; 0xff
 8005bc8:	401a      	ands	r2, r3
 8005bca:	1dfb      	adds	r3, r7, #7
 8005bcc:	781b      	ldrb	r3, [r3, #0]
 8005bce:	0018      	movs	r0, r3
 8005bd0:	2303      	movs	r3, #3
 8005bd2:	4003      	ands	r3, r0
 8005bd4:	00db      	lsls	r3, r3, #3
 8005bd6:	409a      	lsls	r2, r3
    NVIC->IP[_IP_IDX(IRQn)]  = ((uint32_t)(NVIC->IP[_IP_IDX(IRQn)]  & ~(0xFFUL << _BIT_SHIFT(IRQn))) |
 8005bd8:	481f      	ldr	r0, [pc, #124]	; (8005c58 <__NVIC_SetPriority+0xd4>)
 8005bda:	1dfb      	adds	r3, r7, #7
 8005bdc:	781b      	ldrb	r3, [r3, #0]
 8005bde:	b25b      	sxtb	r3, r3
 8005be0:	089b      	lsrs	r3, r3, #2
 8005be2:	430a      	orrs	r2, r1
 8005be4:	33c0      	adds	r3, #192	; 0xc0
 8005be6:	009b      	lsls	r3, r3, #2
 8005be8:	501a      	str	r2, [r3, r0]
  else
  {
    SCB->SHP[_SHP_IDX(IRQn)] = ((uint32_t)(SCB->SHP[_SHP_IDX(IRQn)] & ~(0xFFUL << _BIT_SHIFT(IRQn))) |
       (((priority << (8U - __NVIC_PRIO_BITS)) & (uint32_t)0xFFUL) << _BIT_SHIFT(IRQn)));
  }
}
 8005bea:	e031      	b.n	8005c50 <__NVIC_SetPriority+0xcc>
    SCB->SHP[_SHP_IDX(IRQn)] = ((uint32_t)(SCB->SHP[_SHP_IDX(IRQn)] & ~(0xFFUL << _BIT_SHIFT(IRQn))) |
 8005bec:	4a1b      	ldr	r2, [pc, #108]	; (8005c5c <__NVIC_SetPriority+0xd8>)
 8005bee:	1dfb      	adds	r3, r7, #7
 8005bf0:	781b      	ldrb	r3, [r3, #0]
 8005bf2:	0019      	movs	r1, r3
 8005bf4:	230f      	movs	r3, #15
 8005bf6:	400b      	ands	r3, r1
 8005bf8:	3b08      	subs	r3, #8
 8005bfa:	089b      	lsrs	r3, r3, #2
 8005bfc:	3306      	adds	r3, #6
 8005bfe:	009b      	lsls	r3, r3, #2
 8005c00:	18d3      	adds	r3, r2, r3
 8005c02:	3304      	adds	r3, #4
 8005c04:	681b      	ldr	r3, [r3, #0]
 8005c06:	1dfa      	adds	r2, r7, #7
 8005c08:	7812      	ldrb	r2, [r2, #0]
 8005c0a:	0011      	movs	r1, r2
 8005c0c:	2203      	movs	r2, #3
 8005c0e:	400a      	ands	r2, r1
 8005c10:	00d2      	lsls	r2, r2, #3
 8005c12:	21ff      	movs	r1, #255	; 0xff
 8005c14:	4091      	lsls	r1, r2
 8005c16:	000a      	movs	r2, r1
 8005c18:	43d2      	mvns	r2, r2
 8005c1a:	401a      	ands	r2, r3
 8005c1c:	0011      	movs	r1, r2
       (((priority << (8U - __NVIC_PRIO_BITS)) & (uint32_t)0xFFUL) << _BIT_SHIFT(IRQn)));
 8005c1e:	683b      	ldr	r3, [r7, #0]
 8005c20:	019b      	lsls	r3, r3, #6
 8005c22:	22ff      	movs	r2, #255	; 0xff
 8005c24:	401a      	ands	r2, r3
 8005c26:	1dfb      	adds	r3, r7, #7
 8005c28:	781b      	ldrb	r3, [r3, #0]
 8005c2a:	0018      	movs	r0, r3
 8005c2c:	2303      	movs	r3, #3
 8005c2e:	4003      	ands	r3, r0
 8005c30:	00db      	lsls	r3, r3, #3
 8005c32:	409a      	lsls	r2, r3
    SCB->SHP[_SHP_IDX(IRQn)] = ((uint32_t)(SCB->SHP[_SHP_IDX(IRQn)] & ~(0xFFUL << _BIT_SHIFT(IRQn))) |
 8005c34:	4809      	ldr	r0, [pc, #36]	; (8005c5c <__NVIC_SetPriority+0xd8>)
 8005c36:	1dfb      	adds	r3, r7, #7
 8005c38:	781b      	ldrb	r3, [r3, #0]
 8005c3a:	001c      	movs	r4, r3
 8005c3c:	230f      	movs	r3, #15
 8005c3e:	4023      	ands	r3, r4
 8005c40:	3b08      	subs	r3, #8
 8005c42:	089b      	lsrs	r3, r3, #2
 8005c44:	430a      	orrs	r2, r1
 8005c46:	3306      	adds	r3, #6
 8005c48:	009b      	lsls	r3, r3, #2
 8005c4a:	18c3      	adds	r3, r0, r3
 8005c4c:	3304      	adds	r3, #4
 8005c4e:	601a      	str	r2, [r3, #0]
}
 8005c50:	46c0      	nop			; (mov r8, r8)
 8005c52:	46bd      	mov	sp, r7
 8005c54:	b003      	add	sp, #12
 8005c56:	bd90      	pop	{r4, r7, pc}
 8005c58:	e000e100 	.word	0xe000e100
 8005c5c:	e000ed00 	.word	0xe000ed00

08005c60 <SysTick_Config>:
  \note    When the variable <b>__Vendor_SysTickConfig</b> is set to 1, then the
           function <b>SysTick_Config</b> is not included. In this case, the file <b><i>device</i>.h</b>
           must contain a vendor-specific implementation of this function.
 */
__STATIC_INLINE uint32_t SysTick_Config(uint32_t ticks)
{
 8005c60:	b580      	push	{r7, lr}
 8005c62:	b082      	sub	sp, #8
 8005c64:	af00      	add	r7, sp, #0
 8005c66:	6078      	str	r0, [r7, #4]
  if ((ticks - 1UL) > SysTick_LOAD_RELOAD_Msk)
 8005c68:	687b      	ldr	r3, [r7, #4]
 8005c6a:	1e5a      	subs	r2, r3, #1
 8005c6c:	2380      	movs	r3, #128	; 0x80
 8005c6e:	045b      	lsls	r3, r3, #17
 8005c70:	429a      	cmp	r2, r3
 8005c72:	d301      	bcc.n	8005c78 <SysTick_Config+0x18>
  {
    return (1UL);                                                   /* Reload value impossible */
 8005c74:	2301      	movs	r3, #1
 8005c76:	e010      	b.n	8005c9a <SysTick_Config+0x3a>
  }

  SysTick->LOAD  = (uint32_t)(ticks - 1UL);                         /* set reload register */
 8005c78:	4b0a      	ldr	r3, [pc, #40]	; (8005ca4 <SysTick_Config+0x44>)
 8005c7a:	687a      	ldr	r2, [r7, #4]
 8005c7c:	3a01      	subs	r2, #1
 8005c7e:	605a      	str	r2, [r3, #4]
  NVIC_SetPriority (SysTick_IRQn, (1UL << __NVIC_PRIO_BITS) - 1UL); /* set Priority for Systick Interrupt */
 8005c80:	2301      	movs	r3, #1
 8005c82:	425b      	negs	r3, r3
 8005c84:	2103      	movs	r1, #3
 8005c86:	0018      	movs	r0, r3
 8005c88:	f7ff ff7c 	bl	8005b84 <__NVIC_SetPriority>
  SysTick->VAL   = 0UL;                                             /* Load the SysTick Counter Value */
 8005c8c:	4b05      	ldr	r3, [pc, #20]	; (8005ca4 <SysTick_Config+0x44>)
 8005c8e:	2200      	movs	r2, #0
 8005c90:	609a      	str	r2, [r3, #8]
  SysTick->CTRL  = SysTick_CTRL_CLKSOURCE_Msk |
 8005c92:	4b04      	ldr	r3, [pc, #16]	; (8005ca4 <SysTick_Config+0x44>)
 8005c94:	2207      	movs	r2, #7
 8005c96:	601a      	str	r2, [r3, #0]
                   SysTick_CTRL_TICKINT_Msk   |
                   SysTick_CTRL_ENABLE_Msk;                         /* Enable SysTick IRQ and SysTick Timer */
  return (0UL);                                                     /* Function successful */
 8005c98:	2300      	movs	r3, #0
}
 8005c9a:	0018      	movs	r0, r3
 8005c9c:	46bd      	mov	sp, r7
 8005c9e:	b002      	add	sp, #8
 8005ca0:	bd80      	pop	{r7, pc}
 8005ca2:	46c0      	nop			; (mov r8, r8)
 8005ca4:	e000e010 	.word	0xe000e010

08005ca8 <HAL_NVIC_SetPriority>:
  *         with stm32f0xx devices, this parameter is a dummy value and it is ignored, because 
  *         no subpriority supported in Cortex M0 based products.   
  * @retval None
  */
void HAL_NVIC_SetPriority(IRQn_Type IRQn, uint32_t PreemptPriority, uint32_t SubPriority)
{ 
 8005ca8:	b580      	push	{r7, lr}
 8005caa:	b084      	sub	sp, #16
 8005cac:	af00      	add	r7, sp, #0
 8005cae:	60b9      	str	r1, [r7, #8]
 8005cb0:	607a      	str	r2, [r7, #4]
 8005cb2:	210f      	movs	r1, #15
 8005cb4:	187b      	adds	r3, r7, r1
 8005cb6:	1c02      	adds	r2, r0, #0
 8005cb8:	701a      	strb	r2, [r3, #0]
  /* Check the parameters */
  assert_param(IS_NVIC_PREEMPTION_PRIORITY(PreemptPriority));
  NVIC_SetPriority(IRQn,PreemptPriority);
 8005cba:	68ba      	ldr	r2, [r7, #8]
 8005cbc:	187b      	adds	r3, r7, r1
 8005cbe:	781b      	ldrb	r3, [r3, #0]
 8005cc0:	b25b      	sxtb	r3, r3
 8005cc2:	0011      	movs	r1, r2
 8005cc4:	0018      	movs	r0, r3
 8005cc6:	f7ff ff5d 	bl	8005b84 <__NVIC_SetPriority>
}
 8005cca:	46c0      	nop			; (mov r8, r8)
 8005ccc:	46bd      	mov	sp, r7
 8005cce:	b004      	add	sp, #16
 8005cd0:	bd80      	pop	{r7, pc}

08005cd2 <HAL_SYSTICK_Config>:
  * @param  TicksNumb Specifies the ticks Number of ticks between two interrupts.
  * @retval status:  - 0  Function succeeded.
  *                  - 1  Function failed.
  */
uint32_t HAL_SYSTICK_Config(uint32_t TicksNumb)
{
 8005cd2:	b580      	push	{r7, lr}
 8005cd4:	b082      	sub	sp, #8
 8005cd6:	af00      	add	r7, sp, #0
 8005cd8:	6078      	str	r0, [r7, #4]
   return SysTick_Config(TicksNumb);
 8005cda:	687b      	ldr	r3, [r7, #4]
 8005cdc:	0018      	movs	r0, r3
 8005cde:	f7ff ffbf 	bl	8005c60 <SysTick_Config>
 8005ce2:	0003      	movs	r3, r0
}
 8005ce4:	0018      	movs	r0, r3
 8005ce6:	46bd      	mov	sp, r7
 8005ce8:	b002      	add	sp, #8
 8005cea:	bd80      	pop	{r7, pc}

08005cec <HAL_GPIO_Init>:
  * @param  GPIO_Init pointer to a GPIO_InitTypeDef structure that contains
  *         the configuration information for the specified GPIO peripheral.
  * @retval None
  */
void HAL_GPIO_Init(GPIO_TypeDef  *GPIOx, GPIO_InitTypeDef *GPIO_Init)
{
 8005cec:	b580      	push	{r7, lr}
 8005cee:	b086      	sub	sp, #24
 8005cf0:	af00      	add	r7, sp, #0
 8005cf2:	6078      	str	r0, [r7, #4]
 8005cf4:	6039      	str	r1, [r7, #0]
  uint32_t position = 0x00u;
 8005cf6:	2300      	movs	r3, #0
 8005cf8:	617b      	str	r3, [r7, #20]
  assert_param(IS_GPIO_ALL_INSTANCE(GPIOx));
  assert_param(IS_GPIO_PIN(GPIO_Init->Pin));
  assert_param(IS_GPIO_MODE(GPIO_Init->Mode));

  /* Configure the port pins */
  while (((GPIO_Init->Pin) >> position) != 0x00u)
 8005cfa:	e14f      	b.n	8005f9c <HAL_GPIO_Init+0x2b0>
  {
    /* Get current io position */
    iocurrent = (GPIO_Init->Pin) & (1uL << position);
 8005cfc:	683b      	ldr	r3, [r7, #0]
 8005cfe:	681b      	ldr	r3, [r3, #0]
 8005d00:	2101      	movs	r1, #1
 8005d02:	697a      	ldr	r2, [r7, #20]
 8005d04:	4091      	lsls	r1, r2
 8005d06:	000a      	movs	r2, r1
 8005d08:	4013      	ands	r3, r2
 8005d0a:	60fb      	str	r3, [r7, #12]

    if (iocurrent != 0x00u)
 8005d0c:	68fb      	ldr	r3, [r7, #12]
 8005d0e:	2b00      	cmp	r3, #0
 8005d10:	d100      	bne.n	8005d14 <HAL_GPIO_Init+0x28>
 8005d12:	e140      	b.n	8005f96 <HAL_GPIO_Init+0x2aa>
    {
      /*--------------------- GPIO Mode Configuration ------------------------*/
      /* In case of Output or Alternate function mode selection */
      if(((GPIO_Init->Mode & GPIO_MODE) == MODE_OUTPUT) ||
 8005d14:	683b      	ldr	r3, [r7, #0]
 8005d16:	685b      	ldr	r3, [r3, #4]
 8005d18:	2203      	movs	r2, #3
 8005d1a:	4013      	ands	r3, r2
 8005d1c:	2b01      	cmp	r3, #1
 8005d1e:	d005      	beq.n	8005d2c <HAL_GPIO_Init+0x40>
         ((GPIO_Init->Mode & GPIO_MODE) == MODE_AF))
 8005d20:	683b      	ldr	r3, [r7, #0]
 8005d22:	685b      	ldr	r3, [r3, #4]
 8005d24:	2203      	movs	r2, #3
 8005d26:	4013      	ands	r3, r2
      if(((GPIO_Init->Mode & GPIO_MODE) == MODE_OUTPUT) ||
 8005d28:	2b02      	cmp	r3, #2
 8005d2a:	d130      	bne.n	8005d8e <HAL_GPIO_Init+0xa2>
      {
        /* Check the Speed parameter */
        assert_param(IS_GPIO_SPEED(GPIO_Init->Speed));
        /* Configure the IO Speed */
        temp = GPIOx->OSPEEDR;
 8005d2c:	687b      	ldr	r3, [r7, #4]
 8005d2e:	689b      	ldr	r3, [r3, #8]
 8005d30:	613b      	str	r3, [r7, #16]
        temp &= ~(GPIO_OSPEEDER_OSPEEDR0 << (position * 2u));
 8005d32:	697b      	ldr	r3, [r7, #20]
 8005d34:	005b      	lsls	r3, r3, #1
 8005d36:	2203      	movs	r2, #3
 8005d38:	409a      	lsls	r2, r3
 8005d3a:	0013      	movs	r3, r2
 8005d3c:	43da      	mvns	r2, r3
 8005d3e:	693b      	ldr	r3, [r7, #16]
 8005d40:	4013      	ands	r3, r2
 8005d42:	613b      	str	r3, [r7, #16]
        temp |= (GPIO_Init->Speed << (position * 2u));
 8005d44:	683b      	ldr	r3, [r7, #0]
 8005d46:	68da      	ldr	r2, [r3, #12]
 8005d48:	697b      	ldr	r3, [r7, #20]
 8005d4a:	005b      	lsls	r3, r3, #1
 8005d4c:	409a      	lsls	r2, r3
 8005d4e:	0013      	movs	r3, r2
 8005d50:	693a      	ldr	r2, [r7, #16]
 8005d52:	4313      	orrs	r3, r2
 8005d54:	613b      	str	r3, [r7, #16]
        GPIOx->OSPEEDR = temp;
 8005d56:	687b      	ldr	r3, [r7, #4]
 8005d58:	693a      	ldr	r2, [r7, #16]
 8005d5a:	609a      	str	r2, [r3, #8]

        /* Configure the IO Output Type */
        temp = GPIOx->OTYPER;
 8005d5c:	687b      	ldr	r3, [r7, #4]
 8005d5e:	685b      	ldr	r3, [r3, #4]
 8005d60:	613b      	str	r3, [r7, #16]
        temp &= ~(GPIO_OTYPER_OT_0 << position) ;
 8005d62:	2201      	movs	r2, #1
 8005d64:	697b      	ldr	r3, [r7, #20]
 8005d66:	409a      	lsls	r2, r3
 8005d68:	0013      	movs	r3, r2
 8005d6a:	43da      	mvns	r2, r3
 8005d6c:	693b      	ldr	r3, [r7, #16]
 8005d6e:	4013      	ands	r3, r2
 8005d70:	613b      	str	r3, [r7, #16]
        temp |= (((GPIO_Init->Mode & OUTPUT_TYPE) >> OUTPUT_TYPE_Pos) << position);
 8005d72:	683b      	ldr	r3, [r7, #0]
 8005d74:	685b      	ldr	r3, [r3, #4]
 8005d76:	091b      	lsrs	r3, r3, #4
 8005d78:	2201      	movs	r2, #1
 8005d7a:	401a      	ands	r2, r3
 8005d7c:	697b      	ldr	r3, [r7, #20]
 8005d7e:	409a      	lsls	r2, r3
 8005d80:	0013      	movs	r3, r2
 8005d82:	693a      	ldr	r2, [r7, #16]
 8005d84:	4313      	orrs	r3, r2
 8005d86:	613b      	str	r3, [r7, #16]
        GPIOx->OTYPER = temp;
 8005d88:	687b      	ldr	r3, [r7, #4]
 8005d8a:	693a      	ldr	r2, [r7, #16]
 8005d8c:	605a      	str	r2, [r3, #4]
      }
      
      if((GPIO_Init->Mode & GPIO_MODE) != MODE_ANALOG)
 8005d8e:	683b      	ldr	r3, [r7, #0]
 8005d90:	685b      	ldr	r3, [r3, #4]
 8005d92:	2203      	movs	r2, #3
 8005d94:	4013      	ands	r3, r2
 8005d96:	2b03      	cmp	r3, #3
 8005d98:	d017      	beq.n	8005dca <HAL_GPIO_Init+0xde>
      {
        /* Check the Pull parameter */
        assert_param(IS_GPIO_PULL(GPIO_Init->Pull));

        /* Activate the Pull-up or Pull down resistor for the current IO */
        temp = GPIOx->PUPDR;
 8005d9a:	687b      	ldr	r3, [r7, #4]
 8005d9c:	68db      	ldr	r3, [r3, #12]
 8005d9e:	613b      	str	r3, [r7, #16]
        temp &= ~(GPIO_PUPDR_PUPDR0 << (position * 2u));
 8005da0:	697b      	ldr	r3, [r7, #20]
 8005da2:	005b      	lsls	r3, r3, #1
 8005da4:	2203      	movs	r2, #3
 8005da6:	409a      	lsls	r2, r3
 8005da8:	0013      	movs	r3, r2
 8005daa:	43da      	mvns	r2, r3
 8005dac:	693b      	ldr	r3, [r7, #16]
 8005dae:	4013      	ands	r3, r2
 8005db0:	613b      	str	r3, [r7, #16]
        temp |= ((GPIO_Init->Pull) << (position * 2u));
 8005db2:	683b      	ldr	r3, [r7, #0]
 8005db4:	689a      	ldr	r2, [r3, #8]
 8005db6:	697b      	ldr	r3, [r7, #20]
 8005db8:	005b      	lsls	r3, r3, #1
 8005dba:	409a      	lsls	r2, r3
 8005dbc:	0013      	movs	r3, r2
 8005dbe:	693a      	ldr	r2, [r7, #16]
 8005dc0:	4313      	orrs	r3, r2
 8005dc2:	613b      	str	r3, [r7, #16]
        GPIOx->PUPDR = temp;
 8005dc4:	687b      	ldr	r3, [r7, #4]
 8005dc6:	693a      	ldr	r2, [r7, #16]
 8005dc8:	60da      	str	r2, [r3, #12]
      }

      /* In case of Alternate function mode selection */
      if((GPIO_Init->Mode & GPIO_MODE) == MODE_AF)
 8005dca:	683b      	ldr	r3, [r7, #0]
 8005dcc:	685b      	ldr	r3, [r3, #4]
 8005dce:	2203      	movs	r2, #3
 8005dd0:	4013      	ands	r3, r2
 8005dd2:	2b02      	cmp	r3, #2
 8005dd4:	d123      	bne.n	8005e1e <HAL_GPIO_Init+0x132>
        /* Check the Alternate function parameters */
        assert_param(IS_GPIO_AF_INSTANCE(GPIOx));
        assert_param(IS_GPIO_AF(GPIO_Init->Alternate));

        /* Configure Alternate function mapped with the current IO */
        temp = GPIOx->AFR[position >> 3u];
 8005dd6:	697b      	ldr	r3, [r7, #20]
 8005dd8:	08da      	lsrs	r2, r3, #3
 8005dda:	687b      	ldr	r3, [r7, #4]
 8005ddc:	3208      	adds	r2, #8
 8005dde:	0092      	lsls	r2, r2, #2
 8005de0:	58d3      	ldr	r3, [r2, r3]
 8005de2:	613b      	str	r3, [r7, #16]
        temp &= ~(0xFu << ((position & 0x07u) * 4u));
 8005de4:	697b      	ldr	r3, [r7, #20]
 8005de6:	2207      	movs	r2, #7
 8005de8:	4013      	ands	r3, r2
 8005dea:	009b      	lsls	r3, r3, #2
 8005dec:	220f      	movs	r2, #15
 8005dee:	409a      	lsls	r2, r3
 8005df0:	0013      	movs	r3, r2
 8005df2:	43da      	mvns	r2, r3
 8005df4:	693b      	ldr	r3, [r7, #16]
 8005df6:	4013      	ands	r3, r2
 8005df8:	613b      	str	r3, [r7, #16]
        temp |= ((GPIO_Init->Alternate) << ((position & 0x07u) * 4u));
 8005dfa:	683b      	ldr	r3, [r7, #0]
 8005dfc:	691a      	ldr	r2, [r3, #16]
 8005dfe:	697b      	ldr	r3, [r7, #20]
 8005e00:	2107      	movs	r1, #7
 8005e02:	400b      	ands	r3, r1
 8005e04:	009b      	lsls	r3, r3, #2
 8005e06:	409a      	lsls	r2, r3
 8005e08:	0013      	movs	r3, r2
 8005e0a:	693a      	ldr	r2, [r7, #16]
 8005e0c:	4313      	orrs	r3, r2
 8005e0e:	613b      	str	r3, [r7, #16]
        GPIOx->AFR[position >> 3u] = temp;
 8005e10:	697b      	ldr	r3, [r7, #20]
 8005e12:	08da      	lsrs	r2, r3, #3
 8005e14:	687b      	ldr	r3, [r7, #4]
 8005e16:	3208      	adds	r2, #8
 8005e18:	0092      	lsls	r2, r2, #2
 8005e1a:	6939      	ldr	r1, [r7, #16]
 8005e1c:	50d1      	str	r1, [r2, r3]
      }

      /* Configure IO Direction mode (Input, Output, Alternate or Analog) */
      temp = GPIOx->MODER;
 8005e1e:	687b      	ldr	r3, [r7, #4]
 8005e20:	681b      	ldr	r3, [r3, #0]
 8005e22:	613b      	str	r3, [r7, #16]
      temp &= ~(GPIO_MODER_MODER0 << (position * 2u));
 8005e24:	697b      	ldr	r3, [r7, #20]
 8005e26:	005b      	lsls	r3, r3, #1
 8005e28:	2203      	movs	r2, #3
 8005e2a:	409a      	lsls	r2, r3
 8005e2c:	0013      	movs	r3, r2
 8005e2e:	43da      	mvns	r2, r3
 8005e30:	693b      	ldr	r3, [r7, #16]
 8005e32:	4013      	ands	r3, r2
 8005e34:	613b      	str	r3, [r7, #16]
      temp |= ((GPIO_Init->Mode & GPIO_MODE) << (position * 2u));
 8005e36:	683b      	ldr	r3, [r7, #0]
 8005e38:	685b      	ldr	r3, [r3, #4]
 8005e3a:	2203      	movs	r2, #3
 8005e3c:	401a      	ands	r2, r3
 8005e3e:	697b      	ldr	r3, [r7, #20]
 8005e40:	005b      	lsls	r3, r3, #1
 8005e42:	409a      	lsls	r2, r3
 8005e44:	0013      	movs	r3, r2
 8005e46:	693a      	ldr	r2, [r7, #16]
 8005e48:	4313      	orrs	r3, r2
 8005e4a:	613b      	str	r3, [r7, #16]
      GPIOx->MODER = temp;
 8005e4c:	687b      	ldr	r3, [r7, #4]
 8005e4e:	693a      	ldr	r2, [r7, #16]
 8005e50:	601a      	str	r2, [r3, #0]

      /*--------------------- EXTI Mode Configuration ------------------------*/
      /* Configure the External Interrupt or event for the current IO */
      if((GPIO_Init->Mode & EXTI_MODE) != 0x00u)
 8005e52:	683b      	ldr	r3, [r7, #0]
 8005e54:	685a      	ldr	r2, [r3, #4]
 8005e56:	23c0      	movs	r3, #192	; 0xc0
 8005e58:	029b      	lsls	r3, r3, #10
 8005e5a:	4013      	ands	r3, r2
 8005e5c:	d100      	bne.n	8005e60 <HAL_GPIO_Init+0x174>
 8005e5e:	e09a      	b.n	8005f96 <HAL_GPIO_Init+0x2aa>
      {
        /* Enable SYSCFG Clock */
        __HAL_RCC_SYSCFG_CLK_ENABLE();
 8005e60:	4b54      	ldr	r3, [pc, #336]	; (8005fb4 <HAL_GPIO_Init+0x2c8>)
 8005e62:	699a      	ldr	r2, [r3, #24]
 8005e64:	4b53      	ldr	r3, [pc, #332]	; (8005fb4 <HAL_GPIO_Init+0x2c8>)
 8005e66:	2101      	movs	r1, #1
 8005e68:	430a      	orrs	r2, r1
 8005e6a:	619a      	str	r2, [r3, #24]
 8005e6c:	4b51      	ldr	r3, [pc, #324]	; (8005fb4 <HAL_GPIO_Init+0x2c8>)
 8005e6e:	699b      	ldr	r3, [r3, #24]
 8005e70:	2201      	movs	r2, #1
 8005e72:	4013      	ands	r3, r2
 8005e74:	60bb      	str	r3, [r7, #8]
 8005e76:	68bb      	ldr	r3, [r7, #8]

        temp = SYSCFG->EXTICR[position >> 2u];
 8005e78:	4a4f      	ldr	r2, [pc, #316]	; (8005fb8 <HAL_GPIO_Init+0x2cc>)
 8005e7a:	697b      	ldr	r3, [r7, #20]
 8005e7c:	089b      	lsrs	r3, r3, #2
 8005e7e:	3302      	adds	r3, #2
 8005e80:	009b      	lsls	r3, r3, #2
 8005e82:	589b      	ldr	r3, [r3, r2]
 8005e84:	613b      	str	r3, [r7, #16]
        temp &= ~(0x0FuL << (4u * (position & 0x03u)));
 8005e86:	697b      	ldr	r3, [r7, #20]
 8005e88:	2203      	movs	r2, #3
 8005e8a:	4013      	ands	r3, r2
 8005e8c:	009b      	lsls	r3, r3, #2
 8005e8e:	220f      	movs	r2, #15
 8005e90:	409a      	lsls	r2, r3
 8005e92:	0013      	movs	r3, r2
 8005e94:	43da      	mvns	r2, r3
 8005e96:	693b      	ldr	r3, [r7, #16]
 8005e98:	4013      	ands	r3, r2
 8005e9a:	613b      	str	r3, [r7, #16]
        temp |= (GPIO_GET_INDEX(GPIOx) << (4u * (position & 0x03u)));
 8005e9c:	687a      	ldr	r2, [r7, #4]
 8005e9e:	2390      	movs	r3, #144	; 0x90
 8005ea0:	05db      	lsls	r3, r3, #23
 8005ea2:	429a      	cmp	r2, r3
 8005ea4:	d013      	beq.n	8005ece <HAL_GPIO_Init+0x1e2>
 8005ea6:	687b      	ldr	r3, [r7, #4]
 8005ea8:	4a44      	ldr	r2, [pc, #272]	; (8005fbc <HAL_GPIO_Init+0x2d0>)
 8005eaa:	4293      	cmp	r3, r2
 8005eac:	d00d      	beq.n	8005eca <HAL_GPIO_Init+0x1de>
 8005eae:	687b      	ldr	r3, [r7, #4]
 8005eb0:	4a43      	ldr	r2, [pc, #268]	; (8005fc0 <HAL_GPIO_Init+0x2d4>)
 8005eb2:	4293      	cmp	r3, r2
 8005eb4:	d007      	beq.n	8005ec6 <HAL_GPIO_Init+0x1da>
 8005eb6:	687b      	ldr	r3, [r7, #4]
 8005eb8:	4a42      	ldr	r2, [pc, #264]	; (8005fc4 <HAL_GPIO_Init+0x2d8>)
 8005eba:	4293      	cmp	r3, r2
 8005ebc:	d101      	bne.n	8005ec2 <HAL_GPIO_Init+0x1d6>
 8005ebe:	2303      	movs	r3, #3
 8005ec0:	e006      	b.n	8005ed0 <HAL_GPIO_Init+0x1e4>
 8005ec2:	2305      	movs	r3, #5
 8005ec4:	e004      	b.n	8005ed0 <HAL_GPIO_Init+0x1e4>
 8005ec6:	2302      	movs	r3, #2
 8005ec8:	e002      	b.n	8005ed0 <HAL_GPIO_Init+0x1e4>
 8005eca:	2301      	movs	r3, #1
 8005ecc:	e000      	b.n	8005ed0 <HAL_GPIO_Init+0x1e4>
 8005ece:	2300      	movs	r3, #0
 8005ed0:	697a      	ldr	r2, [r7, #20]
 8005ed2:	2103      	movs	r1, #3
 8005ed4:	400a      	ands	r2, r1
 8005ed6:	0092      	lsls	r2, r2, #2
 8005ed8:	4093      	lsls	r3, r2
 8005eda:	693a      	ldr	r2, [r7, #16]
 8005edc:	4313      	orrs	r3, r2
 8005ede:	613b      	str	r3, [r7, #16]
        SYSCFG->EXTICR[position >> 2u] = temp;
 8005ee0:	4935      	ldr	r1, [pc, #212]	; (8005fb8 <HAL_GPIO_Init+0x2cc>)
 8005ee2:	697b      	ldr	r3, [r7, #20]
 8005ee4:	089b      	lsrs	r3, r3, #2
 8005ee6:	3302      	adds	r3, #2
 8005ee8:	009b      	lsls	r3, r3, #2
 8005eea:	693a      	ldr	r2, [r7, #16]
 8005eec:	505a      	str	r2, [r3, r1]

        /* Clear Rising Falling edge configuration */
        temp = EXTI->RTSR;
 8005eee:	4b36      	ldr	r3, [pc, #216]	; (8005fc8 <HAL_GPIO_Init+0x2dc>)
 8005ef0:	689b      	ldr	r3, [r3, #8]
 8005ef2:	613b      	str	r3, [r7, #16]
        temp &= ~(iocurrent);
 8005ef4:	68fb      	ldr	r3, [r7, #12]
 8005ef6:	43da      	mvns	r2, r3
 8005ef8:	693b      	ldr	r3, [r7, #16]
 8005efa:	4013      	ands	r3, r2
 8005efc:	613b      	str	r3, [r7, #16]
        if((GPIO_Init->Mode & TRIGGER_RISING) != 0x00u)
 8005efe:	683b      	ldr	r3, [r7, #0]
 8005f00:	685a      	ldr	r2, [r3, #4]
 8005f02:	2380      	movs	r3, #128	; 0x80
 8005f04:	035b      	lsls	r3, r3, #13
 8005f06:	4013      	ands	r3, r2
 8005f08:	d003      	beq.n	8005f12 <HAL_GPIO_Init+0x226>
        {
          temp |= iocurrent;
 8005f0a:	693a      	ldr	r2, [r7, #16]
 8005f0c:	68fb      	ldr	r3, [r7, #12]
 8005f0e:	4313      	orrs	r3, r2
 8005f10:	613b      	str	r3, [r7, #16]
        }
        EXTI->RTSR = temp;
 8005f12:	4b2d      	ldr	r3, [pc, #180]	; (8005fc8 <HAL_GPIO_Init+0x2dc>)
 8005f14:	693a      	ldr	r2, [r7, #16]
 8005f16:	609a      	str	r2, [r3, #8]

        temp = EXTI->FTSR;
 8005f18:	4b2b      	ldr	r3, [pc, #172]	; (8005fc8 <HAL_GPIO_Init+0x2dc>)
 8005f1a:	68db      	ldr	r3, [r3, #12]
 8005f1c:	613b      	str	r3, [r7, #16]
        temp &= ~(iocurrent);
 8005f1e:	68fb      	ldr	r3, [r7, #12]
 8005f20:	43da      	mvns	r2, r3
 8005f22:	693b      	ldr	r3, [r7, #16]
 8005f24:	4013      	ands	r3, r2
 8005f26:	613b      	str	r3, [r7, #16]
        if((GPIO_Init->Mode & TRIGGER_FALLING) != 0x00u)
 8005f28:	683b      	ldr	r3, [r7, #0]
 8005f2a:	685a      	ldr	r2, [r3, #4]
 8005f2c:	2380      	movs	r3, #128	; 0x80
 8005f2e:	039b      	lsls	r3, r3, #14
 8005f30:	4013      	ands	r3, r2
 8005f32:	d003      	beq.n	8005f3c <HAL_GPIO_Init+0x250>
        {
          temp |= iocurrent;
 8005f34:	693a      	ldr	r2, [r7, #16]
 8005f36:	68fb      	ldr	r3, [r7, #12]
 8005f38:	4313      	orrs	r3, r2
 8005f3a:	613b      	str	r3, [r7, #16]
        }
        EXTI->FTSR = temp;
 8005f3c:	4b22      	ldr	r3, [pc, #136]	; (8005fc8 <HAL_GPIO_Init+0x2dc>)
 8005f3e:	693a      	ldr	r2, [r7, #16]
 8005f40:	60da      	str	r2, [r3, #12]

        /* Clear EXTI line configuration */
        temp = EXTI->EMR;
 8005f42:	4b21      	ldr	r3, [pc, #132]	; (8005fc8 <HAL_GPIO_Init+0x2dc>)
 8005f44:	685b      	ldr	r3, [r3, #4]
 8005f46:	613b      	str	r3, [r7, #16]
        temp &= ~(iocurrent);
 8005f48:	68fb      	ldr	r3, [r7, #12]
 8005f4a:	43da      	mvns	r2, r3
 8005f4c:	693b      	ldr	r3, [r7, #16]
 8005f4e:	4013      	ands	r3, r2
 8005f50:	613b      	str	r3, [r7, #16]
        if((GPIO_Init->Mode & EXTI_EVT) != 0x00u)
 8005f52:	683b      	ldr	r3, [r7, #0]
 8005f54:	685a      	ldr	r2, [r3, #4]
 8005f56:	2380      	movs	r3, #128	; 0x80
 8005f58:	029b      	lsls	r3, r3, #10
 8005f5a:	4013      	ands	r3, r2
 8005f5c:	d003      	beq.n	8005f66 <HAL_GPIO_Init+0x27a>
        {
          temp |= iocurrent;
 8005f5e:	693a      	ldr	r2, [r7, #16]
 8005f60:	68fb      	ldr	r3, [r7, #12]
 8005f62:	4313      	orrs	r3, r2
 8005f64:	613b      	str	r3, [r7, #16]
        }
        EXTI->EMR = temp;
 8005f66:	4b18      	ldr	r3, [pc, #96]	; (8005fc8 <HAL_GPIO_Init+0x2dc>)
 8005f68:	693a      	ldr	r2, [r7, #16]
 8005f6a:	605a      	str	r2, [r3, #4]

        temp = EXTI->IMR;
 8005f6c:	4b16      	ldr	r3, [pc, #88]	; (8005fc8 <HAL_GPIO_Init+0x2dc>)
 8005f6e:	681b      	ldr	r3, [r3, #0]
 8005f70:	613b      	str	r3, [r7, #16]
        temp &= ~(iocurrent);
 8005f72:	68fb      	ldr	r3, [r7, #12]
 8005f74:	43da      	mvns	r2, r3
 8005f76:	693b      	ldr	r3, [r7, #16]
 8005f78:	4013      	ands	r3, r2
 8005f7a:	613b      	str	r3, [r7, #16]
        if((GPIO_Init->Mode & EXTI_IT) != 0x00u)
 8005f7c:	683b      	ldr	r3, [r7, #0]
 8005f7e:	685a      	ldr	r2, [r3, #4]
 8005f80:	2380      	movs	r3, #128	; 0x80
 8005f82:	025b      	lsls	r3, r3, #9
 8005f84:	4013      	ands	r3, r2
 8005f86:	d003      	beq.n	8005f90 <HAL_GPIO_Init+0x2a4>
        {
          temp |= iocurrent;
 8005f88:	693a      	ldr	r2, [r7, #16]
 8005f8a:	68fb      	ldr	r3, [r7, #12]
 8005f8c:	4313      	orrs	r3, r2
 8005f8e:	613b      	str	r3, [r7, #16]
        }
        EXTI->IMR = temp;
 8005f90:	4b0d      	ldr	r3, [pc, #52]	; (8005fc8 <HAL_GPIO_Init+0x2dc>)
 8005f92:	693a      	ldr	r2, [r7, #16]
 8005f94:	601a      	str	r2, [r3, #0]
      }
    }

    position++;
 8005f96:	697b      	ldr	r3, [r7, #20]
 8005f98:	3301      	adds	r3, #1
 8005f9a:	617b      	str	r3, [r7, #20]
  while (((GPIO_Init->Pin) >> position) != 0x00u)
 8005f9c:	683b      	ldr	r3, [r7, #0]
 8005f9e:	681a      	ldr	r2, [r3, #0]
 8005fa0:	697b      	ldr	r3, [r7, #20]
 8005fa2:	40da      	lsrs	r2, r3
 8005fa4:	1e13      	subs	r3, r2, #0
 8005fa6:	d000      	beq.n	8005faa <HAL_GPIO_Init+0x2be>
 8005fa8:	e6a8      	b.n	8005cfc <HAL_GPIO_Init+0x10>
  } 
}
 8005faa:	46c0      	nop			; (mov r8, r8)
 8005fac:	46c0      	nop			; (mov r8, r8)
 8005fae:	46bd      	mov	sp, r7
 8005fb0:	b006      	add	sp, #24
 8005fb2:	bd80      	pop	{r7, pc}
 8005fb4:	40021000 	.word	0x40021000
 8005fb8:	40010000 	.word	0x40010000
 8005fbc:	48000400 	.word	0x48000400
 8005fc0:	48000800 	.word	0x48000800
 8005fc4:	48000c00 	.word	0x48000c00
 8005fc8:	40010400 	.word	0x40010400

08005fcc <HAL_GPIO_ReadPin>:
  * @param  GPIO_Pin specifies the port bit to read.
  *         This parameter can be GPIO_PIN_x where x can be (0..15).
  * @retval The input port pin value.
  */
GPIO_PinState HAL_GPIO_ReadPin(GPIO_TypeDef* GPIOx, uint16_t GPIO_Pin)
{
 8005fcc:	b580      	push	{r7, lr}
 8005fce:	b084      	sub	sp, #16
 8005fd0:	af00      	add	r7, sp, #0
 8005fd2:	6078      	str	r0, [r7, #4]
 8005fd4:	000a      	movs	r2, r1
 8005fd6:	1cbb      	adds	r3, r7, #2
 8005fd8:	801a      	strh	r2, [r3, #0]
  GPIO_PinState bitstatus;

  /* Check the parameters */
  assert_param(IS_GPIO_PIN(GPIO_Pin));

  if ((GPIOx->IDR & GPIO_Pin) != (uint32_t)GPIO_PIN_RESET)
 8005fda:	687b      	ldr	r3, [r7, #4]
 8005fdc:	691b      	ldr	r3, [r3, #16]
 8005fde:	1cba      	adds	r2, r7, #2
 8005fe0:	8812      	ldrh	r2, [r2, #0]
 8005fe2:	4013      	ands	r3, r2
 8005fe4:	d004      	beq.n	8005ff0 <HAL_GPIO_ReadPin+0x24>
  {
    bitstatus = GPIO_PIN_SET;
 8005fe6:	230f      	movs	r3, #15
 8005fe8:	18fb      	adds	r3, r7, r3
 8005fea:	2201      	movs	r2, #1
 8005fec:	701a      	strb	r2, [r3, #0]
 8005fee:	e003      	b.n	8005ff8 <HAL_GPIO_ReadPin+0x2c>
  }
  else
  {
    bitstatus = GPIO_PIN_RESET;
 8005ff0:	230f      	movs	r3, #15
 8005ff2:	18fb      	adds	r3, r7, r3
 8005ff4:	2200      	movs	r2, #0
 8005ff6:	701a      	strb	r2, [r3, #0]
  }
  return bitstatus;
 8005ff8:	230f      	movs	r3, #15
 8005ffa:	18fb      	adds	r3, r7, r3
 8005ffc:	781b      	ldrb	r3, [r3, #0]
  }
 8005ffe:	0018      	movs	r0, r3
 8006000:	46bd      	mov	sp, r7
 8006002:	b004      	add	sp, #16
 8006004:	bd80      	pop	{r7, pc}

08006006 <HAL_GPIO_WritePin>:
  *            @arg GPIO_PIN_RESET: to clear the port pin
  *            @arg GPIO_PIN_SET: to set the port pin
  * @retval None
  */
void HAL_GPIO_WritePin(GPIO_TypeDef* GPIOx, uint16_t GPIO_Pin, GPIO_PinState PinState)
{
 8006006:	b580      	push	{r7, lr}
 8006008:	b082      	sub	sp, #8
 800600a:	af00      	add	r7, sp, #0
 800600c:	6078      	str	r0, [r7, #4]
 800600e:	0008      	movs	r0, r1
 8006010:	0011      	movs	r1, r2
 8006012:	1cbb      	adds	r3, r7, #2
 8006014:	1c02      	adds	r2, r0, #0
 8006016:	801a      	strh	r2, [r3, #0]
 8006018:	1c7b      	adds	r3, r7, #1
 800601a:	1c0a      	adds	r2, r1, #0
 800601c:	701a      	strb	r2, [r3, #0]
  /* Check the parameters */
  assert_param(IS_GPIO_PIN(GPIO_Pin));
  assert_param(IS_GPIO_PIN_ACTION(PinState));

  if (PinState != GPIO_PIN_RESET)
 800601e:	1c7b      	adds	r3, r7, #1
 8006020:	781b      	ldrb	r3, [r3, #0]
 8006022:	2b00      	cmp	r3, #0
 8006024:	d004      	beq.n	8006030 <HAL_GPIO_WritePin+0x2a>
  {
    GPIOx->BSRR = (uint32_t)GPIO_Pin;
 8006026:	1cbb      	adds	r3, r7, #2
 8006028:	881a      	ldrh	r2, [r3, #0]
 800602a:	687b      	ldr	r3, [r7, #4]
 800602c:	619a      	str	r2, [r3, #24]
  }
  else
  {
    GPIOx->BRR = (uint32_t)GPIO_Pin;
  }
}
 800602e:	e003      	b.n	8006038 <HAL_GPIO_WritePin+0x32>
    GPIOx->BRR = (uint32_t)GPIO_Pin;
 8006030:	1cbb      	adds	r3, r7, #2
 8006032:	881a      	ldrh	r2, [r3, #0]
 8006034:	687b      	ldr	r3, [r7, #4]
 8006036:	629a      	str	r2, [r3, #40]	; 0x28
}
 8006038:	46c0      	nop			; (mov r8, r8)
 800603a:	46bd      	mov	sp, r7
 800603c:	b002      	add	sp, #8
 800603e:	bd80      	pop	{r7, pc}

08006040 <HAL_RCC_OscConfig>:
  *         supported by this macro. User should request a transition to HSE Off
  *         first and then HSE On or HSE Bypass.
  * @retval HAL status
  */
HAL_StatusTypeDef HAL_RCC_OscConfig(RCC_OscInitTypeDef  *RCC_OscInitStruct)
{
 8006040:	b580      	push	{r7, lr}
 8006042:	b088      	sub	sp, #32
 8006044:	af00      	add	r7, sp, #0
 8006046:	6078      	str	r0, [r7, #4]
  uint32_t tickstart;
  uint32_t pll_config;
  uint32_t pll_config2;

  /* Check Null pointer */
  if(RCC_OscInitStruct == NULL)
 8006048:	687b      	ldr	r3, [r7, #4]
 800604a:	2b00      	cmp	r3, #0
 800604c:	d101      	bne.n	8006052 <HAL_RCC_OscConfig+0x12>
  {
    return HAL_ERROR;
 800604e:	2301      	movs	r3, #1
 8006050:	e305      	b.n	800665e <HAL_RCC_OscConfig+0x61e>

  /* Check the parameters */
  assert_param(IS_RCC_OSCILLATORTYPE(RCC_OscInitStruct->OscillatorType));

  /*------------------------------- HSE Configuration ------------------------*/ 
  if(((RCC_OscInitStruct->OscillatorType) & RCC_OSCILLATORTYPE_HSE) == RCC_OSCILLATORTYPE_HSE)
 8006052:	687b      	ldr	r3, [r7, #4]
 8006054:	681b      	ldr	r3, [r3, #0]
 8006056:	2201      	movs	r2, #1
 8006058:	4013      	ands	r3, r2
 800605a:	d100      	bne.n	800605e <HAL_RCC_OscConfig+0x1e>
 800605c:	e08d      	b.n	800617a <HAL_RCC_OscConfig+0x13a>
  {
    /* Check the parameters */
    assert_param(IS_RCC_HSE(RCC_OscInitStruct->HSEState));

    /* When the HSE is used as system clock or clock source for PLL in these cases it is not allowed to be disabled */
    if((__HAL_RCC_GET_SYSCLK_SOURCE() == RCC_SYSCLKSOURCE_STATUS_HSE) 
 800605e:	4bc5      	ldr	r3, [pc, #788]	; (8006374 <HAL_RCC_OscConfig+0x334>)
 8006060:	685b      	ldr	r3, [r3, #4]
 8006062:	220c      	movs	r2, #12
 8006064:	4013      	ands	r3, r2
 8006066:	2b04      	cmp	r3, #4
 8006068:	d00e      	beq.n	8006088 <HAL_RCC_OscConfig+0x48>
       || ((__HAL_RCC_GET_SYSCLK_SOURCE() == RCC_SYSCLKSOURCE_STATUS_PLLCLK) && (__HAL_RCC_GET_PLL_OSCSOURCE() == RCC_PLLSOURCE_HSE)))
 800606a:	4bc2      	ldr	r3, [pc, #776]	; (8006374 <HAL_RCC_OscConfig+0x334>)
 800606c:	685b      	ldr	r3, [r3, #4]
 800606e:	220c      	movs	r2, #12
 8006070:	4013      	ands	r3, r2
 8006072:	2b08      	cmp	r3, #8
 8006074:	d116      	bne.n	80060a4 <HAL_RCC_OscConfig+0x64>
 8006076:	4bbf      	ldr	r3, [pc, #764]	; (8006374 <HAL_RCC_OscConfig+0x334>)
 8006078:	685a      	ldr	r2, [r3, #4]
 800607a:	23c0      	movs	r3, #192	; 0xc0
 800607c:	025b      	lsls	r3, r3, #9
 800607e:	401a      	ands	r2, r3
 8006080:	2380      	movs	r3, #128	; 0x80
 8006082:	025b      	lsls	r3, r3, #9
 8006084:	429a      	cmp	r2, r3
 8006086:	d10d      	bne.n	80060a4 <HAL_RCC_OscConfig+0x64>
    {
      if((__HAL_RCC_GET_FLAG(RCC_FLAG_HSERDY) != RESET) && (RCC_OscInitStruct->HSEState == RCC_HSE_OFF))
 8006088:	4bba      	ldr	r3, [pc, #744]	; (8006374 <HAL_RCC_OscConfig+0x334>)
 800608a:	681a      	ldr	r2, [r3, #0]
 800608c:	2380      	movs	r3, #128	; 0x80
 800608e:	029b      	lsls	r3, r3, #10
 8006090:	4013      	ands	r3, r2
 8006092:	d100      	bne.n	8006096 <HAL_RCC_OscConfig+0x56>
 8006094:	e070      	b.n	8006178 <HAL_RCC_OscConfig+0x138>
 8006096:	687b      	ldr	r3, [r7, #4]
 8006098:	685b      	ldr	r3, [r3, #4]
 800609a:	2b00      	cmp	r3, #0
 800609c:	d000      	beq.n	80060a0 <HAL_RCC_OscConfig+0x60>
 800609e:	e06b      	b.n	8006178 <HAL_RCC_OscConfig+0x138>
      {
        return HAL_ERROR;
 80060a0:	2301      	movs	r3, #1
 80060a2:	e2dc      	b.n	800665e <HAL_RCC_OscConfig+0x61e>
      }
    }
    else
    {
      /* Set the new HSE configuration ---------------------------------------*/
      __HAL_RCC_HSE_CONFIG(RCC_OscInitStruct->HSEState);
 80060a4:	687b      	ldr	r3, [r7, #4]
 80060a6:	685b      	ldr	r3, [r3, #4]
 80060a8:	2b01      	cmp	r3, #1
 80060aa:	d107      	bne.n	80060bc <HAL_RCC_OscConfig+0x7c>
 80060ac:	4bb1      	ldr	r3, [pc, #708]	; (8006374 <HAL_RCC_OscConfig+0x334>)
 80060ae:	681a      	ldr	r2, [r3, #0]
 80060b0:	4bb0      	ldr	r3, [pc, #704]	; (8006374 <HAL_RCC_OscConfig+0x334>)
 80060b2:	2180      	movs	r1, #128	; 0x80
 80060b4:	0249      	lsls	r1, r1, #9
 80060b6:	430a      	orrs	r2, r1
 80060b8:	601a      	str	r2, [r3, #0]
 80060ba:	e02f      	b.n	800611c <HAL_RCC_OscConfig+0xdc>
 80060bc:	687b      	ldr	r3, [r7, #4]
 80060be:	685b      	ldr	r3, [r3, #4]
 80060c0:	2b00      	cmp	r3, #0
 80060c2:	d10c      	bne.n	80060de <HAL_RCC_OscConfig+0x9e>
 80060c4:	4bab      	ldr	r3, [pc, #684]	; (8006374 <HAL_RCC_OscConfig+0x334>)
 80060c6:	681a      	ldr	r2, [r3, #0]
 80060c8:	4baa      	ldr	r3, [pc, #680]	; (8006374 <HAL_RCC_OscConfig+0x334>)
 80060ca:	49ab      	ldr	r1, [pc, #684]	; (8006378 <HAL_RCC_OscConfig+0x338>)
 80060cc:	400a      	ands	r2, r1
 80060ce:	601a      	str	r2, [r3, #0]
 80060d0:	4ba8      	ldr	r3, [pc, #672]	; (8006374 <HAL_RCC_OscConfig+0x334>)
 80060d2:	681a      	ldr	r2, [r3, #0]
 80060d4:	4ba7      	ldr	r3, [pc, #668]	; (8006374 <HAL_RCC_OscConfig+0x334>)
 80060d6:	49a9      	ldr	r1, [pc, #676]	; (800637c <HAL_RCC_OscConfig+0x33c>)
 80060d8:	400a      	ands	r2, r1
 80060da:	601a      	str	r2, [r3, #0]
 80060dc:	e01e      	b.n	800611c <HAL_RCC_OscConfig+0xdc>
 80060de:	687b      	ldr	r3, [r7, #4]
 80060e0:	685b      	ldr	r3, [r3, #4]
 80060e2:	2b05      	cmp	r3, #5
 80060e4:	d10e      	bne.n	8006104 <HAL_RCC_OscConfig+0xc4>
 80060e6:	4ba3      	ldr	r3, [pc, #652]	; (8006374 <HAL_RCC_OscConfig+0x334>)
 80060e8:	681a      	ldr	r2, [r3, #0]
 80060ea:	4ba2      	ldr	r3, [pc, #648]	; (8006374 <HAL_RCC_OscConfig+0x334>)
 80060ec:	2180      	movs	r1, #128	; 0x80
 80060ee:	02c9      	lsls	r1, r1, #11
 80060f0:	430a      	orrs	r2, r1
 80060f2:	601a      	str	r2, [r3, #0]
 80060f4:	4b9f      	ldr	r3, [pc, #636]	; (8006374 <HAL_RCC_OscConfig+0x334>)
 80060f6:	681a      	ldr	r2, [r3, #0]
 80060f8:	4b9e      	ldr	r3, [pc, #632]	; (8006374 <HAL_RCC_OscConfig+0x334>)
 80060fa:	2180      	movs	r1, #128	; 0x80
 80060fc:	0249      	lsls	r1, r1, #9
 80060fe:	430a      	orrs	r2, r1
 8006100:	601a      	str	r2, [r3, #0]
 8006102:	e00b      	b.n	800611c <HAL_RCC_OscConfig+0xdc>
 8006104:	4b9b      	ldr	r3, [pc, #620]	; (8006374 <HAL_RCC_OscConfig+0x334>)
 8006106:	681a      	ldr	r2, [r3, #0]
 8006108:	4b9a      	ldr	r3, [pc, #616]	; (8006374 <HAL_RCC_OscConfig+0x334>)
 800610a:	499b      	ldr	r1, [pc, #620]	; (8006378 <HAL_RCC_OscConfig+0x338>)
 800610c:	400a      	ands	r2, r1
 800610e:	601a      	str	r2, [r3, #0]
 8006110:	4b98      	ldr	r3, [pc, #608]	; (8006374 <HAL_RCC_OscConfig+0x334>)
 8006112:	681a      	ldr	r2, [r3, #0]
 8006114:	4b97      	ldr	r3, [pc, #604]	; (8006374 <HAL_RCC_OscConfig+0x334>)
 8006116:	4999      	ldr	r1, [pc, #612]	; (800637c <HAL_RCC_OscConfig+0x33c>)
 8006118:	400a      	ands	r2, r1
 800611a:	601a      	str	r2, [r3, #0]
      

       /* Check the HSE State */
      if(RCC_OscInitStruct->HSEState != RCC_HSE_OFF)
 800611c:	687b      	ldr	r3, [r7, #4]
 800611e:	685b      	ldr	r3, [r3, #4]
 8006120:	2b00      	cmp	r3, #0
 8006122:	d014      	beq.n	800614e <HAL_RCC_OscConfig+0x10e>
      {
        /* Get Start Tick */
        tickstart = HAL_GetTick();
 8006124:	f7ff f9dc 	bl	80054e0 <HAL_GetTick>
 8006128:	0003      	movs	r3, r0
 800612a:	61bb      	str	r3, [r7, #24]
        
        /* Wait till HSE is ready */
        while(__HAL_RCC_GET_FLAG(RCC_FLAG_HSERDY) == RESET)
 800612c:	e008      	b.n	8006140 <HAL_RCC_OscConfig+0x100>
        {
          if((HAL_GetTick() - tickstart ) > HSE_TIMEOUT_VALUE)
 800612e:	f7ff f9d7 	bl	80054e0 <HAL_GetTick>
 8006132:	0002      	movs	r2, r0
 8006134:	69bb      	ldr	r3, [r7, #24]
 8006136:	1ad3      	subs	r3, r2, r3
 8006138:	2b64      	cmp	r3, #100	; 0x64
 800613a:	d901      	bls.n	8006140 <HAL_RCC_OscConfig+0x100>
          {
            return HAL_TIMEOUT;
 800613c:	2303      	movs	r3, #3
 800613e:	e28e      	b.n	800665e <HAL_RCC_OscConfig+0x61e>
        while(__HAL_RCC_GET_FLAG(RCC_FLAG_HSERDY) == RESET)
 8006140:	4b8c      	ldr	r3, [pc, #560]	; (8006374 <HAL_RCC_OscConfig+0x334>)
 8006142:	681a      	ldr	r2, [r3, #0]
 8006144:	2380      	movs	r3, #128	; 0x80
 8006146:	029b      	lsls	r3, r3, #10
 8006148:	4013      	ands	r3, r2
 800614a:	d0f0      	beq.n	800612e <HAL_RCC_OscConfig+0xee>
 800614c:	e015      	b.n	800617a <HAL_RCC_OscConfig+0x13a>
        }
      }
      else
      {
        /* Get Start Tick */
        tickstart = HAL_GetTick();
 800614e:	f7ff f9c7 	bl	80054e0 <HAL_GetTick>
 8006152:	0003      	movs	r3, r0
 8006154:	61bb      	str	r3, [r7, #24]
        
        /* Wait till HSE is disabled */
        while(__HAL_RCC_GET_FLAG(RCC_FLAG_HSERDY) != RESET)
 8006156:	e008      	b.n	800616a <HAL_RCC_OscConfig+0x12a>
        {
           if((HAL_GetTick() - tickstart ) > HSE_TIMEOUT_VALUE)
 8006158:	f7ff f9c2 	bl	80054e0 <HAL_GetTick>
 800615c:	0002      	movs	r2, r0
 800615e:	69bb      	ldr	r3, [r7, #24]
 8006160:	1ad3      	subs	r3, r2, r3
 8006162:	2b64      	cmp	r3, #100	; 0x64
 8006164:	d901      	bls.n	800616a <HAL_RCC_OscConfig+0x12a>
          {
            return HAL_TIMEOUT;
 8006166:	2303      	movs	r3, #3
 8006168:	e279      	b.n	800665e <HAL_RCC_OscConfig+0x61e>
        while(__HAL_RCC_GET_FLAG(RCC_FLAG_HSERDY) != RESET)
 800616a:	4b82      	ldr	r3, [pc, #520]	; (8006374 <HAL_RCC_OscConfig+0x334>)
 800616c:	681a      	ldr	r2, [r3, #0]
 800616e:	2380      	movs	r3, #128	; 0x80
 8006170:	029b      	lsls	r3, r3, #10
 8006172:	4013      	ands	r3, r2
 8006174:	d1f0      	bne.n	8006158 <HAL_RCC_OscConfig+0x118>
 8006176:	e000      	b.n	800617a <HAL_RCC_OscConfig+0x13a>
      if((__HAL_RCC_GET_FLAG(RCC_FLAG_HSERDY) != RESET) && (RCC_OscInitStruct->HSEState == RCC_HSE_OFF))
 8006178:	46c0      	nop			; (mov r8, r8)
        }
      }
    }
  }
  /*----------------------------- HSI Configuration --------------------------*/ 
  if(((RCC_OscInitStruct->OscillatorType) & RCC_OSCILLATORTYPE_HSI) == RCC_OSCILLATORTYPE_HSI)
 800617a:	687b      	ldr	r3, [r7, #4]
 800617c:	681b      	ldr	r3, [r3, #0]
 800617e:	2202      	movs	r2, #2
 8006180:	4013      	ands	r3, r2
 8006182:	d100      	bne.n	8006186 <HAL_RCC_OscConfig+0x146>
 8006184:	e06c      	b.n	8006260 <HAL_RCC_OscConfig+0x220>
    /* Check the parameters */
    assert_param(IS_RCC_HSI(RCC_OscInitStruct->HSIState));
    assert_param(IS_RCC_CALIBRATION_VALUE(RCC_OscInitStruct->HSICalibrationValue));
    
    /* Check if HSI is used as system clock or as PLL source when PLL is selected as system clock */ 
    if((__HAL_RCC_GET_SYSCLK_SOURCE() == RCC_SYSCLKSOURCE_STATUS_HSI) 
 8006186:	4b7b      	ldr	r3, [pc, #492]	; (8006374 <HAL_RCC_OscConfig+0x334>)
 8006188:	685b      	ldr	r3, [r3, #4]
 800618a:	220c      	movs	r2, #12
 800618c:	4013      	ands	r3, r2
 800618e:	d00e      	beq.n	80061ae <HAL_RCC_OscConfig+0x16e>
       || ((__HAL_RCC_GET_SYSCLK_SOURCE() == RCC_SYSCLKSOURCE_STATUS_PLLCLK) && (__HAL_RCC_GET_PLL_OSCSOURCE() == RCC_PLLSOURCE_HSI)))
 8006190:	4b78      	ldr	r3, [pc, #480]	; (8006374 <HAL_RCC_OscConfig+0x334>)
 8006192:	685b      	ldr	r3, [r3, #4]
 8006194:	220c      	movs	r2, #12
 8006196:	4013      	ands	r3, r2
 8006198:	2b08      	cmp	r3, #8
 800619a:	d11f      	bne.n	80061dc <HAL_RCC_OscConfig+0x19c>
 800619c:	4b75      	ldr	r3, [pc, #468]	; (8006374 <HAL_RCC_OscConfig+0x334>)
 800619e:	685a      	ldr	r2, [r3, #4]
 80061a0:	23c0      	movs	r3, #192	; 0xc0
 80061a2:	025b      	lsls	r3, r3, #9
 80061a4:	401a      	ands	r2, r3
 80061a6:	2380      	movs	r3, #128	; 0x80
 80061a8:	021b      	lsls	r3, r3, #8
 80061aa:	429a      	cmp	r2, r3
 80061ac:	d116      	bne.n	80061dc <HAL_RCC_OscConfig+0x19c>
    {
      /* When HSI is used as system clock it will not disabled */
      if((__HAL_RCC_GET_FLAG(RCC_FLAG_HSIRDY) != RESET) && (RCC_OscInitStruct->HSIState != RCC_HSI_ON))
 80061ae:	4b71      	ldr	r3, [pc, #452]	; (8006374 <HAL_RCC_OscConfig+0x334>)
 80061b0:	681b      	ldr	r3, [r3, #0]
 80061b2:	2202      	movs	r2, #2
 80061b4:	4013      	ands	r3, r2
 80061b6:	d005      	beq.n	80061c4 <HAL_RCC_OscConfig+0x184>
 80061b8:	687b      	ldr	r3, [r7, #4]
 80061ba:	68db      	ldr	r3, [r3, #12]
 80061bc:	2b01      	cmp	r3, #1
 80061be:	d001      	beq.n	80061c4 <HAL_RCC_OscConfig+0x184>
      {
        return HAL_ERROR;
 80061c0:	2301      	movs	r3, #1
 80061c2:	e24c      	b.n	800665e <HAL_RCC_OscConfig+0x61e>
      }
      /* Otherwise, just the calibration is allowed */
      else
      {
        /* Adjusts the Internal High Speed oscillator (HSI) calibration value.*/
        __HAL_RCC_HSI_CALIBRATIONVALUE_ADJUST(RCC_OscInitStruct->HSICalibrationValue);
 80061c4:	4b6b      	ldr	r3, [pc, #428]	; (8006374 <HAL_RCC_OscConfig+0x334>)
 80061c6:	681b      	ldr	r3, [r3, #0]
 80061c8:	22f8      	movs	r2, #248	; 0xf8
 80061ca:	4393      	bics	r3, r2
 80061cc:	0019      	movs	r1, r3
 80061ce:	687b      	ldr	r3, [r7, #4]
 80061d0:	691b      	ldr	r3, [r3, #16]
 80061d2:	00da      	lsls	r2, r3, #3
 80061d4:	4b67      	ldr	r3, [pc, #412]	; (8006374 <HAL_RCC_OscConfig+0x334>)
 80061d6:	430a      	orrs	r2, r1
 80061d8:	601a      	str	r2, [r3, #0]
      if((__HAL_RCC_GET_FLAG(RCC_FLAG_HSIRDY) != RESET) && (RCC_OscInitStruct->HSIState != RCC_HSI_ON))
 80061da:	e041      	b.n	8006260 <HAL_RCC_OscConfig+0x220>
      }
    }
    else
    {
      /* Check the HSI State */
      if(RCC_OscInitStruct->HSIState != RCC_HSI_OFF)
 80061dc:	687b      	ldr	r3, [r7, #4]
 80061de:	68db      	ldr	r3, [r3, #12]
 80061e0:	2b00      	cmp	r3, #0
 80061e2:	d024      	beq.n	800622e <HAL_RCC_OscConfig+0x1ee>
      {
       /* Enable the Internal High Speed oscillator (HSI). */
        __HAL_RCC_HSI_ENABLE();
 80061e4:	4b63      	ldr	r3, [pc, #396]	; (8006374 <HAL_RCC_OscConfig+0x334>)
 80061e6:	681a      	ldr	r2, [r3, #0]
 80061e8:	4b62      	ldr	r3, [pc, #392]	; (8006374 <HAL_RCC_OscConfig+0x334>)
 80061ea:	2101      	movs	r1, #1
 80061ec:	430a      	orrs	r2, r1
 80061ee:	601a      	str	r2, [r3, #0]
        
        /* Get Start Tick */
        tickstart = HAL_GetTick();
 80061f0:	f7ff f976 	bl	80054e0 <HAL_GetTick>
 80061f4:	0003      	movs	r3, r0
 80061f6:	61bb      	str	r3, [r7, #24]
        
        /* Wait till HSI is ready */
        while(__HAL_RCC_GET_FLAG(RCC_FLAG_HSIRDY) == RESET)
 80061f8:	e008      	b.n	800620c <HAL_RCC_OscConfig+0x1cc>
        {
          if((HAL_GetTick() - tickstart ) > HSI_TIMEOUT_VALUE)
 80061fa:	f7ff f971 	bl	80054e0 <HAL_GetTick>
 80061fe:	0002      	movs	r2, r0
 8006200:	69bb      	ldr	r3, [r7, #24]
 8006202:	1ad3      	subs	r3, r2, r3
 8006204:	2b02      	cmp	r3, #2
 8006206:	d901      	bls.n	800620c <HAL_RCC_OscConfig+0x1cc>
          {
            return HAL_TIMEOUT;
 8006208:	2303      	movs	r3, #3
 800620a:	e228      	b.n	800665e <HAL_RCC_OscConfig+0x61e>
        while(__HAL_RCC_GET_FLAG(RCC_FLAG_HSIRDY) == RESET)
 800620c:	4b59      	ldr	r3, [pc, #356]	; (8006374 <HAL_RCC_OscConfig+0x334>)
 800620e:	681b      	ldr	r3, [r3, #0]
 8006210:	2202      	movs	r2, #2
 8006212:	4013      	ands	r3, r2
 8006214:	d0f1      	beq.n	80061fa <HAL_RCC_OscConfig+0x1ba>
          }
        }
                
        /* Adjusts the Internal High Speed oscillator (HSI) calibration value.*/
        __HAL_RCC_HSI_CALIBRATIONVALUE_ADJUST(RCC_OscInitStruct->HSICalibrationValue);
 8006216:	4b57      	ldr	r3, [pc, #348]	; (8006374 <HAL_RCC_OscConfig+0x334>)
 8006218:	681b      	ldr	r3, [r3, #0]
 800621a:	22f8      	movs	r2, #248	; 0xf8
 800621c:	4393      	bics	r3, r2
 800621e:	0019      	movs	r1, r3
 8006220:	687b      	ldr	r3, [r7, #4]
 8006222:	691b      	ldr	r3, [r3, #16]
 8006224:	00da      	lsls	r2, r3, #3
 8006226:	4b53      	ldr	r3, [pc, #332]	; (8006374 <HAL_RCC_OscConfig+0x334>)
 8006228:	430a      	orrs	r2, r1
 800622a:	601a      	str	r2, [r3, #0]
 800622c:	e018      	b.n	8006260 <HAL_RCC_OscConfig+0x220>
      }
      else
      {
        /* Disable the Internal High Speed oscillator (HSI). */
        __HAL_RCC_HSI_DISABLE();
 800622e:	4b51      	ldr	r3, [pc, #324]	; (8006374 <HAL_RCC_OscConfig+0x334>)
 8006230:	681a      	ldr	r2, [r3, #0]
 8006232:	4b50      	ldr	r3, [pc, #320]	; (8006374 <HAL_RCC_OscConfig+0x334>)
 8006234:	2101      	movs	r1, #1
 8006236:	438a      	bics	r2, r1
 8006238:	601a      	str	r2, [r3, #0]
        
        /* Get Start Tick */
        tickstart = HAL_GetTick();
 800623a:	f7ff f951 	bl	80054e0 <HAL_GetTick>
 800623e:	0003      	movs	r3, r0
 8006240:	61bb      	str	r3, [r7, #24]
        
        /* Wait till HSI is disabled */
        while(__HAL_RCC_GET_FLAG(RCC_FLAG_HSIRDY) != RESET)
 8006242:	e008      	b.n	8006256 <HAL_RCC_OscConfig+0x216>
        {
          if((HAL_GetTick() - tickstart ) > HSI_TIMEOUT_VALUE)
 8006244:	f7ff f94c 	bl	80054e0 <HAL_GetTick>
 8006248:	0002      	movs	r2, r0
 800624a:	69bb      	ldr	r3, [r7, #24]
 800624c:	1ad3      	subs	r3, r2, r3
 800624e:	2b02      	cmp	r3, #2
 8006250:	d901      	bls.n	8006256 <HAL_RCC_OscConfig+0x216>
          {
            return HAL_TIMEOUT;
 8006252:	2303      	movs	r3, #3
 8006254:	e203      	b.n	800665e <HAL_RCC_OscConfig+0x61e>
        while(__HAL_RCC_GET_FLAG(RCC_FLAG_HSIRDY) != RESET)
 8006256:	4b47      	ldr	r3, [pc, #284]	; (8006374 <HAL_RCC_OscConfig+0x334>)
 8006258:	681b      	ldr	r3, [r3, #0]
 800625a:	2202      	movs	r2, #2
 800625c:	4013      	ands	r3, r2
 800625e:	d1f1      	bne.n	8006244 <HAL_RCC_OscConfig+0x204>
        }
      }
    }
  }
  /*------------------------------ LSI Configuration -------------------------*/ 
  if(((RCC_OscInitStruct->OscillatorType) & RCC_OSCILLATORTYPE_LSI) == RCC_OSCILLATORTYPE_LSI)
 8006260:	687b      	ldr	r3, [r7, #4]
 8006262:	681b      	ldr	r3, [r3, #0]
 8006264:	2208      	movs	r2, #8
 8006266:	4013      	ands	r3, r2
 8006268:	d036      	beq.n	80062d8 <HAL_RCC_OscConfig+0x298>
  {
    /* Check the parameters */
    assert_param(IS_RCC_LSI(RCC_OscInitStruct->LSIState));
    
    /* Check the LSI State */
    if(RCC_OscInitStruct->LSIState != RCC_LSI_OFF)
 800626a:	687b      	ldr	r3, [r7, #4]
 800626c:	69db      	ldr	r3, [r3, #28]
 800626e:	2b00      	cmp	r3, #0
 8006270:	d019      	beq.n	80062a6 <HAL_RCC_OscConfig+0x266>
    {
      /* Enable the Internal Low Speed oscillator (LSI). */
      __HAL_RCC_LSI_ENABLE();
 8006272:	4b40      	ldr	r3, [pc, #256]	; (8006374 <HAL_RCC_OscConfig+0x334>)
 8006274:	6a5a      	ldr	r2, [r3, #36]	; 0x24
 8006276:	4b3f      	ldr	r3, [pc, #252]	; (8006374 <HAL_RCC_OscConfig+0x334>)
 8006278:	2101      	movs	r1, #1
 800627a:	430a      	orrs	r2, r1
 800627c:	625a      	str	r2, [r3, #36]	; 0x24
      
      /* Get Start Tick */
      tickstart = HAL_GetTick();
 800627e:	f7ff f92f 	bl	80054e0 <HAL_GetTick>
 8006282:	0003      	movs	r3, r0
 8006284:	61bb      	str	r3, [r7, #24]
      
      /* Wait till LSI is ready */  
      while(__HAL_RCC_GET_FLAG(RCC_FLAG_LSIRDY) == RESET)
 8006286:	e008      	b.n	800629a <HAL_RCC_OscConfig+0x25a>
      {
        if((HAL_GetTick() - tickstart ) > LSI_TIMEOUT_VALUE)
 8006288:	f7ff f92a 	bl	80054e0 <HAL_GetTick>
 800628c:	0002      	movs	r2, r0
 800628e:	69bb      	ldr	r3, [r7, #24]
 8006290:	1ad3      	subs	r3, r2, r3
 8006292:	2b02      	cmp	r3, #2
 8006294:	d901      	bls.n	800629a <HAL_RCC_OscConfig+0x25a>
        {
          return HAL_TIMEOUT;
 8006296:	2303      	movs	r3, #3
 8006298:	e1e1      	b.n	800665e <HAL_RCC_OscConfig+0x61e>
      while(__HAL_RCC_GET_FLAG(RCC_FLAG_LSIRDY) == RESET)
 800629a:	4b36      	ldr	r3, [pc, #216]	; (8006374 <HAL_RCC_OscConfig+0x334>)
 800629c:	6a5b      	ldr	r3, [r3, #36]	; 0x24
 800629e:	2202      	movs	r2, #2
 80062a0:	4013      	ands	r3, r2
 80062a2:	d0f1      	beq.n	8006288 <HAL_RCC_OscConfig+0x248>
 80062a4:	e018      	b.n	80062d8 <HAL_RCC_OscConfig+0x298>
      }
    }
    else
    {
      /* Disable the Internal Low Speed oscillator (LSI). */
      __HAL_RCC_LSI_DISABLE();
 80062a6:	4b33      	ldr	r3, [pc, #204]	; (8006374 <HAL_RCC_OscConfig+0x334>)
 80062a8:	6a5a      	ldr	r2, [r3, #36]	; 0x24
 80062aa:	4b32      	ldr	r3, [pc, #200]	; (8006374 <HAL_RCC_OscConfig+0x334>)
 80062ac:	2101      	movs	r1, #1
 80062ae:	438a      	bics	r2, r1
 80062b0:	625a      	str	r2, [r3, #36]	; 0x24
      
      /* Get Start Tick */
      tickstart = HAL_GetTick();
 80062b2:	f7ff f915 	bl	80054e0 <HAL_GetTick>
 80062b6:	0003      	movs	r3, r0
 80062b8:	61bb      	str	r3, [r7, #24]
      
      /* Wait till LSI is disabled */  
      while(__HAL_RCC_GET_FLAG(RCC_FLAG_LSIRDY) != RESET)
 80062ba:	e008      	b.n	80062ce <HAL_RCC_OscConfig+0x28e>
      {
        if((HAL_GetTick() - tickstart ) > LSI_TIMEOUT_VALUE)
 80062bc:	f7ff f910 	bl	80054e0 <HAL_GetTick>
 80062c0:	0002      	movs	r2, r0
 80062c2:	69bb      	ldr	r3, [r7, #24]
 80062c4:	1ad3      	subs	r3, r2, r3
 80062c6:	2b02      	cmp	r3, #2
 80062c8:	d901      	bls.n	80062ce <HAL_RCC_OscConfig+0x28e>
        {
          return HAL_TIMEOUT;
 80062ca:	2303      	movs	r3, #3
 80062cc:	e1c7      	b.n	800665e <HAL_RCC_OscConfig+0x61e>
      while(__HAL_RCC_GET_FLAG(RCC_FLAG_LSIRDY) != RESET)
 80062ce:	4b29      	ldr	r3, [pc, #164]	; (8006374 <HAL_RCC_OscConfig+0x334>)
 80062d0:	6a5b      	ldr	r3, [r3, #36]	; 0x24
 80062d2:	2202      	movs	r2, #2
 80062d4:	4013      	ands	r3, r2
 80062d6:	d1f1      	bne.n	80062bc <HAL_RCC_OscConfig+0x27c>
        }
      }
    }
  }
  /*------------------------------ LSE Configuration -------------------------*/ 
  if(((RCC_OscInitStruct->OscillatorType) & RCC_OSCILLATORTYPE_LSE) == RCC_OSCILLATORTYPE_LSE)
 80062d8:	687b      	ldr	r3, [r7, #4]
 80062da:	681b      	ldr	r3, [r3, #0]
 80062dc:	2204      	movs	r2, #4
 80062de:	4013      	ands	r3, r2
 80062e0:	d100      	bne.n	80062e4 <HAL_RCC_OscConfig+0x2a4>
 80062e2:	e0b5      	b.n	8006450 <HAL_RCC_OscConfig+0x410>
  {
    FlagStatus       pwrclkchanged = RESET;
 80062e4:	201f      	movs	r0, #31
 80062e6:	183b      	adds	r3, r7, r0
 80062e8:	2200      	movs	r2, #0
 80062ea:	701a      	strb	r2, [r3, #0]
    /* Check the parameters */
    assert_param(IS_RCC_LSE(RCC_OscInitStruct->LSEState));

    /* Update LSE configuration in Backup Domain control register    */
    /* Requires to enable write access to Backup Domain of necessary */
    if(__HAL_RCC_PWR_IS_CLK_DISABLED())
 80062ec:	4b21      	ldr	r3, [pc, #132]	; (8006374 <HAL_RCC_OscConfig+0x334>)
 80062ee:	69da      	ldr	r2, [r3, #28]
 80062f0:	2380      	movs	r3, #128	; 0x80
 80062f2:	055b      	lsls	r3, r3, #21
 80062f4:	4013      	ands	r3, r2
 80062f6:	d110      	bne.n	800631a <HAL_RCC_OscConfig+0x2da>
    {
      __HAL_RCC_PWR_CLK_ENABLE();
 80062f8:	4b1e      	ldr	r3, [pc, #120]	; (8006374 <HAL_RCC_OscConfig+0x334>)
 80062fa:	69da      	ldr	r2, [r3, #28]
 80062fc:	4b1d      	ldr	r3, [pc, #116]	; (8006374 <HAL_RCC_OscConfig+0x334>)
 80062fe:	2180      	movs	r1, #128	; 0x80
 8006300:	0549      	lsls	r1, r1, #21
 8006302:	430a      	orrs	r2, r1
 8006304:	61da      	str	r2, [r3, #28]
 8006306:	4b1b      	ldr	r3, [pc, #108]	; (8006374 <HAL_RCC_OscConfig+0x334>)
 8006308:	69da      	ldr	r2, [r3, #28]
 800630a:	2380      	movs	r3, #128	; 0x80
 800630c:	055b      	lsls	r3, r3, #21
 800630e:	4013      	ands	r3, r2
 8006310:	60fb      	str	r3, [r7, #12]
 8006312:	68fb      	ldr	r3, [r7, #12]
      pwrclkchanged = SET;
 8006314:	183b      	adds	r3, r7, r0
 8006316:	2201      	movs	r2, #1
 8006318:	701a      	strb	r2, [r3, #0]
    }
    
    if(HAL_IS_BIT_CLR(PWR->CR, PWR_CR_DBP))
 800631a:	4b19      	ldr	r3, [pc, #100]	; (8006380 <HAL_RCC_OscConfig+0x340>)
 800631c:	681a      	ldr	r2, [r3, #0]
 800631e:	2380      	movs	r3, #128	; 0x80
 8006320:	005b      	lsls	r3, r3, #1
 8006322:	4013      	ands	r3, r2
 8006324:	d11a      	bne.n	800635c <HAL_RCC_OscConfig+0x31c>
    {
      /* Enable write access to Backup domain */
      SET_BIT(PWR->CR, PWR_CR_DBP);
 8006326:	4b16      	ldr	r3, [pc, #88]	; (8006380 <HAL_RCC_OscConfig+0x340>)
 8006328:	681a      	ldr	r2, [r3, #0]
 800632a:	4b15      	ldr	r3, [pc, #84]	; (8006380 <HAL_RCC_OscConfig+0x340>)
 800632c:	2180      	movs	r1, #128	; 0x80
 800632e:	0049      	lsls	r1, r1, #1
 8006330:	430a      	orrs	r2, r1
 8006332:	601a      	str	r2, [r3, #0]
      
      /* Wait for Backup domain Write protection disable */
      tickstart = HAL_GetTick();
 8006334:	f7ff f8d4 	bl	80054e0 <HAL_GetTick>
 8006338:	0003      	movs	r3, r0
 800633a:	61bb      	str	r3, [r7, #24]

      while(HAL_IS_BIT_CLR(PWR->CR, PWR_CR_DBP))
 800633c:	e008      	b.n	8006350 <HAL_RCC_OscConfig+0x310>
      {
        if((HAL_GetTick() - tickstart) > RCC_DBP_TIMEOUT_VALUE)
 800633e:	f7ff f8cf 	bl	80054e0 <HAL_GetTick>
 8006342:	0002      	movs	r2, r0
 8006344:	69bb      	ldr	r3, [r7, #24]
 8006346:	1ad3      	subs	r3, r2, r3
 8006348:	2b64      	cmp	r3, #100	; 0x64
 800634a:	d901      	bls.n	8006350 <HAL_RCC_OscConfig+0x310>
        {
          return HAL_TIMEOUT;
 800634c:	2303      	movs	r3, #3
 800634e:	e186      	b.n	800665e <HAL_RCC_OscConfig+0x61e>
      while(HAL_IS_BIT_CLR(PWR->CR, PWR_CR_DBP))
 8006350:	4b0b      	ldr	r3, [pc, #44]	; (8006380 <HAL_RCC_OscConfig+0x340>)
 8006352:	681a      	ldr	r2, [r3, #0]
 8006354:	2380      	movs	r3, #128	; 0x80
 8006356:	005b      	lsls	r3, r3, #1
 8006358:	4013      	ands	r3, r2
 800635a:	d0f0      	beq.n	800633e <HAL_RCC_OscConfig+0x2fe>
        }
      }
    }

    /* Set the new LSE configuration -----------------------------------------*/
    __HAL_RCC_LSE_CONFIG(RCC_OscInitStruct->LSEState);
 800635c:	687b      	ldr	r3, [r7, #4]
 800635e:	689b      	ldr	r3, [r3, #8]
 8006360:	2b01      	cmp	r3, #1
 8006362:	d10f      	bne.n	8006384 <HAL_RCC_OscConfig+0x344>
 8006364:	4b03      	ldr	r3, [pc, #12]	; (8006374 <HAL_RCC_OscConfig+0x334>)
 8006366:	6a1a      	ldr	r2, [r3, #32]
 8006368:	4b02      	ldr	r3, [pc, #8]	; (8006374 <HAL_RCC_OscConfig+0x334>)
 800636a:	2101      	movs	r1, #1
 800636c:	430a      	orrs	r2, r1
 800636e:	621a      	str	r2, [r3, #32]
 8006370:	e036      	b.n	80063e0 <HAL_RCC_OscConfig+0x3a0>
 8006372:	46c0      	nop			; (mov r8, r8)
 8006374:	40021000 	.word	0x40021000
 8006378:	fffeffff 	.word	0xfffeffff
 800637c:	fffbffff 	.word	0xfffbffff
 8006380:	40007000 	.word	0x40007000
 8006384:	687b      	ldr	r3, [r7, #4]
 8006386:	689b      	ldr	r3, [r3, #8]
 8006388:	2b00      	cmp	r3, #0
 800638a:	d10c      	bne.n	80063a6 <HAL_RCC_OscConfig+0x366>
 800638c:	4bb6      	ldr	r3, [pc, #728]	; (8006668 <HAL_RCC_OscConfig+0x628>)
 800638e:	6a1a      	ldr	r2, [r3, #32]
 8006390:	4bb5      	ldr	r3, [pc, #724]	; (8006668 <HAL_RCC_OscConfig+0x628>)
 8006392:	2101      	movs	r1, #1
 8006394:	438a      	bics	r2, r1
 8006396:	621a      	str	r2, [r3, #32]
 8006398:	4bb3      	ldr	r3, [pc, #716]	; (8006668 <HAL_RCC_OscConfig+0x628>)
 800639a:	6a1a      	ldr	r2, [r3, #32]
 800639c:	4bb2      	ldr	r3, [pc, #712]	; (8006668 <HAL_RCC_OscConfig+0x628>)
 800639e:	2104      	movs	r1, #4
 80063a0:	438a      	bics	r2, r1
 80063a2:	621a      	str	r2, [r3, #32]
 80063a4:	e01c      	b.n	80063e0 <HAL_RCC_OscConfig+0x3a0>
 80063a6:	687b      	ldr	r3, [r7, #4]
 80063a8:	689b      	ldr	r3, [r3, #8]
 80063aa:	2b05      	cmp	r3, #5
 80063ac:	d10c      	bne.n	80063c8 <HAL_RCC_OscConfig+0x388>
 80063ae:	4bae      	ldr	r3, [pc, #696]	; (8006668 <HAL_RCC_OscConfig+0x628>)
 80063b0:	6a1a      	ldr	r2, [r3, #32]
 80063b2:	4bad      	ldr	r3, [pc, #692]	; (8006668 <HAL_RCC_OscConfig+0x628>)
 80063b4:	2104      	movs	r1, #4
 80063b6:	430a      	orrs	r2, r1
 80063b8:	621a      	str	r2, [r3, #32]
 80063ba:	4bab      	ldr	r3, [pc, #684]	; (8006668 <HAL_RCC_OscConfig+0x628>)
 80063bc:	6a1a      	ldr	r2, [r3, #32]
 80063be:	4baa      	ldr	r3, [pc, #680]	; (8006668 <HAL_RCC_OscConfig+0x628>)
 80063c0:	2101      	movs	r1, #1
 80063c2:	430a      	orrs	r2, r1
 80063c4:	621a      	str	r2, [r3, #32]
 80063c6:	e00b      	b.n	80063e0 <HAL_RCC_OscConfig+0x3a0>
 80063c8:	4ba7      	ldr	r3, [pc, #668]	; (8006668 <HAL_RCC_OscConfig+0x628>)
 80063ca:	6a1a      	ldr	r2, [r3, #32]
 80063cc:	4ba6      	ldr	r3, [pc, #664]	; (8006668 <HAL_RCC_OscConfig+0x628>)
 80063ce:	2101      	movs	r1, #1
 80063d0:	438a      	bics	r2, r1
 80063d2:	621a      	str	r2, [r3, #32]
 80063d4:	4ba4      	ldr	r3, [pc, #656]	; (8006668 <HAL_RCC_OscConfig+0x628>)
 80063d6:	6a1a      	ldr	r2, [r3, #32]
 80063d8:	4ba3      	ldr	r3, [pc, #652]	; (8006668 <HAL_RCC_OscConfig+0x628>)
 80063da:	2104      	movs	r1, #4
 80063dc:	438a      	bics	r2, r1
 80063de:	621a      	str	r2, [r3, #32]
    /* Check the LSE State */
    if(RCC_OscInitStruct->LSEState != RCC_LSE_OFF)
 80063e0:	687b      	ldr	r3, [r7, #4]
 80063e2:	689b      	ldr	r3, [r3, #8]
 80063e4:	2b00      	cmp	r3, #0
 80063e6:	d014      	beq.n	8006412 <HAL_RCC_OscConfig+0x3d2>
    {
      /* Get Start Tick */
      tickstart = HAL_GetTick();
 80063e8:	f7ff f87a 	bl	80054e0 <HAL_GetTick>
 80063ec:	0003      	movs	r3, r0
 80063ee:	61bb      	str	r3, [r7, #24]
      
      /* Wait till LSE is ready */  
      while(__HAL_RCC_GET_FLAG(RCC_FLAG_LSERDY) == RESET)
 80063f0:	e009      	b.n	8006406 <HAL_RCC_OscConfig+0x3c6>
      {
        if((HAL_GetTick() - tickstart ) > RCC_LSE_TIMEOUT_VALUE)
 80063f2:	f7ff f875 	bl	80054e0 <HAL_GetTick>
 80063f6:	0002      	movs	r2, r0
 80063f8:	69bb      	ldr	r3, [r7, #24]
 80063fa:	1ad3      	subs	r3, r2, r3
 80063fc:	4a9b      	ldr	r2, [pc, #620]	; (800666c <HAL_RCC_OscConfig+0x62c>)
 80063fe:	4293      	cmp	r3, r2
 8006400:	d901      	bls.n	8006406 <HAL_RCC_OscConfig+0x3c6>
        {
          return HAL_TIMEOUT;
 8006402:	2303      	movs	r3, #3
 8006404:	e12b      	b.n	800665e <HAL_RCC_OscConfig+0x61e>
      while(__HAL_RCC_GET_FLAG(RCC_FLAG_LSERDY) == RESET)
 8006406:	4b98      	ldr	r3, [pc, #608]	; (8006668 <HAL_RCC_OscConfig+0x628>)
 8006408:	6a1b      	ldr	r3, [r3, #32]
 800640a:	2202      	movs	r2, #2
 800640c:	4013      	ands	r3, r2
 800640e:	d0f0      	beq.n	80063f2 <HAL_RCC_OscConfig+0x3b2>
 8006410:	e013      	b.n	800643a <HAL_RCC_OscConfig+0x3fa>
      }
    }
    else
    {
      /* Get Start Tick */
      tickstart = HAL_GetTick();
 8006412:	f7ff f865 	bl	80054e0 <HAL_GetTick>
 8006416:	0003      	movs	r3, r0
 8006418:	61bb      	str	r3, [r7, #24]
      
      /* Wait till LSE is disabled */  
      while(__HAL_RCC_GET_FLAG(RCC_FLAG_LSERDY) != RESET)
 800641a:	e009      	b.n	8006430 <HAL_RCC_OscConfig+0x3f0>
      {
        if((HAL_GetTick() - tickstart ) > RCC_LSE_TIMEOUT_VALUE)
 800641c:	f7ff f860 	bl	80054e0 <HAL_GetTick>
 8006420:	0002      	movs	r2, r0
 8006422:	69bb      	ldr	r3, [r7, #24]
 8006424:	1ad3      	subs	r3, r2, r3
 8006426:	4a91      	ldr	r2, [pc, #580]	; (800666c <HAL_RCC_OscConfig+0x62c>)
 8006428:	4293      	cmp	r3, r2
 800642a:	d901      	bls.n	8006430 <HAL_RCC_OscConfig+0x3f0>
        {
          return HAL_TIMEOUT;
 800642c:	2303      	movs	r3, #3
 800642e:	e116      	b.n	800665e <HAL_RCC_OscConfig+0x61e>
      while(__HAL_RCC_GET_FLAG(RCC_FLAG_LSERDY) != RESET)
 8006430:	4b8d      	ldr	r3, [pc, #564]	; (8006668 <HAL_RCC_OscConfig+0x628>)
 8006432:	6a1b      	ldr	r3, [r3, #32]
 8006434:	2202      	movs	r2, #2
 8006436:	4013      	ands	r3, r2
 8006438:	d1f0      	bne.n	800641c <HAL_RCC_OscConfig+0x3dc>
        }
      }
    }

    /* Require to disable power clock if necessary */
    if(pwrclkchanged == SET)
 800643a:	231f      	movs	r3, #31
 800643c:	18fb      	adds	r3, r7, r3
 800643e:	781b      	ldrb	r3, [r3, #0]
 8006440:	2b01      	cmp	r3, #1
 8006442:	d105      	bne.n	8006450 <HAL_RCC_OscConfig+0x410>
    {
      __HAL_RCC_PWR_CLK_DISABLE();
 8006444:	4b88      	ldr	r3, [pc, #544]	; (8006668 <HAL_RCC_OscConfig+0x628>)
 8006446:	69da      	ldr	r2, [r3, #28]
 8006448:	4b87      	ldr	r3, [pc, #540]	; (8006668 <HAL_RCC_OscConfig+0x628>)
 800644a:	4989      	ldr	r1, [pc, #548]	; (8006670 <HAL_RCC_OscConfig+0x630>)
 800644c:	400a      	ands	r2, r1
 800644e:	61da      	str	r2, [r3, #28]
    }
  }

  /*----------------------------- HSI14 Configuration --------------------------*/
  if(((RCC_OscInitStruct->OscillatorType) & RCC_OSCILLATORTYPE_HSI14) == RCC_OSCILLATORTYPE_HSI14)
 8006450:	687b      	ldr	r3, [r7, #4]
 8006452:	681b      	ldr	r3, [r3, #0]
 8006454:	2210      	movs	r2, #16
 8006456:	4013      	ands	r3, r2
 8006458:	d063      	beq.n	8006522 <HAL_RCC_OscConfig+0x4e2>
    /* Check the parameters */
    assert_param(IS_RCC_HSI14(RCC_OscInitStruct->HSI14State));
    assert_param(IS_RCC_CALIBRATION_VALUE(RCC_OscInitStruct->HSI14CalibrationValue));

    /* Check the HSI14 State */
    if(RCC_OscInitStruct->HSI14State == RCC_HSI14_ON)
 800645a:	687b      	ldr	r3, [r7, #4]
 800645c:	695b      	ldr	r3, [r3, #20]
 800645e:	2b01      	cmp	r3, #1
 8006460:	d12a      	bne.n	80064b8 <HAL_RCC_OscConfig+0x478>
    {
      /* Disable ADC control of the Internal High Speed oscillator HSI14 */
      __HAL_RCC_HSI14ADC_DISABLE();
 8006462:	4b81      	ldr	r3, [pc, #516]	; (8006668 <HAL_RCC_OscConfig+0x628>)
 8006464:	6b5a      	ldr	r2, [r3, #52]	; 0x34
 8006466:	4b80      	ldr	r3, [pc, #512]	; (8006668 <HAL_RCC_OscConfig+0x628>)
 8006468:	2104      	movs	r1, #4
 800646a:	430a      	orrs	r2, r1
 800646c:	635a      	str	r2, [r3, #52]	; 0x34

      /* Enable the Internal High Speed oscillator (HSI). */
      __HAL_RCC_HSI14_ENABLE();
 800646e:	4b7e      	ldr	r3, [pc, #504]	; (8006668 <HAL_RCC_OscConfig+0x628>)
 8006470:	6b5a      	ldr	r2, [r3, #52]	; 0x34
 8006472:	4b7d      	ldr	r3, [pc, #500]	; (8006668 <HAL_RCC_OscConfig+0x628>)
 8006474:	2101      	movs	r1, #1
 8006476:	430a      	orrs	r2, r1
 8006478:	635a      	str	r2, [r3, #52]	; 0x34

      /* Get Start Tick */
      tickstart = HAL_GetTick();
 800647a:	f7ff f831 	bl	80054e0 <HAL_GetTick>
 800647e:	0003      	movs	r3, r0
 8006480:	61bb      	str	r3, [r7, #24]
      
      /* Wait till HSI is ready */  
      while(__HAL_RCC_GET_FLAG(RCC_FLAG_HSI14RDY) == RESET)
 8006482:	e008      	b.n	8006496 <HAL_RCC_OscConfig+0x456>
      {
        if((HAL_GetTick() - tickstart) > HSI14_TIMEOUT_VALUE)
 8006484:	f7ff f82c 	bl	80054e0 <HAL_GetTick>
 8006488:	0002      	movs	r2, r0
 800648a:	69bb      	ldr	r3, [r7, #24]
 800648c:	1ad3      	subs	r3, r2, r3
 800648e:	2b02      	cmp	r3, #2
 8006490:	d901      	bls.n	8006496 <HAL_RCC_OscConfig+0x456>
        {
          return HAL_TIMEOUT;
 8006492:	2303      	movs	r3, #3
 8006494:	e0e3      	b.n	800665e <HAL_RCC_OscConfig+0x61e>
      while(__HAL_RCC_GET_FLAG(RCC_FLAG_HSI14RDY) == RESET)
 8006496:	4b74      	ldr	r3, [pc, #464]	; (8006668 <HAL_RCC_OscConfig+0x628>)
 8006498:	6b5b      	ldr	r3, [r3, #52]	; 0x34
 800649a:	2202      	movs	r2, #2
 800649c:	4013      	ands	r3, r2
 800649e:	d0f1      	beq.n	8006484 <HAL_RCC_OscConfig+0x444>
        }      
      } 

      /* Adjusts the Internal High Speed oscillator 14Mhz (HSI14) calibration value. */
      __HAL_RCC_HSI14_CALIBRATIONVALUE_ADJUST(RCC_OscInitStruct->HSI14CalibrationValue);
 80064a0:	4b71      	ldr	r3, [pc, #452]	; (8006668 <HAL_RCC_OscConfig+0x628>)
 80064a2:	6b5b      	ldr	r3, [r3, #52]	; 0x34
 80064a4:	22f8      	movs	r2, #248	; 0xf8
 80064a6:	4393      	bics	r3, r2
 80064a8:	0019      	movs	r1, r3
 80064aa:	687b      	ldr	r3, [r7, #4]
 80064ac:	699b      	ldr	r3, [r3, #24]
 80064ae:	00da      	lsls	r2, r3, #3
 80064b0:	4b6d      	ldr	r3, [pc, #436]	; (8006668 <HAL_RCC_OscConfig+0x628>)
 80064b2:	430a      	orrs	r2, r1
 80064b4:	635a      	str	r2, [r3, #52]	; 0x34
 80064b6:	e034      	b.n	8006522 <HAL_RCC_OscConfig+0x4e2>
    }
    else if(RCC_OscInitStruct->HSI14State == RCC_HSI14_ADC_CONTROL)
 80064b8:	687b      	ldr	r3, [r7, #4]
 80064ba:	695b      	ldr	r3, [r3, #20]
 80064bc:	3305      	adds	r3, #5
 80064be:	d111      	bne.n	80064e4 <HAL_RCC_OscConfig+0x4a4>
    {
      /* Enable ADC control of the Internal High Speed oscillator HSI14 */
      __HAL_RCC_HSI14ADC_ENABLE();
 80064c0:	4b69      	ldr	r3, [pc, #420]	; (8006668 <HAL_RCC_OscConfig+0x628>)
 80064c2:	6b5a      	ldr	r2, [r3, #52]	; 0x34
 80064c4:	4b68      	ldr	r3, [pc, #416]	; (8006668 <HAL_RCC_OscConfig+0x628>)
 80064c6:	2104      	movs	r1, #4
 80064c8:	438a      	bics	r2, r1
 80064ca:	635a      	str	r2, [r3, #52]	; 0x34

      /* Adjusts the Internal High Speed oscillator 14Mhz (HSI14) calibration value. */
      __HAL_RCC_HSI14_CALIBRATIONVALUE_ADJUST(RCC_OscInitStruct->HSI14CalibrationValue);
 80064cc:	4b66      	ldr	r3, [pc, #408]	; (8006668 <HAL_RCC_OscConfig+0x628>)
 80064ce:	6b5b      	ldr	r3, [r3, #52]	; 0x34
 80064d0:	22f8      	movs	r2, #248	; 0xf8
 80064d2:	4393      	bics	r3, r2
 80064d4:	0019      	movs	r1, r3
 80064d6:	687b      	ldr	r3, [r7, #4]
 80064d8:	699b      	ldr	r3, [r3, #24]
 80064da:	00da      	lsls	r2, r3, #3
 80064dc:	4b62      	ldr	r3, [pc, #392]	; (8006668 <HAL_RCC_OscConfig+0x628>)
 80064de:	430a      	orrs	r2, r1
 80064e0:	635a      	str	r2, [r3, #52]	; 0x34
 80064e2:	e01e      	b.n	8006522 <HAL_RCC_OscConfig+0x4e2>
    }
    else
    {
      /* Disable ADC control of the Internal High Speed oscillator HSI14 */
      __HAL_RCC_HSI14ADC_DISABLE();
 80064e4:	4b60      	ldr	r3, [pc, #384]	; (8006668 <HAL_RCC_OscConfig+0x628>)
 80064e6:	6b5a      	ldr	r2, [r3, #52]	; 0x34
 80064e8:	4b5f      	ldr	r3, [pc, #380]	; (8006668 <HAL_RCC_OscConfig+0x628>)
 80064ea:	2104      	movs	r1, #4
 80064ec:	430a      	orrs	r2, r1
 80064ee:	635a      	str	r2, [r3, #52]	; 0x34

      /* Disable the Internal High Speed oscillator (HSI). */
      __HAL_RCC_HSI14_DISABLE();
 80064f0:	4b5d      	ldr	r3, [pc, #372]	; (8006668 <HAL_RCC_OscConfig+0x628>)
 80064f2:	6b5a      	ldr	r2, [r3, #52]	; 0x34
 80064f4:	4b5c      	ldr	r3, [pc, #368]	; (8006668 <HAL_RCC_OscConfig+0x628>)
 80064f6:	2101      	movs	r1, #1
 80064f8:	438a      	bics	r2, r1
 80064fa:	635a      	str	r2, [r3, #52]	; 0x34

      /* Get Start Tick */
      tickstart = HAL_GetTick();
 80064fc:	f7fe fff0 	bl	80054e0 <HAL_GetTick>
 8006500:	0003      	movs	r3, r0
 8006502:	61bb      	str	r3, [r7, #24]
      
      /* Wait till HSI is ready */  
      while(__HAL_RCC_GET_FLAG(RCC_FLAG_HSI14RDY) != RESET)
 8006504:	e008      	b.n	8006518 <HAL_RCC_OscConfig+0x4d8>
      {
        if((HAL_GetTick() - tickstart) > HSI14_TIMEOUT_VALUE)
 8006506:	f7fe ffeb 	bl	80054e0 <HAL_GetTick>
 800650a:	0002      	movs	r2, r0
 800650c:	69bb      	ldr	r3, [r7, #24]
 800650e:	1ad3      	subs	r3, r2, r3
 8006510:	2b02      	cmp	r3, #2
 8006512:	d901      	bls.n	8006518 <HAL_RCC_OscConfig+0x4d8>
        {
          return HAL_TIMEOUT;
 8006514:	2303      	movs	r3, #3
 8006516:	e0a2      	b.n	800665e <HAL_RCC_OscConfig+0x61e>
      while(__HAL_RCC_GET_FLAG(RCC_FLAG_HSI14RDY) != RESET)
 8006518:	4b53      	ldr	r3, [pc, #332]	; (8006668 <HAL_RCC_OscConfig+0x628>)
 800651a:	6b5b      	ldr	r3, [r3, #52]	; 0x34
 800651c:	2202      	movs	r2, #2
 800651e:	4013      	ands	r3, r2
 8006520:	d1f1      	bne.n	8006506 <HAL_RCC_OscConfig+0x4c6>
#endif /* RCC_HSI48_SUPPORT */
       
  /*-------------------------------- PLL Configuration -----------------------*/
  /* Check the parameters */
  assert_param(IS_RCC_PLL(RCC_OscInitStruct->PLL.PLLState));
  if ((RCC_OscInitStruct->PLL.PLLState) != RCC_PLL_NONE)
 8006522:	687b      	ldr	r3, [r7, #4]
 8006524:	6a1b      	ldr	r3, [r3, #32]
 8006526:	2b00      	cmp	r3, #0
 8006528:	d100      	bne.n	800652c <HAL_RCC_OscConfig+0x4ec>
 800652a:	e097      	b.n	800665c <HAL_RCC_OscConfig+0x61c>
  {
    /* Check if the PLL is used as system clock or not */
    if(__HAL_RCC_GET_SYSCLK_SOURCE() != RCC_SYSCLKSOURCE_STATUS_PLLCLK)
 800652c:	4b4e      	ldr	r3, [pc, #312]	; (8006668 <HAL_RCC_OscConfig+0x628>)
 800652e:	685b      	ldr	r3, [r3, #4]
 8006530:	220c      	movs	r2, #12
 8006532:	4013      	ands	r3, r2
 8006534:	2b08      	cmp	r3, #8
 8006536:	d100      	bne.n	800653a <HAL_RCC_OscConfig+0x4fa>
 8006538:	e06b      	b.n	8006612 <HAL_RCC_OscConfig+0x5d2>
    { 
      if((RCC_OscInitStruct->PLL.PLLState) == RCC_PLL_ON)
 800653a:	687b      	ldr	r3, [r7, #4]
 800653c:	6a1b      	ldr	r3, [r3, #32]
 800653e:	2b02      	cmp	r3, #2
 8006540:	d14c      	bne.n	80065dc <HAL_RCC_OscConfig+0x59c>
        assert_param(IS_RCC_PLLSOURCE(RCC_OscInitStruct->PLL.PLLSource));
        assert_param(IS_RCC_PLL_MUL(RCC_OscInitStruct->PLL.PLLMUL));
        assert_param(IS_RCC_PREDIV(RCC_OscInitStruct->PLL.PREDIV));
  
        /* Disable the main PLL. */
        __HAL_RCC_PLL_DISABLE();
 8006542:	4b49      	ldr	r3, [pc, #292]	; (8006668 <HAL_RCC_OscConfig+0x628>)
 8006544:	681a      	ldr	r2, [r3, #0]
 8006546:	4b48      	ldr	r3, [pc, #288]	; (8006668 <HAL_RCC_OscConfig+0x628>)
 8006548:	494a      	ldr	r1, [pc, #296]	; (8006674 <HAL_RCC_OscConfig+0x634>)
 800654a:	400a      	ands	r2, r1
 800654c:	601a      	str	r2, [r3, #0]
        
        /* Get Start Tick */
        tickstart = HAL_GetTick();
 800654e:	f7fe ffc7 	bl	80054e0 <HAL_GetTick>
 8006552:	0003      	movs	r3, r0
 8006554:	61bb      	str	r3, [r7, #24]
        
        /* Wait till PLL is disabled */
        while(__HAL_RCC_GET_FLAG(RCC_FLAG_PLLRDY)  != RESET)
 8006556:	e008      	b.n	800656a <HAL_RCC_OscConfig+0x52a>
        {
          if((HAL_GetTick() - tickstart ) > PLL_TIMEOUT_VALUE)
 8006558:	f7fe ffc2 	bl	80054e0 <HAL_GetTick>
 800655c:	0002      	movs	r2, r0
 800655e:	69bb      	ldr	r3, [r7, #24]
 8006560:	1ad3      	subs	r3, r2, r3
 8006562:	2b02      	cmp	r3, #2
 8006564:	d901      	bls.n	800656a <HAL_RCC_OscConfig+0x52a>
          {
            return HAL_TIMEOUT;
 8006566:	2303      	movs	r3, #3
 8006568:	e079      	b.n	800665e <HAL_RCC_OscConfig+0x61e>
        while(__HAL_RCC_GET_FLAG(RCC_FLAG_PLLRDY)  != RESET)
 800656a:	4b3f      	ldr	r3, [pc, #252]	; (8006668 <HAL_RCC_OscConfig+0x628>)
 800656c:	681a      	ldr	r2, [r3, #0]
 800656e:	2380      	movs	r3, #128	; 0x80
 8006570:	049b      	lsls	r3, r3, #18
 8006572:	4013      	ands	r3, r2
 8006574:	d1f0      	bne.n	8006558 <HAL_RCC_OscConfig+0x518>
          }
        }

        /* Configure the main PLL clock source, predivider and multiplication factor. */
        __HAL_RCC_PLL_CONFIG(RCC_OscInitStruct->PLL.PLLSource,
 8006576:	4b3c      	ldr	r3, [pc, #240]	; (8006668 <HAL_RCC_OscConfig+0x628>)
 8006578:	6adb      	ldr	r3, [r3, #44]	; 0x2c
 800657a:	220f      	movs	r2, #15
 800657c:	4393      	bics	r3, r2
 800657e:	0019      	movs	r1, r3
 8006580:	687b      	ldr	r3, [r7, #4]
 8006582:	6ada      	ldr	r2, [r3, #44]	; 0x2c
 8006584:	4b38      	ldr	r3, [pc, #224]	; (8006668 <HAL_RCC_OscConfig+0x628>)
 8006586:	430a      	orrs	r2, r1
 8006588:	62da      	str	r2, [r3, #44]	; 0x2c
 800658a:	4b37      	ldr	r3, [pc, #220]	; (8006668 <HAL_RCC_OscConfig+0x628>)
 800658c:	685b      	ldr	r3, [r3, #4]
 800658e:	4a3a      	ldr	r2, [pc, #232]	; (8006678 <HAL_RCC_OscConfig+0x638>)
 8006590:	4013      	ands	r3, r2
 8006592:	0019      	movs	r1, r3
 8006594:	687b      	ldr	r3, [r7, #4]
 8006596:	6a9a      	ldr	r2, [r3, #40]	; 0x28
 8006598:	687b      	ldr	r3, [r7, #4]
 800659a:	6a5b      	ldr	r3, [r3, #36]	; 0x24
 800659c:	431a      	orrs	r2, r3
 800659e:	4b32      	ldr	r3, [pc, #200]	; (8006668 <HAL_RCC_OscConfig+0x628>)
 80065a0:	430a      	orrs	r2, r1
 80065a2:	605a      	str	r2, [r3, #4]
                             RCC_OscInitStruct->PLL.PREDIV,
                             RCC_OscInitStruct->PLL.PLLMUL);
        /* Enable the main PLL. */
        __HAL_RCC_PLL_ENABLE();
 80065a4:	4b30      	ldr	r3, [pc, #192]	; (8006668 <HAL_RCC_OscConfig+0x628>)
 80065a6:	681a      	ldr	r2, [r3, #0]
 80065a8:	4b2f      	ldr	r3, [pc, #188]	; (8006668 <HAL_RCC_OscConfig+0x628>)
 80065aa:	2180      	movs	r1, #128	; 0x80
 80065ac:	0449      	lsls	r1, r1, #17
 80065ae:	430a      	orrs	r2, r1
 80065b0:	601a      	str	r2, [r3, #0]
        
        /* Get Start Tick */
        tickstart = HAL_GetTick();
 80065b2:	f7fe ff95 	bl	80054e0 <HAL_GetTick>
 80065b6:	0003      	movs	r3, r0
 80065b8:	61bb      	str	r3, [r7, #24]
        
        /* Wait till PLL is ready */
        while(__HAL_RCC_GET_FLAG(RCC_FLAG_PLLRDY)  == RESET)
 80065ba:	e008      	b.n	80065ce <HAL_RCC_OscConfig+0x58e>
        {
          if((HAL_GetTick() - tickstart ) > PLL_TIMEOUT_VALUE)
 80065bc:	f7fe ff90 	bl	80054e0 <HAL_GetTick>
 80065c0:	0002      	movs	r2, r0
 80065c2:	69bb      	ldr	r3, [r7, #24]
 80065c4:	1ad3      	subs	r3, r2, r3
 80065c6:	2b02      	cmp	r3, #2
 80065c8:	d901      	bls.n	80065ce <HAL_RCC_OscConfig+0x58e>
          {
            return HAL_TIMEOUT;
 80065ca:	2303      	movs	r3, #3
 80065cc:	e047      	b.n	800665e <HAL_RCC_OscConfig+0x61e>
        while(__HAL_RCC_GET_FLAG(RCC_FLAG_PLLRDY)  == RESET)
 80065ce:	4b26      	ldr	r3, [pc, #152]	; (8006668 <HAL_RCC_OscConfig+0x628>)
 80065d0:	681a      	ldr	r2, [r3, #0]
 80065d2:	2380      	movs	r3, #128	; 0x80
 80065d4:	049b      	lsls	r3, r3, #18
 80065d6:	4013      	ands	r3, r2
 80065d8:	d0f0      	beq.n	80065bc <HAL_RCC_OscConfig+0x57c>
 80065da:	e03f      	b.n	800665c <HAL_RCC_OscConfig+0x61c>
        }
      }
      else
      {
        /* Disable the main PLL. */
        __HAL_RCC_PLL_DISABLE();
 80065dc:	4b22      	ldr	r3, [pc, #136]	; (8006668 <HAL_RCC_OscConfig+0x628>)
 80065de:	681a      	ldr	r2, [r3, #0]
 80065e0:	4b21      	ldr	r3, [pc, #132]	; (8006668 <HAL_RCC_OscConfig+0x628>)
 80065e2:	4924      	ldr	r1, [pc, #144]	; (8006674 <HAL_RCC_OscConfig+0x634>)
 80065e4:	400a      	ands	r2, r1
 80065e6:	601a      	str	r2, [r3, #0]
 
        /* Get Start Tick */
        tickstart = HAL_GetTick();
 80065e8:	f7fe ff7a 	bl	80054e0 <HAL_GetTick>
 80065ec:	0003      	movs	r3, r0
 80065ee:	61bb      	str	r3, [r7, #24]
        
        /* Wait till PLL is disabled */  
        while(__HAL_RCC_GET_FLAG(RCC_FLAG_PLLRDY)  != RESET)
 80065f0:	e008      	b.n	8006604 <HAL_RCC_OscConfig+0x5c4>
        {
          if((HAL_GetTick() - tickstart ) > PLL_TIMEOUT_VALUE)
 80065f2:	f7fe ff75 	bl	80054e0 <HAL_GetTick>
 80065f6:	0002      	movs	r2, r0
 80065f8:	69bb      	ldr	r3, [r7, #24]
 80065fa:	1ad3      	subs	r3, r2, r3
 80065fc:	2b02      	cmp	r3, #2
 80065fe:	d901      	bls.n	8006604 <HAL_RCC_OscConfig+0x5c4>
          {
            return HAL_TIMEOUT;
 8006600:	2303      	movs	r3, #3
 8006602:	e02c      	b.n	800665e <HAL_RCC_OscConfig+0x61e>
        while(__HAL_RCC_GET_FLAG(RCC_FLAG_PLLRDY)  != RESET)
 8006604:	4b18      	ldr	r3, [pc, #96]	; (8006668 <HAL_RCC_OscConfig+0x628>)
 8006606:	681a      	ldr	r2, [r3, #0]
 8006608:	2380      	movs	r3, #128	; 0x80
 800660a:	049b      	lsls	r3, r3, #18
 800660c:	4013      	ands	r3, r2
 800660e:	d1f0      	bne.n	80065f2 <HAL_RCC_OscConfig+0x5b2>
 8006610:	e024      	b.n	800665c <HAL_RCC_OscConfig+0x61c>
      }
    }
    else
    {
      /* Check if there is a request to disable the PLL used as System clock source */
      if((RCC_OscInitStruct->PLL.PLLState) == RCC_PLL_OFF)
 8006612:	687b      	ldr	r3, [r7, #4]
 8006614:	6a1b      	ldr	r3, [r3, #32]
 8006616:	2b01      	cmp	r3, #1
 8006618:	d101      	bne.n	800661e <HAL_RCC_OscConfig+0x5de>
      {
        return HAL_ERROR;
 800661a:	2301      	movs	r3, #1
 800661c:	e01f      	b.n	800665e <HAL_RCC_OscConfig+0x61e>
      }
      else
      {
        /* Do not return HAL_ERROR if request repeats the current configuration */
        pll_config  = RCC->CFGR;
 800661e:	4b12      	ldr	r3, [pc, #72]	; (8006668 <HAL_RCC_OscConfig+0x628>)
 8006620:	685b      	ldr	r3, [r3, #4]
 8006622:	617b      	str	r3, [r7, #20]
        pll_config2 = RCC->CFGR2;
 8006624:	4b10      	ldr	r3, [pc, #64]	; (8006668 <HAL_RCC_OscConfig+0x628>)
 8006626:	6adb      	ldr	r3, [r3, #44]	; 0x2c
 8006628:	613b      	str	r3, [r7, #16]
        if((READ_BIT(pll_config,  RCC_CFGR_PLLSRC)  != RCC_OscInitStruct->PLL.PLLSource) ||
 800662a:	697a      	ldr	r2, [r7, #20]
 800662c:	23c0      	movs	r3, #192	; 0xc0
 800662e:	025b      	lsls	r3, r3, #9
 8006630:	401a      	ands	r2, r3
 8006632:	687b      	ldr	r3, [r7, #4]
 8006634:	6a5b      	ldr	r3, [r3, #36]	; 0x24
 8006636:	429a      	cmp	r2, r3
 8006638:	d10e      	bne.n	8006658 <HAL_RCC_OscConfig+0x618>
           (READ_BIT(pll_config2, RCC_CFGR2_PREDIV) != RCC_OscInitStruct->PLL.PREDIV)    ||
 800663a:	693b      	ldr	r3, [r7, #16]
 800663c:	220f      	movs	r2, #15
 800663e:	401a      	ands	r2, r3
 8006640:	687b      	ldr	r3, [r7, #4]
 8006642:	6adb      	ldr	r3, [r3, #44]	; 0x2c
        if((READ_BIT(pll_config,  RCC_CFGR_PLLSRC)  != RCC_OscInitStruct->PLL.PLLSource) ||
 8006644:	429a      	cmp	r2, r3
 8006646:	d107      	bne.n	8006658 <HAL_RCC_OscConfig+0x618>
           (READ_BIT(pll_config,  RCC_CFGR_PLLMUL)  != RCC_OscInitStruct->PLL.PLLMUL))
 8006648:	697a      	ldr	r2, [r7, #20]
 800664a:	23f0      	movs	r3, #240	; 0xf0
 800664c:	039b      	lsls	r3, r3, #14
 800664e:	401a      	ands	r2, r3
 8006650:	687b      	ldr	r3, [r7, #4]
 8006652:	6a9b      	ldr	r3, [r3, #40]	; 0x28
           (READ_BIT(pll_config2, RCC_CFGR2_PREDIV) != RCC_OscInitStruct->PLL.PREDIV)    ||
 8006654:	429a      	cmp	r2, r3
 8006656:	d001      	beq.n	800665c <HAL_RCC_OscConfig+0x61c>
        {
          return HAL_ERROR;
 8006658:	2301      	movs	r3, #1
 800665a:	e000      	b.n	800665e <HAL_RCC_OscConfig+0x61e>
        }
      }
    }
  }

  return HAL_OK;
 800665c:	2300      	movs	r3, #0
}
 800665e:	0018      	movs	r0, r3
 8006660:	46bd      	mov	sp, r7
 8006662:	b008      	add	sp, #32
 8006664:	bd80      	pop	{r7, pc}
 8006666:	46c0      	nop			; (mov r8, r8)
 8006668:	40021000 	.word	0x40021000
 800666c:	00001388 	.word	0x00001388
 8006670:	efffffff 	.word	0xefffffff
 8006674:	feffffff 	.word	0xfeffffff
 8006678:	ffc27fff 	.word	0xffc27fff

0800667c <HAL_RCC_ClockConfig>:
  *         You can use @ref HAL_RCC_GetClockConfig() function to know which clock is
  *         currently used as system clock source.
  * @retval HAL status
  */
HAL_StatusTypeDef HAL_RCC_ClockConfig(RCC_ClkInitTypeDef  *RCC_ClkInitStruct, uint32_t FLatency)
{
 800667c:	b580      	push	{r7, lr}
 800667e:	b084      	sub	sp, #16
 8006680:	af00      	add	r7, sp, #0
 8006682:	6078      	str	r0, [r7, #4]
 8006684:	6039      	str	r1, [r7, #0]
  uint32_t tickstart;

  /* Check Null pointer */
  if(RCC_ClkInitStruct == NULL)
 8006686:	687b      	ldr	r3, [r7, #4]
 8006688:	2b00      	cmp	r3, #0
 800668a:	d101      	bne.n	8006690 <HAL_RCC_ClockConfig+0x14>
  {
    return HAL_ERROR;
 800668c:	2301      	movs	r3, #1
 800668e:	e0b3      	b.n	80067f8 <HAL_RCC_ClockConfig+0x17c>
  /* To correctly read data from FLASH memory, the number of wait states (LATENCY) 
  must be correctly programmed according to the frequency of the CPU clock 
    (HCLK) of the device. */

  /* Increasing the number of wait states because of higher CPU frequency */
  if(FLatency > __HAL_FLASH_GET_LATENCY())
 8006690:	4b5b      	ldr	r3, [pc, #364]	; (8006800 <HAL_RCC_ClockConfig+0x184>)
 8006692:	681b      	ldr	r3, [r3, #0]
 8006694:	2201      	movs	r2, #1
 8006696:	4013      	ands	r3, r2
 8006698:	683a      	ldr	r2, [r7, #0]
 800669a:	429a      	cmp	r2, r3
 800669c:	d911      	bls.n	80066c2 <HAL_RCC_ClockConfig+0x46>
  {    
    /* Program the new number of wait states to the LATENCY bits in the FLASH_ACR register */
    __HAL_FLASH_SET_LATENCY(FLatency);
 800669e:	4b58      	ldr	r3, [pc, #352]	; (8006800 <HAL_RCC_ClockConfig+0x184>)
 80066a0:	681b      	ldr	r3, [r3, #0]
 80066a2:	2201      	movs	r2, #1
 80066a4:	4393      	bics	r3, r2
 80066a6:	0019      	movs	r1, r3
 80066a8:	4b55      	ldr	r3, [pc, #340]	; (8006800 <HAL_RCC_ClockConfig+0x184>)
 80066aa:	683a      	ldr	r2, [r7, #0]
 80066ac:	430a      	orrs	r2, r1
 80066ae:	601a      	str	r2, [r3, #0]
    
    /* Check that the new number of wait states is taken into account to access the Flash
    memory by reading the FLASH_ACR register */
    if(__HAL_FLASH_GET_LATENCY() != FLatency)
 80066b0:	4b53      	ldr	r3, [pc, #332]	; (8006800 <HAL_RCC_ClockConfig+0x184>)
 80066b2:	681b      	ldr	r3, [r3, #0]
 80066b4:	2201      	movs	r2, #1
 80066b6:	4013      	ands	r3, r2
 80066b8:	683a      	ldr	r2, [r7, #0]
 80066ba:	429a      	cmp	r2, r3
 80066bc:	d001      	beq.n	80066c2 <HAL_RCC_ClockConfig+0x46>
    {
      return HAL_ERROR;
 80066be:	2301      	movs	r3, #1
 80066c0:	e09a      	b.n	80067f8 <HAL_RCC_ClockConfig+0x17c>
    }
  }

  /*-------------------------- HCLK Configuration --------------------------*/
  if(((RCC_ClkInitStruct->ClockType) & RCC_CLOCKTYPE_HCLK) == RCC_CLOCKTYPE_HCLK)
 80066c2:	687b      	ldr	r3, [r7, #4]
 80066c4:	681b      	ldr	r3, [r3, #0]
 80066c6:	2202      	movs	r2, #2
 80066c8:	4013      	ands	r3, r2
 80066ca:	d015      	beq.n	80066f8 <HAL_RCC_ClockConfig+0x7c>
  {
    /* Set the highest APB divider in order to ensure that we do not go through
       a non-spec phase whatever we decrease or increase HCLK. */
    if(((RCC_ClkInitStruct->ClockType) & RCC_CLOCKTYPE_PCLK1) == RCC_CLOCKTYPE_PCLK1)
 80066cc:	687b      	ldr	r3, [r7, #4]
 80066ce:	681b      	ldr	r3, [r3, #0]
 80066d0:	2204      	movs	r2, #4
 80066d2:	4013      	ands	r3, r2
 80066d4:	d006      	beq.n	80066e4 <HAL_RCC_ClockConfig+0x68>
    {
      MODIFY_REG(RCC->CFGR, RCC_CFGR_PPRE, RCC_HCLK_DIV16);
 80066d6:	4b4b      	ldr	r3, [pc, #300]	; (8006804 <HAL_RCC_ClockConfig+0x188>)
 80066d8:	685a      	ldr	r2, [r3, #4]
 80066da:	4b4a      	ldr	r3, [pc, #296]	; (8006804 <HAL_RCC_ClockConfig+0x188>)
 80066dc:	21e0      	movs	r1, #224	; 0xe0
 80066de:	00c9      	lsls	r1, r1, #3
 80066e0:	430a      	orrs	r2, r1
 80066e2:	605a      	str	r2, [r3, #4]
    }

    /* Set the new HCLK clock divider */
    assert_param(IS_RCC_HCLK(RCC_ClkInitStruct->AHBCLKDivider));
    MODIFY_REG(RCC->CFGR, RCC_CFGR_HPRE, RCC_ClkInitStruct->AHBCLKDivider);
 80066e4:	4b47      	ldr	r3, [pc, #284]	; (8006804 <HAL_RCC_ClockConfig+0x188>)
 80066e6:	685b      	ldr	r3, [r3, #4]
 80066e8:	22f0      	movs	r2, #240	; 0xf0
 80066ea:	4393      	bics	r3, r2
 80066ec:	0019      	movs	r1, r3
 80066ee:	687b      	ldr	r3, [r7, #4]
 80066f0:	689a      	ldr	r2, [r3, #8]
 80066f2:	4b44      	ldr	r3, [pc, #272]	; (8006804 <HAL_RCC_ClockConfig+0x188>)
 80066f4:	430a      	orrs	r2, r1
 80066f6:	605a      	str	r2, [r3, #4]
  }

  /*------------------------- SYSCLK Configuration ---------------------------*/ 
  if(((RCC_ClkInitStruct->ClockType) & RCC_CLOCKTYPE_SYSCLK) == RCC_CLOCKTYPE_SYSCLK)
 80066f8:	687b      	ldr	r3, [r7, #4]
 80066fa:	681b      	ldr	r3, [r3, #0]
 80066fc:	2201      	movs	r2, #1
 80066fe:	4013      	ands	r3, r2
 8006700:	d040      	beq.n	8006784 <HAL_RCC_ClockConfig+0x108>
  {
    assert_param(IS_RCC_SYSCLKSOURCE(RCC_ClkInitStruct->SYSCLKSource));
    
    /* HSE is selected as System Clock Source */
    if(RCC_ClkInitStruct->SYSCLKSource == RCC_SYSCLKSOURCE_HSE)
 8006702:	687b      	ldr	r3, [r7, #4]
 8006704:	685b      	ldr	r3, [r3, #4]
 8006706:	2b01      	cmp	r3, #1
 8006708:	d107      	bne.n	800671a <HAL_RCC_ClockConfig+0x9e>
    {
      /* Check the HSE ready flag */  
      if(__HAL_RCC_GET_FLAG(RCC_FLAG_HSERDY) == RESET)
 800670a:	4b3e      	ldr	r3, [pc, #248]	; (8006804 <HAL_RCC_ClockConfig+0x188>)
 800670c:	681a      	ldr	r2, [r3, #0]
 800670e:	2380      	movs	r3, #128	; 0x80
 8006710:	029b      	lsls	r3, r3, #10
 8006712:	4013      	ands	r3, r2
 8006714:	d114      	bne.n	8006740 <HAL_RCC_ClockConfig+0xc4>
      {
        return HAL_ERROR;
 8006716:	2301      	movs	r3, #1
 8006718:	e06e      	b.n	80067f8 <HAL_RCC_ClockConfig+0x17c>
      }
    }
    /* PLL is selected as System Clock Source */
    else if(RCC_ClkInitStruct->SYSCLKSource == RCC_SYSCLKSOURCE_PLLCLK)
 800671a:	687b      	ldr	r3, [r7, #4]
 800671c:	685b      	ldr	r3, [r3, #4]
 800671e:	2b02      	cmp	r3, #2
 8006720:	d107      	bne.n	8006732 <HAL_RCC_ClockConfig+0xb6>
    {
      /* Check the PLL ready flag */  
      if(__HAL_RCC_GET_FLAG(RCC_FLAG_PLLRDY) == RESET)
 8006722:	4b38      	ldr	r3, [pc, #224]	; (8006804 <HAL_RCC_ClockConfig+0x188>)
 8006724:	681a      	ldr	r2, [r3, #0]
 8006726:	2380      	movs	r3, #128	; 0x80
 8006728:	049b      	lsls	r3, r3, #18
 800672a:	4013      	ands	r3, r2
 800672c:	d108      	bne.n	8006740 <HAL_RCC_ClockConfig+0xc4>
      {
        return HAL_ERROR;
 800672e:	2301      	movs	r3, #1
 8006730:	e062      	b.n	80067f8 <HAL_RCC_ClockConfig+0x17c>
#endif /* RCC_CFGR_SWS_HSI48 */
    /* HSI is selected as System Clock Source */
    else
    {
      /* Check the HSI ready flag */  
      if(__HAL_RCC_GET_FLAG(RCC_FLAG_HSIRDY) == RESET)
 8006732:	4b34      	ldr	r3, [pc, #208]	; (8006804 <HAL_RCC_ClockConfig+0x188>)
 8006734:	681b      	ldr	r3, [r3, #0]
 8006736:	2202      	movs	r2, #2
 8006738:	4013      	ands	r3, r2
 800673a:	d101      	bne.n	8006740 <HAL_RCC_ClockConfig+0xc4>
      {
        return HAL_ERROR;
 800673c:	2301      	movs	r3, #1
 800673e:	e05b      	b.n	80067f8 <HAL_RCC_ClockConfig+0x17c>
      }
    }
    __HAL_RCC_SYSCLK_CONFIG(RCC_ClkInitStruct->SYSCLKSource);
 8006740:	4b30      	ldr	r3, [pc, #192]	; (8006804 <HAL_RCC_ClockConfig+0x188>)
 8006742:	685b      	ldr	r3, [r3, #4]
 8006744:	2203      	movs	r2, #3
 8006746:	4393      	bics	r3, r2
 8006748:	0019      	movs	r1, r3
 800674a:	687b      	ldr	r3, [r7, #4]
 800674c:	685a      	ldr	r2, [r3, #4]
 800674e:	4b2d      	ldr	r3, [pc, #180]	; (8006804 <HAL_RCC_ClockConfig+0x188>)
 8006750:	430a      	orrs	r2, r1
 8006752:	605a      	str	r2, [r3, #4]

    /* Get Start Tick */
    tickstart = HAL_GetTick();
 8006754:	f7fe fec4 	bl	80054e0 <HAL_GetTick>
 8006758:	0003      	movs	r3, r0
 800675a:	60fb      	str	r3, [r7, #12]
    
    while (__HAL_RCC_GET_SYSCLK_SOURCE() != (RCC_ClkInitStruct->SYSCLKSource << RCC_CFGR_SWS_Pos))
 800675c:	e009      	b.n	8006772 <HAL_RCC_ClockConfig+0xf6>
    {
      if((HAL_GetTick() - tickstart ) > CLOCKSWITCH_TIMEOUT_VALUE)
 800675e:	f7fe febf 	bl	80054e0 <HAL_GetTick>
 8006762:	0002      	movs	r2, r0
 8006764:	68fb      	ldr	r3, [r7, #12]
 8006766:	1ad3      	subs	r3, r2, r3
 8006768:	4a27      	ldr	r2, [pc, #156]	; (8006808 <HAL_RCC_ClockConfig+0x18c>)
 800676a:	4293      	cmp	r3, r2
 800676c:	d901      	bls.n	8006772 <HAL_RCC_ClockConfig+0xf6>
      {
        return HAL_TIMEOUT;
 800676e:	2303      	movs	r3, #3
 8006770:	e042      	b.n	80067f8 <HAL_RCC_ClockConfig+0x17c>
    while (__HAL_RCC_GET_SYSCLK_SOURCE() != (RCC_ClkInitStruct->SYSCLKSource << RCC_CFGR_SWS_Pos))
 8006772:	4b24      	ldr	r3, [pc, #144]	; (8006804 <HAL_RCC_ClockConfig+0x188>)
 8006774:	685b      	ldr	r3, [r3, #4]
 8006776:	220c      	movs	r2, #12
 8006778:	401a      	ands	r2, r3
 800677a:	687b      	ldr	r3, [r7, #4]
 800677c:	685b      	ldr	r3, [r3, #4]
 800677e:	009b      	lsls	r3, r3, #2
 8006780:	429a      	cmp	r2, r3
 8006782:	d1ec      	bne.n	800675e <HAL_RCC_ClockConfig+0xe2>
      }
    }
  }

  /* Decreasing the number of wait states because of lower CPU frequency */
  if(FLatency < __HAL_FLASH_GET_LATENCY())
 8006784:	4b1e      	ldr	r3, [pc, #120]	; (8006800 <HAL_RCC_ClockConfig+0x184>)
 8006786:	681b      	ldr	r3, [r3, #0]
 8006788:	2201      	movs	r2, #1
 800678a:	4013      	ands	r3, r2
 800678c:	683a      	ldr	r2, [r7, #0]
 800678e:	429a      	cmp	r2, r3
 8006790:	d211      	bcs.n	80067b6 <HAL_RCC_ClockConfig+0x13a>
  {    
    /* Program the new number of wait states to the LATENCY bits in the FLASH_ACR register */
    __HAL_FLASH_SET_LATENCY(FLatency);
 8006792:	4b1b      	ldr	r3, [pc, #108]	; (8006800 <HAL_RCC_ClockConfig+0x184>)
 8006794:	681b      	ldr	r3, [r3, #0]
 8006796:	2201      	movs	r2, #1
 8006798:	4393      	bics	r3, r2
 800679a:	0019      	movs	r1, r3
 800679c:	4b18      	ldr	r3, [pc, #96]	; (8006800 <HAL_RCC_ClockConfig+0x184>)
 800679e:	683a      	ldr	r2, [r7, #0]
 80067a0:	430a      	orrs	r2, r1
 80067a2:	601a      	str	r2, [r3, #0]
    
    /* Check that the new number of wait states is taken into account to access the Flash
    memory by reading the FLASH_ACR register */
    if(__HAL_FLASH_GET_LATENCY() != FLatency)
 80067a4:	4b16      	ldr	r3, [pc, #88]	; (8006800 <HAL_RCC_ClockConfig+0x184>)
 80067a6:	681b      	ldr	r3, [r3, #0]
 80067a8:	2201      	movs	r2, #1
 80067aa:	4013      	ands	r3, r2
 80067ac:	683a      	ldr	r2, [r7, #0]
 80067ae:	429a      	cmp	r2, r3
 80067b0:	d001      	beq.n	80067b6 <HAL_RCC_ClockConfig+0x13a>
    {
      return HAL_ERROR;
 80067b2:	2301      	movs	r3, #1
 80067b4:	e020      	b.n	80067f8 <HAL_RCC_ClockConfig+0x17c>
    }
  }    

  /*-------------------------- PCLK1 Configuration ---------------------------*/ 
  if(((RCC_ClkInitStruct->ClockType) & RCC_CLOCKTYPE_PCLK1) == RCC_CLOCKTYPE_PCLK1)
 80067b6:	687b      	ldr	r3, [r7, #4]
 80067b8:	681b      	ldr	r3, [r3, #0]
 80067ba:	2204      	movs	r2, #4
 80067bc:	4013      	ands	r3, r2
 80067be:	d009      	beq.n	80067d4 <HAL_RCC_ClockConfig+0x158>
  {
    assert_param(IS_RCC_PCLK(RCC_ClkInitStruct->APB1CLKDivider));
    MODIFY_REG(RCC->CFGR, RCC_CFGR_PPRE, RCC_ClkInitStruct->APB1CLKDivider);
 80067c0:	4b10      	ldr	r3, [pc, #64]	; (8006804 <HAL_RCC_ClockConfig+0x188>)
 80067c2:	685b      	ldr	r3, [r3, #4]
 80067c4:	4a11      	ldr	r2, [pc, #68]	; (800680c <HAL_RCC_ClockConfig+0x190>)
 80067c6:	4013      	ands	r3, r2
 80067c8:	0019      	movs	r1, r3
 80067ca:	687b      	ldr	r3, [r7, #4]
 80067cc:	68da      	ldr	r2, [r3, #12]
 80067ce:	4b0d      	ldr	r3, [pc, #52]	; (8006804 <HAL_RCC_ClockConfig+0x188>)
 80067d0:	430a      	orrs	r2, r1
 80067d2:	605a      	str	r2, [r3, #4]
  }
  
  /* Update the SystemCoreClock global variable */
  SystemCoreClock = HAL_RCC_GetSysClockFreq() >> AHBPrescTable[(RCC->CFGR & RCC_CFGR_HPRE)>> RCC_CFGR_HPRE_BITNUMBER];
 80067d4:	f000 f820 	bl	8006818 <HAL_RCC_GetSysClockFreq>
 80067d8:	0001      	movs	r1, r0
 80067da:	4b0a      	ldr	r3, [pc, #40]	; (8006804 <HAL_RCC_ClockConfig+0x188>)
 80067dc:	685b      	ldr	r3, [r3, #4]
 80067de:	091b      	lsrs	r3, r3, #4
 80067e0:	220f      	movs	r2, #15
 80067e2:	4013      	ands	r3, r2
 80067e4:	4a0a      	ldr	r2, [pc, #40]	; (8006810 <HAL_RCC_ClockConfig+0x194>)
 80067e6:	5cd3      	ldrb	r3, [r2, r3]
 80067e8:	000a      	movs	r2, r1
 80067ea:	40da      	lsrs	r2, r3
 80067ec:	4b09      	ldr	r3, [pc, #36]	; (8006814 <HAL_RCC_ClockConfig+0x198>)
 80067ee:	601a      	str	r2, [r3, #0]

  /* Configure the source of time base considering new system clocks settings*/
  HAL_InitTick (TICK_INT_PRIORITY);
 80067f0:	2003      	movs	r0, #3
 80067f2:	f7fe fe2f 	bl	8005454 <HAL_InitTick>
  
  return HAL_OK;
 80067f6:	2300      	movs	r3, #0
}
 80067f8:	0018      	movs	r0, r3
 80067fa:	46bd      	mov	sp, r7
 80067fc:	b004      	add	sp, #16
 80067fe:	bd80      	pop	{r7, pc}
 8006800:	40022000 	.word	0x40022000
 8006804:	40021000 	.word	0x40021000
 8006808:	00001388 	.word	0x00001388
 800680c:	fffff8ff 	.word	0xfffff8ff
 8006810:	080099f0 	.word	0x080099f0
 8006814:	20000024 	.word	0x20000024

08006818 <HAL_RCC_GetSysClockFreq>:
  *         right SYSCLK value. Otherwise, any configuration based on this function will be incorrect.
  *         
  * @retval SYSCLK frequency
  */
uint32_t HAL_RCC_GetSysClockFreq(void)
{
 8006818:	b580      	push	{r7, lr}
 800681a:	b086      	sub	sp, #24
 800681c:	af00      	add	r7, sp, #0
  static const uint8_t aPLLMULFactorTable[16U] = { 2U,  3U,  4U,  5U,  6U,  7U,  8U,  9U,
                                                   10U, 11U, 12U, 13U, 14U, 15U, 16U, 16U};
  static const uint8_t aPredivFactorTable[16U] = { 1U, 2U,  3U,  4U,  5U,  6U,  7U,  8U,
                                                   9U,10U, 11U, 12U, 13U, 14U, 15U, 16U};

  uint32_t tmpreg = 0U, prediv = 0U, pllclk = 0U, pllmul = 0U;
 800681e:	2300      	movs	r3, #0
 8006820:	60fb      	str	r3, [r7, #12]
 8006822:	2300      	movs	r3, #0
 8006824:	60bb      	str	r3, [r7, #8]
 8006826:	2300      	movs	r3, #0
 8006828:	617b      	str	r3, [r7, #20]
 800682a:	2300      	movs	r3, #0
 800682c:	607b      	str	r3, [r7, #4]
  uint32_t sysclockfreq = 0U;
 800682e:	2300      	movs	r3, #0
 8006830:	613b      	str	r3, [r7, #16]
  
  tmpreg = RCC->CFGR;
 8006832:	4b21      	ldr	r3, [pc, #132]	; (80068b8 <HAL_RCC_GetSysClockFreq+0xa0>)
 8006834:	685b      	ldr	r3, [r3, #4]
 8006836:	60fb      	str	r3, [r7, #12]
  
  /* Get SYSCLK source -------------------------------------------------------*/
  switch (tmpreg & RCC_CFGR_SWS)
 8006838:	68fb      	ldr	r3, [r7, #12]
 800683a:	220c      	movs	r2, #12
 800683c:	4013      	ands	r3, r2
 800683e:	2b04      	cmp	r3, #4
 8006840:	d002      	beq.n	8006848 <HAL_RCC_GetSysClockFreq+0x30>
 8006842:	2b08      	cmp	r3, #8
 8006844:	d003      	beq.n	800684e <HAL_RCC_GetSysClockFreq+0x36>
 8006846:	e02e      	b.n	80068a6 <HAL_RCC_GetSysClockFreq+0x8e>
  {
    case RCC_SYSCLKSOURCE_STATUS_HSE:  /* HSE used as system clock */
    {
      sysclockfreq = HSE_VALUE;
 8006848:	4b1c      	ldr	r3, [pc, #112]	; (80068bc <HAL_RCC_GetSysClockFreq+0xa4>)
 800684a:	613b      	str	r3, [r7, #16]
      break;
 800684c:	e02e      	b.n	80068ac <HAL_RCC_GetSysClockFreq+0x94>
    }
    case RCC_SYSCLKSOURCE_STATUS_PLLCLK:  /* PLL used as system clock */
    {
      pllmul = aPLLMULFactorTable[(uint32_t)(tmpreg & RCC_CFGR_PLLMUL) >> RCC_CFGR_PLLMUL_BITNUMBER];
 800684e:	68fb      	ldr	r3, [r7, #12]
 8006850:	0c9b      	lsrs	r3, r3, #18
 8006852:	220f      	movs	r2, #15
 8006854:	4013      	ands	r3, r2
 8006856:	4a1a      	ldr	r2, [pc, #104]	; (80068c0 <HAL_RCC_GetSysClockFreq+0xa8>)
 8006858:	5cd3      	ldrb	r3, [r2, r3]
 800685a:	607b      	str	r3, [r7, #4]
      prediv = aPredivFactorTable[(uint32_t)(RCC->CFGR2 & RCC_CFGR2_PREDIV) >> RCC_CFGR2_PREDIV_BITNUMBER];
 800685c:	4b16      	ldr	r3, [pc, #88]	; (80068b8 <HAL_RCC_GetSysClockFreq+0xa0>)
 800685e:	6adb      	ldr	r3, [r3, #44]	; 0x2c
 8006860:	220f      	movs	r2, #15
 8006862:	4013      	ands	r3, r2
 8006864:	4a17      	ldr	r2, [pc, #92]	; (80068c4 <HAL_RCC_GetSysClockFreq+0xac>)
 8006866:	5cd3      	ldrb	r3, [r2, r3]
 8006868:	60bb      	str	r3, [r7, #8]
      if ((tmpreg & RCC_CFGR_PLLSRC) == RCC_PLLSOURCE_HSE)
 800686a:	68fa      	ldr	r2, [r7, #12]
 800686c:	23c0      	movs	r3, #192	; 0xc0
 800686e:	025b      	lsls	r3, r3, #9
 8006870:	401a      	ands	r2, r3
 8006872:	2380      	movs	r3, #128	; 0x80
 8006874:	025b      	lsls	r3, r3, #9
 8006876:	429a      	cmp	r2, r3
 8006878:	d109      	bne.n	800688e <HAL_RCC_GetSysClockFreq+0x76>
      {
        /* HSE used as PLL clock source : PLLCLK = HSE/PREDIV * PLLMUL */
        pllclk = (uint32_t)((uint64_t) HSE_VALUE / (uint64_t) (prediv)) * ((uint64_t) pllmul);
 800687a:	68b9      	ldr	r1, [r7, #8]
 800687c:	480f      	ldr	r0, [pc, #60]	; (80068bc <HAL_RCC_GetSysClockFreq+0xa4>)
 800687e:	f7f9 fc41 	bl	8000104 <__udivsi3>
 8006882:	0003      	movs	r3, r0
 8006884:	001a      	movs	r2, r3
 8006886:	687b      	ldr	r3, [r7, #4]
 8006888:	4353      	muls	r3, r2
 800688a:	617b      	str	r3, [r7, #20]
 800688c:	e008      	b.n	80068a0 <HAL_RCC_GetSysClockFreq+0x88>
#endif /* RCC_CFGR_PLLSRC_HSI48_PREDIV */
      else
      {
#if  (defined(STM32F042x6) || defined(STM32F048xx) || defined(STM32F070x6) || defined(STM32F071xB) || defined(STM32F072xB) || defined(STM32F078xx) || defined(STM32F070xB) || defined(STM32F091xC) || defined(STM32F098xx) || defined(STM32F030xC))
        /* HSI used as PLL clock source : PLLCLK = HSI/PREDIV * PLLMUL */
        pllclk = (uint32_t)((uint64_t) HSI_VALUE / (uint64_t) (prediv)) * ((uint64_t) pllmul);
 800688e:	68b9      	ldr	r1, [r7, #8]
 8006890:	480a      	ldr	r0, [pc, #40]	; (80068bc <HAL_RCC_GetSysClockFreq+0xa4>)
 8006892:	f7f9 fc37 	bl	8000104 <__udivsi3>
 8006896:	0003      	movs	r3, r0
 8006898:	001a      	movs	r2, r3
 800689a:	687b      	ldr	r3, [r7, #4]
 800689c:	4353      	muls	r3, r2
 800689e:	617b      	str	r3, [r7, #20]
#else
        /* HSI used as PLL clock source : PLLCLK = HSI/2 * PLLMUL */
        pllclk = (uint32_t)((uint64_t) (HSI_VALUE >> 1U) * ((uint64_t) pllmul));
#endif
      }
      sysclockfreq = pllclk;
 80068a0:	697b      	ldr	r3, [r7, #20]
 80068a2:	613b      	str	r3, [r7, #16]
      break;
 80068a4:	e002      	b.n	80068ac <HAL_RCC_GetSysClockFreq+0x94>
    }
#endif /* RCC_CFGR_SWS_HSI48 */
    case RCC_SYSCLKSOURCE_STATUS_HSI:  /* HSI used as system clock source */
    default: /* HSI used as system clock */
    {
      sysclockfreq = HSI_VALUE;
 80068a6:	4b05      	ldr	r3, [pc, #20]	; (80068bc <HAL_RCC_GetSysClockFreq+0xa4>)
 80068a8:	613b      	str	r3, [r7, #16]
      break;
 80068aa:	46c0      	nop			; (mov r8, r8)
    }
  }
  return sysclockfreq;
 80068ac:	693b      	ldr	r3, [r7, #16]
}
 80068ae:	0018      	movs	r0, r3
 80068b0:	46bd      	mov	sp, r7
 80068b2:	b006      	add	sp, #24
 80068b4:	bd80      	pop	{r7, pc}
 80068b6:	46c0      	nop			; (mov r8, r8)
 80068b8:	40021000 	.word	0x40021000
 80068bc:	007a1200 	.word	0x007a1200
 80068c0:	08009a00 	.word	0x08009a00
 80068c4:	08009a10 	.word	0x08009a10

080068c8 <HAL_SPI_Init>:
  * @param  hspi pointer to a SPI_HandleTypeDef structure that contains
  *               the configuration information for SPI module.
  * @retval HAL status
  */
HAL_StatusTypeDef HAL_SPI_Init(SPI_HandleTypeDef *hspi)
{
 80068c8:	b580      	push	{r7, lr}
 80068ca:	b084      	sub	sp, #16
 80068cc:	af00      	add	r7, sp, #0
 80068ce:	6078      	str	r0, [r7, #4]
  uint32_t frxth;

  /* Check the SPI handle allocation */
  if (hspi == NULL)
 80068d0:	687b      	ldr	r3, [r7, #4]
 80068d2:	2b00      	cmp	r3, #0
 80068d4:	d101      	bne.n	80068da <HAL_SPI_Init+0x12>
  {
    return HAL_ERROR;
 80068d6:	2301      	movs	r3, #1
 80068d8:	e0a8      	b.n	8006a2c <HAL_SPI_Init+0x164>
  assert_param(IS_SPI_NSS(hspi->Init.NSS));
  assert_param(IS_SPI_NSSP(hspi->Init.NSSPMode));
  assert_param(IS_SPI_BAUDRATE_PRESCALER(hspi->Init.BaudRatePrescaler));
  assert_param(IS_SPI_FIRST_BIT(hspi->Init.FirstBit));
  assert_param(IS_SPI_TIMODE(hspi->Init.TIMode));
  if (hspi->Init.TIMode == SPI_TIMODE_DISABLE)
 80068da:	687b      	ldr	r3, [r7, #4]
 80068dc:	6a5b      	ldr	r3, [r3, #36]	; 0x24
 80068de:	2b00      	cmp	r3, #0
 80068e0:	d109      	bne.n	80068f6 <HAL_SPI_Init+0x2e>
  {
    assert_param(IS_SPI_CPOL(hspi->Init.CLKPolarity));
    assert_param(IS_SPI_CPHA(hspi->Init.CLKPhase));

    if (hspi->Init.Mode == SPI_MODE_MASTER)
 80068e2:	687b      	ldr	r3, [r7, #4]
 80068e4:	685a      	ldr	r2, [r3, #4]
 80068e6:	2382      	movs	r3, #130	; 0x82
 80068e8:	005b      	lsls	r3, r3, #1
 80068ea:	429a      	cmp	r2, r3
 80068ec:	d009      	beq.n	8006902 <HAL_SPI_Init+0x3a>
      assert_param(IS_SPI_BAUDRATE_PRESCALER(hspi->Init.BaudRatePrescaler));
    }
    else
    {
      /* Baudrate prescaler not use in Motoraola Slave mode. force to default value */
      hspi->Init.BaudRatePrescaler = SPI_BAUDRATEPRESCALER_2;
 80068ee:	687b      	ldr	r3, [r7, #4]
 80068f0:	2200      	movs	r2, #0
 80068f2:	61da      	str	r2, [r3, #28]
 80068f4:	e005      	b.n	8006902 <HAL_SPI_Init+0x3a>
  else
  {
    assert_param(IS_SPI_BAUDRATE_PRESCALER(hspi->Init.BaudRatePrescaler));

    /* Force polarity and phase to TI protocaol requirements */
    hspi->Init.CLKPolarity = SPI_POLARITY_LOW;
 80068f6:	687b      	ldr	r3, [r7, #4]
 80068f8:	2200      	movs	r2, #0
 80068fa:	611a      	str	r2, [r3, #16]
    hspi->Init.CLKPhase    = SPI_PHASE_1EDGE;
 80068fc:	687b      	ldr	r3, [r7, #4]
 80068fe:	2200      	movs	r2, #0
 8006900:	615a      	str	r2, [r3, #20]
  {
    assert_param(IS_SPI_CRC_POLYNOMIAL(hspi->Init.CRCPolynomial));
    assert_param(IS_SPI_CRC_LENGTH(hspi->Init.CRCLength));
  }
#else
  hspi->Init.CRCCalculation = SPI_CRCCALCULATION_DISABLE;
 8006902:	687b      	ldr	r3, [r7, #4]
 8006904:	2200      	movs	r2, #0
 8006906:	629a      	str	r2, [r3, #40]	; 0x28
#endif /* USE_SPI_CRC */

  if (hspi->State == HAL_SPI_STATE_RESET)
 8006908:	687b      	ldr	r3, [r7, #4]
 800690a:	225d      	movs	r2, #93	; 0x5d
 800690c:	5c9b      	ldrb	r3, [r3, r2]
 800690e:	b2db      	uxtb	r3, r3
 8006910:	2b00      	cmp	r3, #0
 8006912:	d107      	bne.n	8006924 <HAL_SPI_Init+0x5c>
  {
    /* Allocate lock resource and initialize it */
    hspi->Lock = HAL_UNLOCKED;
 8006914:	687b      	ldr	r3, [r7, #4]
 8006916:	225c      	movs	r2, #92	; 0x5c
 8006918:	2100      	movs	r1, #0
 800691a:	5499      	strb	r1, [r3, r2]

    /* Init the low level hardware : GPIO, CLOCK, NVIC... */
    hspi->MspInitCallback(hspi);
#else
    /* Init the low level hardware : GPIO, CLOCK, NVIC... */
    HAL_SPI_MspInit(hspi);
 800691c:	687b      	ldr	r3, [r7, #4]
 800691e:	0018      	movs	r0, r3
 8006920:	f7fe fbec 	bl	80050fc <HAL_SPI_MspInit>
#endif /* USE_HAL_SPI_REGISTER_CALLBACKS */
  }

  hspi->State = HAL_SPI_STATE_BUSY;
 8006924:	687b      	ldr	r3, [r7, #4]
 8006926:	225d      	movs	r2, #93	; 0x5d
 8006928:	2102      	movs	r1, #2
 800692a:	5499      	strb	r1, [r3, r2]

  /* Disable the selected SPI peripheral */
  __HAL_SPI_DISABLE(hspi);
 800692c:	687b      	ldr	r3, [r7, #4]
 800692e:	681b      	ldr	r3, [r3, #0]
 8006930:	681a      	ldr	r2, [r3, #0]
 8006932:	687b      	ldr	r3, [r7, #4]
 8006934:	681b      	ldr	r3, [r3, #0]
 8006936:	2140      	movs	r1, #64	; 0x40
 8006938:	438a      	bics	r2, r1
 800693a:	601a      	str	r2, [r3, #0]

  /* Align by default the rs fifo threshold on the data size */
  if (hspi->Init.DataSize > SPI_DATASIZE_8BIT)
 800693c:	687b      	ldr	r3, [r7, #4]
 800693e:	68da      	ldr	r2, [r3, #12]
 8006940:	23e0      	movs	r3, #224	; 0xe0
 8006942:	00db      	lsls	r3, r3, #3
 8006944:	429a      	cmp	r2, r3
 8006946:	d902      	bls.n	800694e <HAL_SPI_Init+0x86>
  {
    frxth = SPI_RXFIFO_THRESHOLD_HF;
 8006948:	2300      	movs	r3, #0
 800694a:	60fb      	str	r3, [r7, #12]
 800694c:	e002      	b.n	8006954 <HAL_SPI_Init+0x8c>
  }
  else
  {
    frxth = SPI_RXFIFO_THRESHOLD_QF;
 800694e:	2380      	movs	r3, #128	; 0x80
 8006950:	015b      	lsls	r3, r3, #5
 8006952:	60fb      	str	r3, [r7, #12]
  }

  /* CRC calculation is valid only for 16Bit and 8 Bit */
  if ((hspi->Init.DataSize != SPI_DATASIZE_16BIT) && (hspi->Init.DataSize != SPI_DATASIZE_8BIT))
 8006954:	687b      	ldr	r3, [r7, #4]
 8006956:	68da      	ldr	r2, [r3, #12]
 8006958:	23f0      	movs	r3, #240	; 0xf0
 800695a:	011b      	lsls	r3, r3, #4
 800695c:	429a      	cmp	r2, r3
 800695e:	d008      	beq.n	8006972 <HAL_SPI_Init+0xaa>
 8006960:	687b      	ldr	r3, [r7, #4]
 8006962:	68da      	ldr	r2, [r3, #12]
 8006964:	23e0      	movs	r3, #224	; 0xe0
 8006966:	00db      	lsls	r3, r3, #3
 8006968:	429a      	cmp	r2, r3
 800696a:	d002      	beq.n	8006972 <HAL_SPI_Init+0xaa>
  {
    /* CRC must be disabled */
    hspi->Init.CRCCalculation = SPI_CRCCALCULATION_DISABLE;
 800696c:	687b      	ldr	r3, [r7, #4]
 800696e:	2200      	movs	r2, #0
 8006970:	629a      	str	r2, [r3, #40]	; 0x28
  }

  /*----------------------- SPIx CR1 & CR2 Configuration ---------------------*/
  /* Configure : SPI Mode, Communication Mode, Clock polarity and phase, NSS management,
  Communication speed, First bit and CRC calculation state */
  WRITE_REG(hspi->Instance->CR1, ((hspi->Init.Mode & (SPI_CR1_MSTR | SPI_CR1_SSI)) |
 8006972:	687b      	ldr	r3, [r7, #4]
 8006974:	685a      	ldr	r2, [r3, #4]
 8006976:	2382      	movs	r3, #130	; 0x82
 8006978:	005b      	lsls	r3, r3, #1
 800697a:	401a      	ands	r2, r3
 800697c:	687b      	ldr	r3, [r7, #4]
 800697e:	6899      	ldr	r1, [r3, #8]
 8006980:	2384      	movs	r3, #132	; 0x84
 8006982:	021b      	lsls	r3, r3, #8
 8006984:	400b      	ands	r3, r1
 8006986:	431a      	orrs	r2, r3
 8006988:	687b      	ldr	r3, [r7, #4]
 800698a:	691b      	ldr	r3, [r3, #16]
 800698c:	2102      	movs	r1, #2
 800698e:	400b      	ands	r3, r1
 8006990:	431a      	orrs	r2, r3
 8006992:	687b      	ldr	r3, [r7, #4]
 8006994:	695b      	ldr	r3, [r3, #20]
 8006996:	2101      	movs	r1, #1
 8006998:	400b      	ands	r3, r1
 800699a:	431a      	orrs	r2, r3
 800699c:	687b      	ldr	r3, [r7, #4]
 800699e:	6999      	ldr	r1, [r3, #24]
 80069a0:	2380      	movs	r3, #128	; 0x80
 80069a2:	009b      	lsls	r3, r3, #2
 80069a4:	400b      	ands	r3, r1
 80069a6:	431a      	orrs	r2, r3
 80069a8:	687b      	ldr	r3, [r7, #4]
 80069aa:	69db      	ldr	r3, [r3, #28]
 80069ac:	2138      	movs	r1, #56	; 0x38
 80069ae:	400b      	ands	r3, r1
 80069b0:	431a      	orrs	r2, r3
 80069b2:	687b      	ldr	r3, [r7, #4]
 80069b4:	6a1b      	ldr	r3, [r3, #32]
 80069b6:	2180      	movs	r1, #128	; 0x80
 80069b8:	400b      	ands	r3, r1
 80069ba:	431a      	orrs	r2, r3
 80069bc:	0011      	movs	r1, r2
 80069be:	687b      	ldr	r3, [r7, #4]
 80069c0:	6a9a      	ldr	r2, [r3, #40]	; 0x28
 80069c2:	2380      	movs	r3, #128	; 0x80
 80069c4:	019b      	lsls	r3, r3, #6
 80069c6:	401a      	ands	r2, r3
 80069c8:	687b      	ldr	r3, [r7, #4]
 80069ca:	681b      	ldr	r3, [r3, #0]
 80069cc:	430a      	orrs	r2, r1
 80069ce:	601a      	str	r2, [r3, #0]
    }
  }
#endif /* USE_SPI_CRC */

  /* Configure : NSS management, TI Mode, NSS Pulse, Data size and Rx Fifo threshold */
  WRITE_REG(hspi->Instance->CR2, (((hspi->Init.NSS >> 16U) & SPI_CR2_SSOE) |
 80069d0:	687b      	ldr	r3, [r7, #4]
 80069d2:	699b      	ldr	r3, [r3, #24]
 80069d4:	0c1b      	lsrs	r3, r3, #16
 80069d6:	2204      	movs	r2, #4
 80069d8:	401a      	ands	r2, r3
 80069da:	687b      	ldr	r3, [r7, #4]
 80069dc:	6a5b      	ldr	r3, [r3, #36]	; 0x24
 80069de:	2110      	movs	r1, #16
 80069e0:	400b      	ands	r3, r1
 80069e2:	431a      	orrs	r2, r3
 80069e4:	687b      	ldr	r3, [r7, #4]
 80069e6:	6b5b      	ldr	r3, [r3, #52]	; 0x34
 80069e8:	2108      	movs	r1, #8
 80069ea:	400b      	ands	r3, r1
 80069ec:	431a      	orrs	r2, r3
 80069ee:	687b      	ldr	r3, [r7, #4]
 80069f0:	68d9      	ldr	r1, [r3, #12]
 80069f2:	23f0      	movs	r3, #240	; 0xf0
 80069f4:	011b      	lsls	r3, r3, #4
 80069f6:	400b      	ands	r3, r1
 80069f8:	431a      	orrs	r2, r3
 80069fa:	0011      	movs	r1, r2
 80069fc:	68fa      	ldr	r2, [r7, #12]
 80069fe:	2380      	movs	r3, #128	; 0x80
 8006a00:	015b      	lsls	r3, r3, #5
 8006a02:	401a      	ands	r2, r3
 8006a04:	687b      	ldr	r3, [r7, #4]
 8006a06:	681b      	ldr	r3, [r3, #0]
 8006a08:	430a      	orrs	r2, r1
 8006a0a:	605a      	str	r2, [r3, #4]
  }
#endif /* USE_SPI_CRC */

#if defined(SPI_I2SCFGR_I2SMOD)
  /* Activate the SPI mode (Make sure that I2SMOD bit in I2SCFGR register is reset) */
  CLEAR_BIT(hspi->Instance->I2SCFGR, SPI_I2SCFGR_I2SMOD);
 8006a0c:	687b      	ldr	r3, [r7, #4]
 8006a0e:	681b      	ldr	r3, [r3, #0]
 8006a10:	69da      	ldr	r2, [r3, #28]
 8006a12:	687b      	ldr	r3, [r7, #4]
 8006a14:	681b      	ldr	r3, [r3, #0]
 8006a16:	4907      	ldr	r1, [pc, #28]	; (8006a34 <HAL_SPI_Init+0x16c>)
 8006a18:	400a      	ands	r2, r1
 8006a1a:	61da      	str	r2, [r3, #28]
#endif /* SPI_I2SCFGR_I2SMOD */

  hspi->ErrorCode = HAL_SPI_ERROR_NONE;
 8006a1c:	687b      	ldr	r3, [r7, #4]
 8006a1e:	2200      	movs	r2, #0
 8006a20:	661a      	str	r2, [r3, #96]	; 0x60
  hspi->State     = HAL_SPI_STATE_READY;
 8006a22:	687b      	ldr	r3, [r7, #4]
 8006a24:	225d      	movs	r2, #93	; 0x5d
 8006a26:	2101      	movs	r1, #1
 8006a28:	5499      	strb	r1, [r3, r2]

  return HAL_OK;
 8006a2a:	2300      	movs	r3, #0
}
 8006a2c:	0018      	movs	r0, r3
 8006a2e:	46bd      	mov	sp, r7
 8006a30:	b004      	add	sp, #16
 8006a32:	bd80      	pop	{r7, pc}
 8006a34:	fffff7ff 	.word	0xfffff7ff

08006a38 <HAL_SPI_Transmit>:
  * @param  Size amount of data to be sent
  * @param  Timeout Timeout duration
  * @retval HAL status
  */
HAL_StatusTypeDef HAL_SPI_Transmit(SPI_HandleTypeDef *hspi, uint8_t *pData, uint16_t Size, uint32_t Timeout)
{
 8006a38:	b580      	push	{r7, lr}
 8006a3a:	b088      	sub	sp, #32
 8006a3c:	af00      	add	r7, sp, #0
 8006a3e:	60f8      	str	r0, [r7, #12]
 8006a40:	60b9      	str	r1, [r7, #8]
 8006a42:	603b      	str	r3, [r7, #0]
 8006a44:	1dbb      	adds	r3, r7, #6
 8006a46:	801a      	strh	r2, [r3, #0]
  uint32_t tickstart;
  HAL_StatusTypeDef errorcode = HAL_OK;
 8006a48:	231f      	movs	r3, #31
 8006a4a:	18fb      	adds	r3, r7, r3
 8006a4c:	2200      	movs	r2, #0
 8006a4e:	701a      	strb	r2, [r3, #0]

  /* Check Direction parameter */
  assert_param(IS_SPI_DIRECTION_2LINES_OR_1LINE(hspi->Init.Direction));

  /* Process Locked */
  __HAL_LOCK(hspi);
 8006a50:	68fb      	ldr	r3, [r7, #12]
 8006a52:	225c      	movs	r2, #92	; 0x5c
 8006a54:	5c9b      	ldrb	r3, [r3, r2]
 8006a56:	2b01      	cmp	r3, #1
 8006a58:	d101      	bne.n	8006a5e <HAL_SPI_Transmit+0x26>
 8006a5a:	2302      	movs	r3, #2
 8006a5c:	e147      	b.n	8006cee <HAL_SPI_Transmit+0x2b6>
 8006a5e:	68fb      	ldr	r3, [r7, #12]
 8006a60:	225c      	movs	r2, #92	; 0x5c
 8006a62:	2101      	movs	r1, #1
 8006a64:	5499      	strb	r1, [r3, r2]

  /* Init tickstart for timeout management*/
  tickstart = HAL_GetTick();
 8006a66:	f7fe fd3b 	bl	80054e0 <HAL_GetTick>
 8006a6a:	0003      	movs	r3, r0
 8006a6c:	61bb      	str	r3, [r7, #24]
  initial_TxXferCount = Size;
 8006a6e:	2316      	movs	r3, #22
 8006a70:	18fb      	adds	r3, r7, r3
 8006a72:	1dba      	adds	r2, r7, #6
 8006a74:	8812      	ldrh	r2, [r2, #0]
 8006a76:	801a      	strh	r2, [r3, #0]

  if (hspi->State != HAL_SPI_STATE_READY)
 8006a78:	68fb      	ldr	r3, [r7, #12]
 8006a7a:	225d      	movs	r2, #93	; 0x5d
 8006a7c:	5c9b      	ldrb	r3, [r3, r2]
 8006a7e:	b2db      	uxtb	r3, r3
 8006a80:	2b01      	cmp	r3, #1
 8006a82:	d004      	beq.n	8006a8e <HAL_SPI_Transmit+0x56>
  {
    errorcode = HAL_BUSY;
 8006a84:	231f      	movs	r3, #31
 8006a86:	18fb      	adds	r3, r7, r3
 8006a88:	2202      	movs	r2, #2
 8006a8a:	701a      	strb	r2, [r3, #0]
    goto error;
 8006a8c:	e128      	b.n	8006ce0 <HAL_SPI_Transmit+0x2a8>
  }

  if ((pData == NULL) || (Size == 0U))
 8006a8e:	68bb      	ldr	r3, [r7, #8]
 8006a90:	2b00      	cmp	r3, #0
 8006a92:	d003      	beq.n	8006a9c <HAL_SPI_Transmit+0x64>
 8006a94:	1dbb      	adds	r3, r7, #6
 8006a96:	881b      	ldrh	r3, [r3, #0]
 8006a98:	2b00      	cmp	r3, #0
 8006a9a:	d104      	bne.n	8006aa6 <HAL_SPI_Transmit+0x6e>
  {
    errorcode = HAL_ERROR;
 8006a9c:	231f      	movs	r3, #31
 8006a9e:	18fb      	adds	r3, r7, r3
 8006aa0:	2201      	movs	r2, #1
 8006aa2:	701a      	strb	r2, [r3, #0]
    goto error;
 8006aa4:	e11c      	b.n	8006ce0 <HAL_SPI_Transmit+0x2a8>
  }

  /* Set the transaction information */
  hspi->State       = HAL_SPI_STATE_BUSY_TX;
 8006aa6:	68fb      	ldr	r3, [r7, #12]
 8006aa8:	225d      	movs	r2, #93	; 0x5d
 8006aaa:	2103      	movs	r1, #3
 8006aac:	5499      	strb	r1, [r3, r2]
  hspi->ErrorCode   = HAL_SPI_ERROR_NONE;
 8006aae:	68fb      	ldr	r3, [r7, #12]
 8006ab0:	2200      	movs	r2, #0
 8006ab2:	661a      	str	r2, [r3, #96]	; 0x60
  hspi->pTxBuffPtr  = (uint8_t *)pData;
 8006ab4:	68fb      	ldr	r3, [r7, #12]
 8006ab6:	68ba      	ldr	r2, [r7, #8]
 8006ab8:	639a      	str	r2, [r3, #56]	; 0x38
  hspi->TxXferSize  = Size;
 8006aba:	68fb      	ldr	r3, [r7, #12]
 8006abc:	1dba      	adds	r2, r7, #6
 8006abe:	8812      	ldrh	r2, [r2, #0]
 8006ac0:	879a      	strh	r2, [r3, #60]	; 0x3c
  hspi->TxXferCount = Size;
 8006ac2:	68fb      	ldr	r3, [r7, #12]
 8006ac4:	1dba      	adds	r2, r7, #6
 8006ac6:	8812      	ldrh	r2, [r2, #0]
 8006ac8:	87da      	strh	r2, [r3, #62]	; 0x3e

  /*Init field not used in handle to zero */
  hspi->pRxBuffPtr  = (uint8_t *)NULL;
 8006aca:	68fb      	ldr	r3, [r7, #12]
 8006acc:	2200      	movs	r2, #0
 8006ace:	641a      	str	r2, [r3, #64]	; 0x40
  hspi->RxXferSize  = 0U;
 8006ad0:	68fb      	ldr	r3, [r7, #12]
 8006ad2:	2244      	movs	r2, #68	; 0x44
 8006ad4:	2100      	movs	r1, #0
 8006ad6:	5299      	strh	r1, [r3, r2]
  hspi->RxXferCount = 0U;
 8006ad8:	68fb      	ldr	r3, [r7, #12]
 8006ada:	2246      	movs	r2, #70	; 0x46
 8006adc:	2100      	movs	r1, #0
 8006ade:	5299      	strh	r1, [r3, r2]
  hspi->TxISR       = NULL;
 8006ae0:	68fb      	ldr	r3, [r7, #12]
 8006ae2:	2200      	movs	r2, #0
 8006ae4:	651a      	str	r2, [r3, #80]	; 0x50
  hspi->RxISR       = NULL;
 8006ae6:	68fb      	ldr	r3, [r7, #12]
 8006ae8:	2200      	movs	r2, #0
 8006aea:	64da      	str	r2, [r3, #76]	; 0x4c

  /* Configure communication direction : 1Line */
  if (hspi->Init.Direction == SPI_DIRECTION_1LINE)
 8006aec:	68fb      	ldr	r3, [r7, #12]
 8006aee:	689a      	ldr	r2, [r3, #8]
 8006af0:	2380      	movs	r3, #128	; 0x80
 8006af2:	021b      	lsls	r3, r3, #8
 8006af4:	429a      	cmp	r2, r3
 8006af6:	d110      	bne.n	8006b1a <HAL_SPI_Transmit+0xe2>
  {
    /* Disable SPI Peripheral before set 1Line direction (BIDIOE bit) */
    __HAL_SPI_DISABLE(hspi);
 8006af8:	68fb      	ldr	r3, [r7, #12]
 8006afa:	681b      	ldr	r3, [r3, #0]
 8006afc:	681a      	ldr	r2, [r3, #0]
 8006afe:	68fb      	ldr	r3, [r7, #12]
 8006b00:	681b      	ldr	r3, [r3, #0]
 8006b02:	2140      	movs	r1, #64	; 0x40
 8006b04:	438a      	bics	r2, r1
 8006b06:	601a      	str	r2, [r3, #0]
    SPI_1LINE_TX(hspi);
 8006b08:	68fb      	ldr	r3, [r7, #12]
 8006b0a:	681b      	ldr	r3, [r3, #0]
 8006b0c:	681a      	ldr	r2, [r3, #0]
 8006b0e:	68fb      	ldr	r3, [r7, #12]
 8006b10:	681b      	ldr	r3, [r3, #0]
 8006b12:	2180      	movs	r1, #128	; 0x80
 8006b14:	01c9      	lsls	r1, r1, #7
 8006b16:	430a      	orrs	r2, r1
 8006b18:	601a      	str	r2, [r3, #0]
    SPI_RESET_CRC(hspi);
  }
#endif /* USE_SPI_CRC */

  /* Check if the SPI is already enabled */
  if ((hspi->Instance->CR1 & SPI_CR1_SPE) != SPI_CR1_SPE)
 8006b1a:	68fb      	ldr	r3, [r7, #12]
 8006b1c:	681b      	ldr	r3, [r3, #0]
 8006b1e:	681b      	ldr	r3, [r3, #0]
 8006b20:	2240      	movs	r2, #64	; 0x40
 8006b22:	4013      	ands	r3, r2
 8006b24:	2b40      	cmp	r3, #64	; 0x40
 8006b26:	d007      	beq.n	8006b38 <HAL_SPI_Transmit+0x100>
  {
    /* Enable SPI peripheral */
    __HAL_SPI_ENABLE(hspi);
 8006b28:	68fb      	ldr	r3, [r7, #12]
 8006b2a:	681b      	ldr	r3, [r3, #0]
 8006b2c:	681a      	ldr	r2, [r3, #0]
 8006b2e:	68fb      	ldr	r3, [r7, #12]
 8006b30:	681b      	ldr	r3, [r3, #0]
 8006b32:	2140      	movs	r1, #64	; 0x40
 8006b34:	430a      	orrs	r2, r1
 8006b36:	601a      	str	r2, [r3, #0]
  }

  /* Transmit data in 16 Bit mode */
  if (hspi->Init.DataSize > SPI_DATASIZE_8BIT)
 8006b38:	68fb      	ldr	r3, [r7, #12]
 8006b3a:	68da      	ldr	r2, [r3, #12]
 8006b3c:	23e0      	movs	r3, #224	; 0xe0
 8006b3e:	00db      	lsls	r3, r3, #3
 8006b40:	429a      	cmp	r2, r3
 8006b42:	d952      	bls.n	8006bea <HAL_SPI_Transmit+0x1b2>
  {
    if ((hspi->Init.Mode == SPI_MODE_SLAVE) || (initial_TxXferCount == 0x01U))
 8006b44:	68fb      	ldr	r3, [r7, #12]
 8006b46:	685b      	ldr	r3, [r3, #4]
 8006b48:	2b00      	cmp	r3, #0
 8006b4a:	d004      	beq.n	8006b56 <HAL_SPI_Transmit+0x11e>
 8006b4c:	2316      	movs	r3, #22
 8006b4e:	18fb      	adds	r3, r7, r3
 8006b50:	881b      	ldrh	r3, [r3, #0]
 8006b52:	2b01      	cmp	r3, #1
 8006b54:	d143      	bne.n	8006bde <HAL_SPI_Transmit+0x1a6>
    {
      hspi->Instance->DR = *((uint16_t *)hspi->pTxBuffPtr);
 8006b56:	68fb      	ldr	r3, [r7, #12]
 8006b58:	6b9b      	ldr	r3, [r3, #56]	; 0x38
 8006b5a:	881a      	ldrh	r2, [r3, #0]
 8006b5c:	68fb      	ldr	r3, [r7, #12]
 8006b5e:	681b      	ldr	r3, [r3, #0]
 8006b60:	60da      	str	r2, [r3, #12]
      hspi->pTxBuffPtr += sizeof(uint16_t);
 8006b62:	68fb      	ldr	r3, [r7, #12]
 8006b64:	6b9b      	ldr	r3, [r3, #56]	; 0x38
 8006b66:	1c9a      	adds	r2, r3, #2
 8006b68:	68fb      	ldr	r3, [r7, #12]
 8006b6a:	639a      	str	r2, [r3, #56]	; 0x38
      hspi->TxXferCount--;
 8006b6c:	68fb      	ldr	r3, [r7, #12]
 8006b6e:	8fdb      	ldrh	r3, [r3, #62]	; 0x3e
 8006b70:	b29b      	uxth	r3, r3
 8006b72:	3b01      	subs	r3, #1
 8006b74:	b29a      	uxth	r2, r3
 8006b76:	68fb      	ldr	r3, [r7, #12]
 8006b78:	87da      	strh	r2, [r3, #62]	; 0x3e
    }
    /* Transmit data in 16 Bit mode */
    while (hspi->TxXferCount > 0U)
 8006b7a:	e030      	b.n	8006bde <HAL_SPI_Transmit+0x1a6>
    {
      /* Wait until TXE flag is set to send data */
      if (__HAL_SPI_GET_FLAG(hspi, SPI_FLAG_TXE))
 8006b7c:	68fb      	ldr	r3, [r7, #12]
 8006b7e:	681b      	ldr	r3, [r3, #0]
 8006b80:	689b      	ldr	r3, [r3, #8]
 8006b82:	2202      	movs	r2, #2
 8006b84:	4013      	ands	r3, r2
 8006b86:	2b02      	cmp	r3, #2
 8006b88:	d112      	bne.n	8006bb0 <HAL_SPI_Transmit+0x178>
      {
        hspi->Instance->DR = *((uint16_t *)hspi->pTxBuffPtr);
 8006b8a:	68fb      	ldr	r3, [r7, #12]
 8006b8c:	6b9b      	ldr	r3, [r3, #56]	; 0x38
 8006b8e:	881a      	ldrh	r2, [r3, #0]
 8006b90:	68fb      	ldr	r3, [r7, #12]
 8006b92:	681b      	ldr	r3, [r3, #0]
 8006b94:	60da      	str	r2, [r3, #12]
        hspi->pTxBuffPtr += sizeof(uint16_t);
 8006b96:	68fb      	ldr	r3, [r7, #12]
 8006b98:	6b9b      	ldr	r3, [r3, #56]	; 0x38
 8006b9a:	1c9a      	adds	r2, r3, #2
 8006b9c:	68fb      	ldr	r3, [r7, #12]
 8006b9e:	639a      	str	r2, [r3, #56]	; 0x38
        hspi->TxXferCount--;
 8006ba0:	68fb      	ldr	r3, [r7, #12]
 8006ba2:	8fdb      	ldrh	r3, [r3, #62]	; 0x3e
 8006ba4:	b29b      	uxth	r3, r3
 8006ba6:	3b01      	subs	r3, #1
 8006ba8:	b29a      	uxth	r2, r3
 8006baa:	68fb      	ldr	r3, [r7, #12]
 8006bac:	87da      	strh	r2, [r3, #62]	; 0x3e
 8006bae:	e016      	b.n	8006bde <HAL_SPI_Transmit+0x1a6>
      }
      else
      {
        /* Timeout management */
        if ((((HAL_GetTick() - tickstart) >=  Timeout) && (Timeout != HAL_MAX_DELAY)) || (Timeout == 0U))
 8006bb0:	f7fe fc96 	bl	80054e0 <HAL_GetTick>
 8006bb4:	0002      	movs	r2, r0
 8006bb6:	69bb      	ldr	r3, [r7, #24]
 8006bb8:	1ad3      	subs	r3, r2, r3
 8006bba:	683a      	ldr	r2, [r7, #0]
 8006bbc:	429a      	cmp	r2, r3
 8006bbe:	d802      	bhi.n	8006bc6 <HAL_SPI_Transmit+0x18e>
 8006bc0:	683b      	ldr	r3, [r7, #0]
 8006bc2:	3301      	adds	r3, #1
 8006bc4:	d102      	bne.n	8006bcc <HAL_SPI_Transmit+0x194>
 8006bc6:	683b      	ldr	r3, [r7, #0]
 8006bc8:	2b00      	cmp	r3, #0
 8006bca:	d108      	bne.n	8006bde <HAL_SPI_Transmit+0x1a6>
        {
          errorcode = HAL_TIMEOUT;
 8006bcc:	231f      	movs	r3, #31
 8006bce:	18fb      	adds	r3, r7, r3
 8006bd0:	2203      	movs	r2, #3
 8006bd2:	701a      	strb	r2, [r3, #0]
          hspi->State = HAL_SPI_STATE_READY;
 8006bd4:	68fb      	ldr	r3, [r7, #12]
 8006bd6:	225d      	movs	r2, #93	; 0x5d
 8006bd8:	2101      	movs	r1, #1
 8006bda:	5499      	strb	r1, [r3, r2]
          goto error;
 8006bdc:	e080      	b.n	8006ce0 <HAL_SPI_Transmit+0x2a8>
    while (hspi->TxXferCount > 0U)
 8006bde:	68fb      	ldr	r3, [r7, #12]
 8006be0:	8fdb      	ldrh	r3, [r3, #62]	; 0x3e
 8006be2:	b29b      	uxth	r3, r3
 8006be4:	2b00      	cmp	r3, #0
 8006be6:	d1c9      	bne.n	8006b7c <HAL_SPI_Transmit+0x144>
 8006be8:	e053      	b.n	8006c92 <HAL_SPI_Transmit+0x25a>
    }
  }
  /* Transmit data in 8 Bit mode */
  else
  {
    if ((hspi->Init.Mode == SPI_MODE_SLAVE) || (initial_TxXferCount == 0x01U))
 8006bea:	68fb      	ldr	r3, [r7, #12]
 8006bec:	685b      	ldr	r3, [r3, #4]
 8006bee:	2b00      	cmp	r3, #0
 8006bf0:	d004      	beq.n	8006bfc <HAL_SPI_Transmit+0x1c4>
 8006bf2:	2316      	movs	r3, #22
 8006bf4:	18fb      	adds	r3, r7, r3
 8006bf6:	881b      	ldrh	r3, [r3, #0]
 8006bf8:	2b01      	cmp	r3, #1
 8006bfa:	d145      	bne.n	8006c88 <HAL_SPI_Transmit+0x250>
    {
      *((__IO uint8_t *)&hspi->Instance->DR) = (*hspi->pTxBuffPtr);
 8006bfc:	68fb      	ldr	r3, [r7, #12]
 8006bfe:	6b9a      	ldr	r2, [r3, #56]	; 0x38
 8006c00:	68fb      	ldr	r3, [r7, #12]
 8006c02:	681b      	ldr	r3, [r3, #0]
 8006c04:	330c      	adds	r3, #12
 8006c06:	7812      	ldrb	r2, [r2, #0]
 8006c08:	701a      	strb	r2, [r3, #0]
      hspi->pTxBuffPtr += sizeof(uint8_t);
 8006c0a:	68fb      	ldr	r3, [r7, #12]
 8006c0c:	6b9b      	ldr	r3, [r3, #56]	; 0x38
 8006c0e:	1c5a      	adds	r2, r3, #1
 8006c10:	68fb      	ldr	r3, [r7, #12]
 8006c12:	639a      	str	r2, [r3, #56]	; 0x38
      hspi->TxXferCount--;
 8006c14:	68fb      	ldr	r3, [r7, #12]
 8006c16:	8fdb      	ldrh	r3, [r3, #62]	; 0x3e
 8006c18:	b29b      	uxth	r3, r3
 8006c1a:	3b01      	subs	r3, #1
 8006c1c:	b29a      	uxth	r2, r3
 8006c1e:	68fb      	ldr	r3, [r7, #12]
 8006c20:	87da      	strh	r2, [r3, #62]	; 0x3e
    }
    while (hspi->TxXferCount > 0U)
 8006c22:	e031      	b.n	8006c88 <HAL_SPI_Transmit+0x250>
    {
      /* Wait until TXE flag is set to send data */
      if (__HAL_SPI_GET_FLAG(hspi, SPI_FLAG_TXE))
 8006c24:	68fb      	ldr	r3, [r7, #12]
 8006c26:	681b      	ldr	r3, [r3, #0]
 8006c28:	689b      	ldr	r3, [r3, #8]
 8006c2a:	2202      	movs	r2, #2
 8006c2c:	4013      	ands	r3, r2
 8006c2e:	2b02      	cmp	r3, #2
 8006c30:	d113      	bne.n	8006c5a <HAL_SPI_Transmit+0x222>
      {
        *((__IO uint8_t *)&hspi->Instance->DR) = (*hspi->pTxBuffPtr);
 8006c32:	68fb      	ldr	r3, [r7, #12]
 8006c34:	6b9a      	ldr	r2, [r3, #56]	; 0x38
 8006c36:	68fb      	ldr	r3, [r7, #12]
 8006c38:	681b      	ldr	r3, [r3, #0]
 8006c3a:	330c      	adds	r3, #12
 8006c3c:	7812      	ldrb	r2, [r2, #0]
 8006c3e:	701a      	strb	r2, [r3, #0]
        hspi->pTxBuffPtr += sizeof(uint8_t);
 8006c40:	68fb      	ldr	r3, [r7, #12]
 8006c42:	6b9b      	ldr	r3, [r3, #56]	; 0x38
 8006c44:	1c5a      	adds	r2, r3, #1
 8006c46:	68fb      	ldr	r3, [r7, #12]
 8006c48:	639a      	str	r2, [r3, #56]	; 0x38
        hspi->TxXferCount--;
 8006c4a:	68fb      	ldr	r3, [r7, #12]
 8006c4c:	8fdb      	ldrh	r3, [r3, #62]	; 0x3e
 8006c4e:	b29b      	uxth	r3, r3
 8006c50:	3b01      	subs	r3, #1
 8006c52:	b29a      	uxth	r2, r3
 8006c54:	68fb      	ldr	r3, [r7, #12]
 8006c56:	87da      	strh	r2, [r3, #62]	; 0x3e
 8006c58:	e016      	b.n	8006c88 <HAL_SPI_Transmit+0x250>
      }
      else
      {
        /* Timeout management */
        if ((((HAL_GetTick() - tickstart) >=  Timeout) && (Timeout != HAL_MAX_DELAY)) || (Timeout == 0U))
 8006c5a:	f7fe fc41 	bl	80054e0 <HAL_GetTick>
 8006c5e:	0002      	movs	r2, r0
 8006c60:	69bb      	ldr	r3, [r7, #24]
 8006c62:	1ad3      	subs	r3, r2, r3
 8006c64:	683a      	ldr	r2, [r7, #0]
 8006c66:	429a      	cmp	r2, r3
 8006c68:	d802      	bhi.n	8006c70 <HAL_SPI_Transmit+0x238>
 8006c6a:	683b      	ldr	r3, [r7, #0]
 8006c6c:	3301      	adds	r3, #1
 8006c6e:	d102      	bne.n	8006c76 <HAL_SPI_Transmit+0x23e>
 8006c70:	683b      	ldr	r3, [r7, #0]
 8006c72:	2b00      	cmp	r3, #0
 8006c74:	d108      	bne.n	8006c88 <HAL_SPI_Transmit+0x250>
        {
          errorcode = HAL_TIMEOUT;
 8006c76:	231f      	movs	r3, #31
 8006c78:	18fb      	adds	r3, r7, r3
 8006c7a:	2203      	movs	r2, #3
 8006c7c:	701a      	strb	r2, [r3, #0]
          hspi->State = HAL_SPI_STATE_READY;
 8006c7e:	68fb      	ldr	r3, [r7, #12]
 8006c80:	225d      	movs	r2, #93	; 0x5d
 8006c82:	2101      	movs	r1, #1
 8006c84:	5499      	strb	r1, [r3, r2]
          goto error;
 8006c86:	e02b      	b.n	8006ce0 <HAL_SPI_Transmit+0x2a8>
    while (hspi->TxXferCount > 0U)
 8006c88:	68fb      	ldr	r3, [r7, #12]
 8006c8a:	8fdb      	ldrh	r3, [r3, #62]	; 0x3e
 8006c8c:	b29b      	uxth	r3, r3
 8006c8e:	2b00      	cmp	r3, #0
 8006c90:	d1c8      	bne.n	8006c24 <HAL_SPI_Transmit+0x1ec>
    SET_BIT(hspi->Instance->CR1, SPI_CR1_CRCNEXT);
  }
#endif /* USE_SPI_CRC */

  /* Check the end of the transaction */
  if (SPI_EndRxTxTransaction(hspi, Timeout, tickstart) != HAL_OK)
 8006c92:	69ba      	ldr	r2, [r7, #24]
 8006c94:	6839      	ldr	r1, [r7, #0]
 8006c96:	68fb      	ldr	r3, [r7, #12]
 8006c98:	0018      	movs	r0, r3
 8006c9a:	f000 f95d 	bl	8006f58 <SPI_EndRxTxTransaction>
 8006c9e:	1e03      	subs	r3, r0, #0
 8006ca0:	d002      	beq.n	8006ca8 <HAL_SPI_Transmit+0x270>
  {
    hspi->ErrorCode = HAL_SPI_ERROR_FLAG;
 8006ca2:	68fb      	ldr	r3, [r7, #12]
 8006ca4:	2220      	movs	r2, #32
 8006ca6:	661a      	str	r2, [r3, #96]	; 0x60
  }

  /* Clear overrun flag in 2 Lines communication mode because received is not read */
  if (hspi->Init.Direction == SPI_DIRECTION_2LINES)
 8006ca8:	68fb      	ldr	r3, [r7, #12]
 8006caa:	689b      	ldr	r3, [r3, #8]
 8006cac:	2b00      	cmp	r3, #0
 8006cae:	d10a      	bne.n	8006cc6 <HAL_SPI_Transmit+0x28e>
  {
    __HAL_SPI_CLEAR_OVRFLAG(hspi);
 8006cb0:	2300      	movs	r3, #0
 8006cb2:	613b      	str	r3, [r7, #16]
 8006cb4:	68fb      	ldr	r3, [r7, #12]
 8006cb6:	681b      	ldr	r3, [r3, #0]
 8006cb8:	68db      	ldr	r3, [r3, #12]
 8006cba:	613b      	str	r3, [r7, #16]
 8006cbc:	68fb      	ldr	r3, [r7, #12]
 8006cbe:	681b      	ldr	r3, [r3, #0]
 8006cc0:	689b      	ldr	r3, [r3, #8]
 8006cc2:	613b      	str	r3, [r7, #16]
 8006cc4:	693b      	ldr	r3, [r7, #16]
  }

  if (hspi->ErrorCode != HAL_SPI_ERROR_NONE)
 8006cc6:	68fb      	ldr	r3, [r7, #12]
 8006cc8:	6e1b      	ldr	r3, [r3, #96]	; 0x60
 8006cca:	2b00      	cmp	r3, #0
 8006ccc:	d004      	beq.n	8006cd8 <HAL_SPI_Transmit+0x2a0>
  {
    errorcode = HAL_ERROR;
 8006cce:	231f      	movs	r3, #31
 8006cd0:	18fb      	adds	r3, r7, r3
 8006cd2:	2201      	movs	r2, #1
 8006cd4:	701a      	strb	r2, [r3, #0]
 8006cd6:	e003      	b.n	8006ce0 <HAL_SPI_Transmit+0x2a8>
  }
  else
  {
    hspi->State = HAL_SPI_STATE_READY;
 8006cd8:	68fb      	ldr	r3, [r7, #12]
 8006cda:	225d      	movs	r2, #93	; 0x5d
 8006cdc:	2101      	movs	r1, #1
 8006cde:	5499      	strb	r1, [r3, r2]
  }

error:
  /* Process Unlocked */
  __HAL_UNLOCK(hspi);
 8006ce0:	68fb      	ldr	r3, [r7, #12]
 8006ce2:	225c      	movs	r2, #92	; 0x5c
 8006ce4:	2100      	movs	r1, #0
 8006ce6:	5499      	strb	r1, [r3, r2]
  return errorcode;
 8006ce8:	231f      	movs	r3, #31
 8006cea:	18fb      	adds	r3, r7, r3
 8006cec:	781b      	ldrb	r3, [r3, #0]
}
 8006cee:	0018      	movs	r0, r3
 8006cf0:	46bd      	mov	sp, r7
 8006cf2:	b008      	add	sp, #32
 8006cf4:	bd80      	pop	{r7, pc}
	...

08006cf8 <SPI_WaitFlagStateUntilTimeout>:
  * @param  Tickstart tick start value
  * @retval HAL status
  */
static HAL_StatusTypeDef SPI_WaitFlagStateUntilTimeout(SPI_HandleTypeDef *hspi, uint32_t Flag, FlagStatus State,
                                                       uint32_t Timeout, uint32_t Tickstart)
{
 8006cf8:	b580      	push	{r7, lr}
 8006cfa:	b088      	sub	sp, #32
 8006cfc:	af00      	add	r7, sp, #0
 8006cfe:	60f8      	str	r0, [r7, #12]
 8006d00:	60b9      	str	r1, [r7, #8]
 8006d02:	603b      	str	r3, [r7, #0]
 8006d04:	1dfb      	adds	r3, r7, #7
 8006d06:	701a      	strb	r2, [r3, #0]
  __IO uint32_t count;
  uint32_t tmp_timeout;
  uint32_t tmp_tickstart;

  /* Adjust Timeout value  in case of end of transfer */
  tmp_timeout   = Timeout - (HAL_GetTick() - Tickstart);
 8006d08:	f7fe fbea 	bl	80054e0 <HAL_GetTick>
 8006d0c:	0002      	movs	r2, r0
 8006d0e:	6abb      	ldr	r3, [r7, #40]	; 0x28
 8006d10:	1a9b      	subs	r3, r3, r2
 8006d12:	683a      	ldr	r2, [r7, #0]
 8006d14:	18d3      	adds	r3, r2, r3
 8006d16:	61fb      	str	r3, [r7, #28]
  tmp_tickstart = HAL_GetTick();
 8006d18:	f7fe fbe2 	bl	80054e0 <HAL_GetTick>
 8006d1c:	0003      	movs	r3, r0
 8006d1e:	61bb      	str	r3, [r7, #24]

  /* Calculate Timeout based on a software loop to avoid blocking issue if Systick is disabled */
  count = tmp_timeout * ((SystemCoreClock * 32U) >> 20U);
 8006d20:	4b3a      	ldr	r3, [pc, #232]	; (8006e0c <SPI_WaitFlagStateUntilTimeout+0x114>)
 8006d22:	681b      	ldr	r3, [r3, #0]
 8006d24:	015b      	lsls	r3, r3, #5
 8006d26:	0d1b      	lsrs	r3, r3, #20
 8006d28:	69fa      	ldr	r2, [r7, #28]
 8006d2a:	4353      	muls	r3, r2
 8006d2c:	617b      	str	r3, [r7, #20]

  while ((__HAL_SPI_GET_FLAG(hspi, Flag) ? SET : RESET) != State)
 8006d2e:	e058      	b.n	8006de2 <SPI_WaitFlagStateUntilTimeout+0xea>
  {
    if (Timeout != HAL_MAX_DELAY)
 8006d30:	683b      	ldr	r3, [r7, #0]
 8006d32:	3301      	adds	r3, #1
 8006d34:	d055      	beq.n	8006de2 <SPI_WaitFlagStateUntilTimeout+0xea>
    {
      if (((HAL_GetTick() - tmp_tickstart) >= tmp_timeout) || (tmp_timeout == 0U))
 8006d36:	f7fe fbd3 	bl	80054e0 <HAL_GetTick>
 8006d3a:	0002      	movs	r2, r0
 8006d3c:	69bb      	ldr	r3, [r7, #24]
 8006d3e:	1ad3      	subs	r3, r2, r3
 8006d40:	69fa      	ldr	r2, [r7, #28]
 8006d42:	429a      	cmp	r2, r3
 8006d44:	d902      	bls.n	8006d4c <SPI_WaitFlagStateUntilTimeout+0x54>
 8006d46:	69fb      	ldr	r3, [r7, #28]
 8006d48:	2b00      	cmp	r3, #0
 8006d4a:	d142      	bne.n	8006dd2 <SPI_WaitFlagStateUntilTimeout+0xda>
        /* Disable the SPI and reset the CRC: the CRC value should be cleared
           on both master and slave sides in order to resynchronize the master
           and slave for their respective CRC calculation */

        /* Disable TXE, RXNE and ERR interrupts for the interrupt process */
        __HAL_SPI_DISABLE_IT(hspi, (SPI_IT_TXE | SPI_IT_RXNE | SPI_IT_ERR));
 8006d4c:	68fb      	ldr	r3, [r7, #12]
 8006d4e:	681b      	ldr	r3, [r3, #0]
 8006d50:	685a      	ldr	r2, [r3, #4]
 8006d52:	68fb      	ldr	r3, [r7, #12]
 8006d54:	681b      	ldr	r3, [r3, #0]
 8006d56:	21e0      	movs	r1, #224	; 0xe0
 8006d58:	438a      	bics	r2, r1
 8006d5a:	605a      	str	r2, [r3, #4]

        if ((hspi->Init.Mode == SPI_MODE_MASTER) && ((hspi->Init.Direction == SPI_DIRECTION_1LINE)
 8006d5c:	68fb      	ldr	r3, [r7, #12]
 8006d5e:	685a      	ldr	r2, [r3, #4]
 8006d60:	2382      	movs	r3, #130	; 0x82
 8006d62:	005b      	lsls	r3, r3, #1
 8006d64:	429a      	cmp	r2, r3
 8006d66:	d113      	bne.n	8006d90 <SPI_WaitFlagStateUntilTimeout+0x98>
 8006d68:	68fb      	ldr	r3, [r7, #12]
 8006d6a:	689a      	ldr	r2, [r3, #8]
 8006d6c:	2380      	movs	r3, #128	; 0x80
 8006d6e:	021b      	lsls	r3, r3, #8
 8006d70:	429a      	cmp	r2, r3
 8006d72:	d005      	beq.n	8006d80 <SPI_WaitFlagStateUntilTimeout+0x88>
                                                     || (hspi->Init.Direction == SPI_DIRECTION_2LINES_RXONLY)))
 8006d74:	68fb      	ldr	r3, [r7, #12]
 8006d76:	689a      	ldr	r2, [r3, #8]
 8006d78:	2380      	movs	r3, #128	; 0x80
 8006d7a:	00db      	lsls	r3, r3, #3
 8006d7c:	429a      	cmp	r2, r3
 8006d7e:	d107      	bne.n	8006d90 <SPI_WaitFlagStateUntilTimeout+0x98>
        {
          /* Disable SPI peripheral */
          __HAL_SPI_DISABLE(hspi);
 8006d80:	68fb      	ldr	r3, [r7, #12]
 8006d82:	681b      	ldr	r3, [r3, #0]
 8006d84:	681a      	ldr	r2, [r3, #0]
 8006d86:	68fb      	ldr	r3, [r7, #12]
 8006d88:	681b      	ldr	r3, [r3, #0]
 8006d8a:	2140      	movs	r1, #64	; 0x40
 8006d8c:	438a      	bics	r2, r1
 8006d8e:	601a      	str	r2, [r3, #0]
        }

        /* Reset CRC Calculation */
        if (hspi->Init.CRCCalculation == SPI_CRCCALCULATION_ENABLE)
 8006d90:	68fb      	ldr	r3, [r7, #12]
 8006d92:	6a9a      	ldr	r2, [r3, #40]	; 0x28
 8006d94:	2380      	movs	r3, #128	; 0x80
 8006d96:	019b      	lsls	r3, r3, #6
 8006d98:	429a      	cmp	r2, r3
 8006d9a:	d110      	bne.n	8006dbe <SPI_WaitFlagStateUntilTimeout+0xc6>
        {
          SPI_RESET_CRC(hspi);
 8006d9c:	68fb      	ldr	r3, [r7, #12]
 8006d9e:	681b      	ldr	r3, [r3, #0]
 8006da0:	681a      	ldr	r2, [r3, #0]
 8006da2:	68fb      	ldr	r3, [r7, #12]
 8006da4:	681b      	ldr	r3, [r3, #0]
 8006da6:	491a      	ldr	r1, [pc, #104]	; (8006e10 <SPI_WaitFlagStateUntilTimeout+0x118>)
 8006da8:	400a      	ands	r2, r1
 8006daa:	601a      	str	r2, [r3, #0]
 8006dac:	68fb      	ldr	r3, [r7, #12]
 8006dae:	681b      	ldr	r3, [r3, #0]
 8006db0:	681a      	ldr	r2, [r3, #0]
 8006db2:	68fb      	ldr	r3, [r7, #12]
 8006db4:	681b      	ldr	r3, [r3, #0]
 8006db6:	2180      	movs	r1, #128	; 0x80
 8006db8:	0189      	lsls	r1, r1, #6
 8006dba:	430a      	orrs	r2, r1
 8006dbc:	601a      	str	r2, [r3, #0]
        }

        hspi->State = HAL_SPI_STATE_READY;
 8006dbe:	68fb      	ldr	r3, [r7, #12]
 8006dc0:	225d      	movs	r2, #93	; 0x5d
 8006dc2:	2101      	movs	r1, #1
 8006dc4:	5499      	strb	r1, [r3, r2]

        /* Process Unlocked */
        __HAL_UNLOCK(hspi);
 8006dc6:	68fb      	ldr	r3, [r7, #12]
 8006dc8:	225c      	movs	r2, #92	; 0x5c
 8006dca:	2100      	movs	r1, #0
 8006dcc:	5499      	strb	r1, [r3, r2]

        return HAL_TIMEOUT;
 8006dce:	2303      	movs	r3, #3
 8006dd0:	e017      	b.n	8006e02 <SPI_WaitFlagStateUntilTimeout+0x10a>
      }
      /* If Systick is disabled or not incremented, deactivate timeout to go in disable loop procedure */
      if (count == 0U)
 8006dd2:	697b      	ldr	r3, [r7, #20]
 8006dd4:	2b00      	cmp	r3, #0
 8006dd6:	d101      	bne.n	8006ddc <SPI_WaitFlagStateUntilTimeout+0xe4>
      {
        tmp_timeout = 0U;
 8006dd8:	2300      	movs	r3, #0
 8006dda:	61fb      	str	r3, [r7, #28]
      }
      count--;
 8006ddc:	697b      	ldr	r3, [r7, #20]
 8006dde:	3b01      	subs	r3, #1
 8006de0:	617b      	str	r3, [r7, #20]
  while ((__HAL_SPI_GET_FLAG(hspi, Flag) ? SET : RESET) != State)
 8006de2:	68fb      	ldr	r3, [r7, #12]
 8006de4:	681b      	ldr	r3, [r3, #0]
 8006de6:	689b      	ldr	r3, [r3, #8]
 8006de8:	68ba      	ldr	r2, [r7, #8]
 8006dea:	4013      	ands	r3, r2
 8006dec:	68ba      	ldr	r2, [r7, #8]
 8006dee:	1ad3      	subs	r3, r2, r3
 8006df0:	425a      	negs	r2, r3
 8006df2:	4153      	adcs	r3, r2
 8006df4:	b2db      	uxtb	r3, r3
 8006df6:	001a      	movs	r2, r3
 8006df8:	1dfb      	adds	r3, r7, #7
 8006dfa:	781b      	ldrb	r3, [r3, #0]
 8006dfc:	429a      	cmp	r2, r3
 8006dfe:	d197      	bne.n	8006d30 <SPI_WaitFlagStateUntilTimeout+0x38>
    }
  }

  return HAL_OK;
 8006e00:	2300      	movs	r3, #0
}
 8006e02:	0018      	movs	r0, r3
 8006e04:	46bd      	mov	sp, r7
 8006e06:	b008      	add	sp, #32
 8006e08:	bd80      	pop	{r7, pc}
 8006e0a:	46c0      	nop			; (mov r8, r8)
 8006e0c:	20000024 	.word	0x20000024
 8006e10:	ffffdfff 	.word	0xffffdfff

08006e14 <SPI_WaitFifoStateUntilTimeout>:
  * @param  Tickstart tick start value
  * @retval HAL status
  */
static HAL_StatusTypeDef SPI_WaitFifoStateUntilTimeout(SPI_HandleTypeDef *hspi, uint32_t Fifo, uint32_t State,
                                                       uint32_t Timeout, uint32_t Tickstart)
{
 8006e14:	b580      	push	{r7, lr}
 8006e16:	b08a      	sub	sp, #40	; 0x28
 8006e18:	af00      	add	r7, sp, #0
 8006e1a:	60f8      	str	r0, [r7, #12]
 8006e1c:	60b9      	str	r1, [r7, #8]
 8006e1e:	607a      	str	r2, [r7, #4]
 8006e20:	603b      	str	r3, [r7, #0]
  __IO uint32_t count;
  uint32_t tmp_timeout;
  uint32_t tmp_tickstart;
  __IO uint8_t  *ptmpreg8;
  __IO uint8_t  tmpreg8 = 0;
 8006e22:	2317      	movs	r3, #23
 8006e24:	18fb      	adds	r3, r7, r3
 8006e26:	2200      	movs	r2, #0
 8006e28:	701a      	strb	r2, [r3, #0]

  /* Adjust Timeout value  in case of end of transfer */
  tmp_timeout = Timeout - (HAL_GetTick() - Tickstart);
 8006e2a:	f7fe fb59 	bl	80054e0 <HAL_GetTick>
 8006e2e:	0002      	movs	r2, r0
 8006e30:	6b3b      	ldr	r3, [r7, #48]	; 0x30
 8006e32:	1a9b      	subs	r3, r3, r2
 8006e34:	683a      	ldr	r2, [r7, #0]
 8006e36:	18d3      	adds	r3, r2, r3
 8006e38:	627b      	str	r3, [r7, #36]	; 0x24
  tmp_tickstart = HAL_GetTick();
 8006e3a:	f7fe fb51 	bl	80054e0 <HAL_GetTick>
 8006e3e:	0003      	movs	r3, r0
 8006e40:	623b      	str	r3, [r7, #32]

  /* Initialize the 8bit temporary pointer */
  ptmpreg8 = (__IO uint8_t *)&hspi->Instance->DR;
 8006e42:	68fb      	ldr	r3, [r7, #12]
 8006e44:	681b      	ldr	r3, [r3, #0]
 8006e46:	330c      	adds	r3, #12
 8006e48:	61fb      	str	r3, [r7, #28]

  /* Calculate Timeout based on a software loop to avoid blocking issue if Systick is disabled */
  count = tmp_timeout * ((SystemCoreClock * 35U) >> 20U);
 8006e4a:	4b41      	ldr	r3, [pc, #260]	; (8006f50 <SPI_WaitFifoStateUntilTimeout+0x13c>)
 8006e4c:	681a      	ldr	r2, [r3, #0]
 8006e4e:	0013      	movs	r3, r2
 8006e50:	009b      	lsls	r3, r3, #2
 8006e52:	189b      	adds	r3, r3, r2
 8006e54:	00da      	lsls	r2, r3, #3
 8006e56:	1ad3      	subs	r3, r2, r3
 8006e58:	0d1b      	lsrs	r3, r3, #20
 8006e5a:	6a7a      	ldr	r2, [r7, #36]	; 0x24
 8006e5c:	4353      	muls	r3, r2
 8006e5e:	61bb      	str	r3, [r7, #24]

  while ((hspi->Instance->SR & Fifo) != State)
 8006e60:	e068      	b.n	8006f34 <SPI_WaitFifoStateUntilTimeout+0x120>
  {
    if ((Fifo == SPI_SR_FRLVL) && (State == SPI_FRLVL_EMPTY))
 8006e62:	68ba      	ldr	r2, [r7, #8]
 8006e64:	23c0      	movs	r3, #192	; 0xc0
 8006e66:	00db      	lsls	r3, r3, #3
 8006e68:	429a      	cmp	r2, r3
 8006e6a:	d10a      	bne.n	8006e82 <SPI_WaitFifoStateUntilTimeout+0x6e>
 8006e6c:	687b      	ldr	r3, [r7, #4]
 8006e6e:	2b00      	cmp	r3, #0
 8006e70:	d107      	bne.n	8006e82 <SPI_WaitFifoStateUntilTimeout+0x6e>
    {
      /* Flush Data Register by a blank read */
      tmpreg8 = *ptmpreg8;
 8006e72:	69fb      	ldr	r3, [r7, #28]
 8006e74:	781b      	ldrb	r3, [r3, #0]
 8006e76:	b2da      	uxtb	r2, r3
 8006e78:	2117      	movs	r1, #23
 8006e7a:	187b      	adds	r3, r7, r1
 8006e7c:	701a      	strb	r2, [r3, #0]
      /* To avoid GCC warning */
      UNUSED(tmpreg8);
 8006e7e:	187b      	adds	r3, r7, r1
 8006e80:	781b      	ldrb	r3, [r3, #0]
    }

    if (Timeout != HAL_MAX_DELAY)
 8006e82:	683b      	ldr	r3, [r7, #0]
 8006e84:	3301      	adds	r3, #1
 8006e86:	d055      	beq.n	8006f34 <SPI_WaitFifoStateUntilTimeout+0x120>
    {
      if (((HAL_GetTick() - tmp_tickstart) >= tmp_timeout) || (tmp_timeout == 0U))
 8006e88:	f7fe fb2a 	bl	80054e0 <HAL_GetTick>
 8006e8c:	0002      	movs	r2, r0
 8006e8e:	6a3b      	ldr	r3, [r7, #32]
 8006e90:	1ad3      	subs	r3, r2, r3
 8006e92:	6a7a      	ldr	r2, [r7, #36]	; 0x24
 8006e94:	429a      	cmp	r2, r3
 8006e96:	d902      	bls.n	8006e9e <SPI_WaitFifoStateUntilTimeout+0x8a>
 8006e98:	6a7b      	ldr	r3, [r7, #36]	; 0x24
 8006e9a:	2b00      	cmp	r3, #0
 8006e9c:	d142      	bne.n	8006f24 <SPI_WaitFifoStateUntilTimeout+0x110>
        /* Disable the SPI and reset the CRC: the CRC value should be cleared
           on both master and slave sides in order to resynchronize the master
           and slave for their respective CRC calculation */

        /* Disable TXE, RXNE and ERR interrupts for the interrupt process */
        __HAL_SPI_DISABLE_IT(hspi, (SPI_IT_TXE | SPI_IT_RXNE | SPI_IT_ERR));
 8006e9e:	68fb      	ldr	r3, [r7, #12]
 8006ea0:	681b      	ldr	r3, [r3, #0]
 8006ea2:	685a      	ldr	r2, [r3, #4]
 8006ea4:	68fb      	ldr	r3, [r7, #12]
 8006ea6:	681b      	ldr	r3, [r3, #0]
 8006ea8:	21e0      	movs	r1, #224	; 0xe0
 8006eaa:	438a      	bics	r2, r1
 8006eac:	605a      	str	r2, [r3, #4]

        if ((hspi->Init.Mode == SPI_MODE_MASTER) && ((hspi->Init.Direction == SPI_DIRECTION_1LINE)
 8006eae:	68fb      	ldr	r3, [r7, #12]
 8006eb0:	685a      	ldr	r2, [r3, #4]
 8006eb2:	2382      	movs	r3, #130	; 0x82
 8006eb4:	005b      	lsls	r3, r3, #1
 8006eb6:	429a      	cmp	r2, r3
 8006eb8:	d113      	bne.n	8006ee2 <SPI_WaitFifoStateUntilTimeout+0xce>
 8006eba:	68fb      	ldr	r3, [r7, #12]
 8006ebc:	689a      	ldr	r2, [r3, #8]
 8006ebe:	2380      	movs	r3, #128	; 0x80
 8006ec0:	021b      	lsls	r3, r3, #8
 8006ec2:	429a      	cmp	r2, r3
 8006ec4:	d005      	beq.n	8006ed2 <SPI_WaitFifoStateUntilTimeout+0xbe>
                                                     || (hspi->Init.Direction == SPI_DIRECTION_2LINES_RXONLY)))
 8006ec6:	68fb      	ldr	r3, [r7, #12]
 8006ec8:	689a      	ldr	r2, [r3, #8]
 8006eca:	2380      	movs	r3, #128	; 0x80
 8006ecc:	00db      	lsls	r3, r3, #3
 8006ece:	429a      	cmp	r2, r3
 8006ed0:	d107      	bne.n	8006ee2 <SPI_WaitFifoStateUntilTimeout+0xce>
        {
          /* Disable SPI peripheral */
          __HAL_SPI_DISABLE(hspi);
 8006ed2:	68fb      	ldr	r3, [r7, #12]
 8006ed4:	681b      	ldr	r3, [r3, #0]
 8006ed6:	681a      	ldr	r2, [r3, #0]
 8006ed8:	68fb      	ldr	r3, [r7, #12]
 8006eda:	681b      	ldr	r3, [r3, #0]
 8006edc:	2140      	movs	r1, #64	; 0x40
 8006ede:	438a      	bics	r2, r1
 8006ee0:	601a      	str	r2, [r3, #0]
        }

        /* Reset CRC Calculation */
        if (hspi->Init.CRCCalculation == SPI_CRCCALCULATION_ENABLE)
 8006ee2:	68fb      	ldr	r3, [r7, #12]
 8006ee4:	6a9a      	ldr	r2, [r3, #40]	; 0x28
 8006ee6:	2380      	movs	r3, #128	; 0x80
 8006ee8:	019b      	lsls	r3, r3, #6
 8006eea:	429a      	cmp	r2, r3
 8006eec:	d110      	bne.n	8006f10 <SPI_WaitFifoStateUntilTimeout+0xfc>
        {
          SPI_RESET_CRC(hspi);
 8006eee:	68fb      	ldr	r3, [r7, #12]
 8006ef0:	681b      	ldr	r3, [r3, #0]
 8006ef2:	681a      	ldr	r2, [r3, #0]
 8006ef4:	68fb      	ldr	r3, [r7, #12]
 8006ef6:	681b      	ldr	r3, [r3, #0]
 8006ef8:	4916      	ldr	r1, [pc, #88]	; (8006f54 <SPI_WaitFifoStateUntilTimeout+0x140>)
 8006efa:	400a      	ands	r2, r1
 8006efc:	601a      	str	r2, [r3, #0]
 8006efe:	68fb      	ldr	r3, [r7, #12]
 8006f00:	681b      	ldr	r3, [r3, #0]
 8006f02:	681a      	ldr	r2, [r3, #0]
 8006f04:	68fb      	ldr	r3, [r7, #12]
 8006f06:	681b      	ldr	r3, [r3, #0]
 8006f08:	2180      	movs	r1, #128	; 0x80
 8006f0a:	0189      	lsls	r1, r1, #6
 8006f0c:	430a      	orrs	r2, r1
 8006f0e:	601a      	str	r2, [r3, #0]
        }

        hspi->State = HAL_SPI_STATE_READY;
 8006f10:	68fb      	ldr	r3, [r7, #12]
 8006f12:	225d      	movs	r2, #93	; 0x5d
 8006f14:	2101      	movs	r1, #1
 8006f16:	5499      	strb	r1, [r3, r2]

        /* Process Unlocked */
        __HAL_UNLOCK(hspi);
 8006f18:	68fb      	ldr	r3, [r7, #12]
 8006f1a:	225c      	movs	r2, #92	; 0x5c
 8006f1c:	2100      	movs	r1, #0
 8006f1e:	5499      	strb	r1, [r3, r2]

        return HAL_TIMEOUT;
 8006f20:	2303      	movs	r3, #3
 8006f22:	e010      	b.n	8006f46 <SPI_WaitFifoStateUntilTimeout+0x132>
      }
      /* If Systick is disabled or not incremented, deactivate timeout to go in disable loop procedure */
      if (count == 0U)
 8006f24:	69bb      	ldr	r3, [r7, #24]
 8006f26:	2b00      	cmp	r3, #0
 8006f28:	d101      	bne.n	8006f2e <SPI_WaitFifoStateUntilTimeout+0x11a>
      {
        tmp_timeout = 0U;
 8006f2a:	2300      	movs	r3, #0
 8006f2c:	627b      	str	r3, [r7, #36]	; 0x24
      }
      count--;
 8006f2e:	69bb      	ldr	r3, [r7, #24]
 8006f30:	3b01      	subs	r3, #1
 8006f32:	61bb      	str	r3, [r7, #24]
  while ((hspi->Instance->SR & Fifo) != State)
 8006f34:	68fb      	ldr	r3, [r7, #12]
 8006f36:	681b      	ldr	r3, [r3, #0]
 8006f38:	689b      	ldr	r3, [r3, #8]
 8006f3a:	68ba      	ldr	r2, [r7, #8]
 8006f3c:	4013      	ands	r3, r2
 8006f3e:	687a      	ldr	r2, [r7, #4]
 8006f40:	429a      	cmp	r2, r3
 8006f42:	d18e      	bne.n	8006e62 <SPI_WaitFifoStateUntilTimeout+0x4e>
    }
  }

  return HAL_OK;
 8006f44:	2300      	movs	r3, #0
}
 8006f46:	0018      	movs	r0, r3
 8006f48:	46bd      	mov	sp, r7
 8006f4a:	b00a      	add	sp, #40	; 0x28
 8006f4c:	bd80      	pop	{r7, pc}
 8006f4e:	46c0      	nop			; (mov r8, r8)
 8006f50:	20000024 	.word	0x20000024
 8006f54:	ffffdfff 	.word	0xffffdfff

08006f58 <SPI_EndRxTxTransaction>:
  * @param  Timeout Timeout duration
  * @param  Tickstart tick start value
  * @retval HAL status
  */
static HAL_StatusTypeDef SPI_EndRxTxTransaction(SPI_HandleTypeDef *hspi, uint32_t Timeout, uint32_t Tickstart)
{
 8006f58:	b580      	push	{r7, lr}
 8006f5a:	b086      	sub	sp, #24
 8006f5c:	af02      	add	r7, sp, #8
 8006f5e:	60f8      	str	r0, [r7, #12]
 8006f60:	60b9      	str	r1, [r7, #8]
 8006f62:	607a      	str	r2, [r7, #4]
  /* Control if the TX fifo is empty */
  if (SPI_WaitFifoStateUntilTimeout(hspi, SPI_FLAG_FTLVL, SPI_FTLVL_EMPTY, Timeout, Tickstart) != HAL_OK)
 8006f64:	68ba      	ldr	r2, [r7, #8]
 8006f66:	23c0      	movs	r3, #192	; 0xc0
 8006f68:	0159      	lsls	r1, r3, #5
 8006f6a:	68f8      	ldr	r0, [r7, #12]
 8006f6c:	687b      	ldr	r3, [r7, #4]
 8006f6e:	9300      	str	r3, [sp, #0]
 8006f70:	0013      	movs	r3, r2
 8006f72:	2200      	movs	r2, #0
 8006f74:	f7ff ff4e 	bl	8006e14 <SPI_WaitFifoStateUntilTimeout>
 8006f78:	1e03      	subs	r3, r0, #0
 8006f7a:	d007      	beq.n	8006f8c <SPI_EndRxTxTransaction+0x34>
  {
    SET_BIT(hspi->ErrorCode, HAL_SPI_ERROR_FLAG);
 8006f7c:	68fb      	ldr	r3, [r7, #12]
 8006f7e:	6e1b      	ldr	r3, [r3, #96]	; 0x60
 8006f80:	2220      	movs	r2, #32
 8006f82:	431a      	orrs	r2, r3
 8006f84:	68fb      	ldr	r3, [r7, #12]
 8006f86:	661a      	str	r2, [r3, #96]	; 0x60
    return HAL_TIMEOUT;
 8006f88:	2303      	movs	r3, #3
 8006f8a:	e027      	b.n	8006fdc <SPI_EndRxTxTransaction+0x84>
  }

  /* Control the BSY flag */
  if (SPI_WaitFlagStateUntilTimeout(hspi, SPI_FLAG_BSY, RESET, Timeout, Tickstart) != HAL_OK)
 8006f8c:	68ba      	ldr	r2, [r7, #8]
 8006f8e:	68f8      	ldr	r0, [r7, #12]
 8006f90:	687b      	ldr	r3, [r7, #4]
 8006f92:	9300      	str	r3, [sp, #0]
 8006f94:	0013      	movs	r3, r2
 8006f96:	2200      	movs	r2, #0
 8006f98:	2180      	movs	r1, #128	; 0x80
 8006f9a:	f7ff fead 	bl	8006cf8 <SPI_WaitFlagStateUntilTimeout>
 8006f9e:	1e03      	subs	r3, r0, #0
 8006fa0:	d007      	beq.n	8006fb2 <SPI_EndRxTxTransaction+0x5a>
  {
    SET_BIT(hspi->ErrorCode, HAL_SPI_ERROR_FLAG);
 8006fa2:	68fb      	ldr	r3, [r7, #12]
 8006fa4:	6e1b      	ldr	r3, [r3, #96]	; 0x60
 8006fa6:	2220      	movs	r2, #32
 8006fa8:	431a      	orrs	r2, r3
 8006faa:	68fb      	ldr	r3, [r7, #12]
 8006fac:	661a      	str	r2, [r3, #96]	; 0x60
    return HAL_TIMEOUT;
 8006fae:	2303      	movs	r3, #3
 8006fb0:	e014      	b.n	8006fdc <SPI_EndRxTxTransaction+0x84>
  }

  /* Control if the RX fifo is empty */
  if (SPI_WaitFifoStateUntilTimeout(hspi, SPI_FLAG_FRLVL, SPI_FRLVL_EMPTY, Timeout, Tickstart) != HAL_OK)
 8006fb2:	68ba      	ldr	r2, [r7, #8]
 8006fb4:	23c0      	movs	r3, #192	; 0xc0
 8006fb6:	00d9      	lsls	r1, r3, #3
 8006fb8:	68f8      	ldr	r0, [r7, #12]
 8006fba:	687b      	ldr	r3, [r7, #4]
 8006fbc:	9300      	str	r3, [sp, #0]
 8006fbe:	0013      	movs	r3, r2
 8006fc0:	2200      	movs	r2, #0
 8006fc2:	f7ff ff27 	bl	8006e14 <SPI_WaitFifoStateUntilTimeout>
 8006fc6:	1e03      	subs	r3, r0, #0
 8006fc8:	d007      	beq.n	8006fda <SPI_EndRxTxTransaction+0x82>
  {
    SET_BIT(hspi->ErrorCode, HAL_SPI_ERROR_FLAG);
 8006fca:	68fb      	ldr	r3, [r7, #12]
 8006fcc:	6e1b      	ldr	r3, [r3, #96]	; 0x60
 8006fce:	2220      	movs	r2, #32
 8006fd0:	431a      	orrs	r2, r3
 8006fd2:	68fb      	ldr	r3, [r7, #12]
 8006fd4:	661a      	str	r2, [r3, #96]	; 0x60
    return HAL_TIMEOUT;
 8006fd6:	2303      	movs	r3, #3
 8006fd8:	e000      	b.n	8006fdc <SPI_EndRxTxTransaction+0x84>
  }

  return HAL_OK;
 8006fda:	2300      	movs	r3, #0
}
 8006fdc:	0018      	movs	r0, r3
 8006fde:	46bd      	mov	sp, r7
 8006fe0:	b004      	add	sp, #16
 8006fe2:	bd80      	pop	{r7, pc}

08006fe4 <memset>:
 8006fe4:	0003      	movs	r3, r0
 8006fe6:	1882      	adds	r2, r0, r2
 8006fe8:	4293      	cmp	r3, r2
 8006fea:	d100      	bne.n	8006fee <memset+0xa>
 8006fec:	4770      	bx	lr
 8006fee:	7019      	strb	r1, [r3, #0]
 8006ff0:	3301      	adds	r3, #1
 8006ff2:	e7f9      	b.n	8006fe8 <memset+0x4>

08006ff4 <__libc_init_array>:
 8006ff4:	b570      	push	{r4, r5, r6, lr}
 8006ff6:	2600      	movs	r6, #0
 8006ff8:	4c0c      	ldr	r4, [pc, #48]	; (800702c <__libc_init_array+0x38>)
 8006ffa:	4d0d      	ldr	r5, [pc, #52]	; (8007030 <__libc_init_array+0x3c>)
 8006ffc:	1b64      	subs	r4, r4, r5
 8006ffe:	10a4      	asrs	r4, r4, #2
 8007000:	42a6      	cmp	r6, r4
 8007002:	d109      	bne.n	8007018 <__libc_init_array+0x24>
 8007004:	2600      	movs	r6, #0
 8007006:	f000 f819 	bl	800703c <_init>
 800700a:	4c0a      	ldr	r4, [pc, #40]	; (8007034 <__libc_init_array+0x40>)
 800700c:	4d0a      	ldr	r5, [pc, #40]	; (8007038 <__libc_init_array+0x44>)
 800700e:	1b64      	subs	r4, r4, r5
 8007010:	10a4      	asrs	r4, r4, #2
 8007012:	42a6      	cmp	r6, r4
 8007014:	d105      	bne.n	8007022 <__libc_init_array+0x2e>
 8007016:	bd70      	pop	{r4, r5, r6, pc}
 8007018:	00b3      	lsls	r3, r6, #2
 800701a:	58eb      	ldr	r3, [r5, r3]
 800701c:	4798      	blx	r3
 800701e:	3601      	adds	r6, #1
 8007020:	e7ee      	b.n	8007000 <__libc_init_array+0xc>
 8007022:	00b3      	lsls	r3, r6, #2
 8007024:	58eb      	ldr	r3, [r5, r3]
 8007026:	4798      	blx	r3
 8007028:	3601      	adds	r6, #1
 800702a:	e7f2      	b.n	8007012 <__libc_init_array+0x1e>
 800702c:	08009a20 	.word	0x08009a20
 8007030:	08009a20 	.word	0x08009a20
 8007034:	08009a24 	.word	0x08009a24
 8007038:	08009a20 	.word	0x08009a20

0800703c <_init>:
 800703c:	b5f8      	push	{r3, r4, r5, r6, r7, lr}
 800703e:	46c0      	nop			; (mov r8, r8)
 8007040:	bcf8      	pop	{r3, r4, r5, r6, r7}
 8007042:	bc08      	pop	{r3}
 8007044:	469e      	mov	lr, r3
 8007046:	4770      	bx	lr

08007048 <_fini>:
 8007048:	b5f8      	push	{r3, r4, r5, r6, r7, lr}
 800704a:	46c0      	nop			; (mov r8, r8)
 800704c:	bcf8      	pop	{r3, r4, r5, r6, r7}
 800704e:	bc08      	pop	{r3}
 8007050:	469e      	mov	lr, r3
 8007052:	4770      	bx	lr
